Microchip Technology Inc, vv1_10 (A) h

Tool Name:
  c:\program files (x86)\microchip\xc16\v1.10\bin\bin\..\bin/elf-ld.exe

Command:
  -p33FJ256GP710A \
  -o \
  dist/default/production/MatrixPilot-udb5.X.production.elf \
  -Lc:/program files (x86)/microchip/xc16/v1.10/bin/bin/.. \
  -Lc:/program files (x86)/microchip/xc16/v1.10/bin/bin/../../lib \
  -Lc:/program files (x86)/microchip/xc16/v1.10/bin/bin/../../lib/PIC24E \
  -Lc:/program files (x86)/microchip/xc16/v1.10/bin/bin/../../support/PIC24E/gld \
  -Lc:/program files (x86)/microchip/xc16/v1.10/bin/bin/../../lib/PIC24F \
  -Lc:/program files (x86)/microchip/xc16/v1.10/bin/bin/../../support/PIC24F/gld \
  -Lc:/program files (x86)/microchip/xc16/v1.10/bin/bin/../../lib/PIC24H \
  -Lc:/program files (x86)/microchip/xc16/v1.10/bin/bin/../../support/PIC24H/gld \
  -Lc:/program files (x86)/microchip/xc16/v1.10/bin/bin/../../lib/dsPIC30F \
  -Lc:/program files (x86)/microchip/xc16/v1.10/bin/bin/../../support/dsPIC30F/gld \
  -Lc:/program files (x86)/microchip/xc16/v1.10/bin/bin/../../lib/dsPIC33E \
  -Lc:/program files (x86)/microchip/xc16/v1.10/bin/bin/../../support/dsPIC33E/gld \
  -Lc:/program files (x86)/microchip/xc16/v1.10/bin/bin/../../lib/dsPIC33F \
  -Lc:/program files (x86)/microchip/xc16/v1.10/bin/bin/../../support/dsPIC33F/gld \
  build/default/production/_ext/1077471063/estWind.o \
  build/default/production/_ext/1077471063/estYawDrift.o \
  build/default/production/_ext/1077471063/gpsParseCommon.o \
  build/default/production/_ext/1077471063/gpsParseSTD.o \
  build/default/production/_ext/1077471063/gpsParseUBX.o \
  build/default/production/_ext/1077471063/mathlibNAV.o \
  build/default/production/_ext/1077471063/rmat.o \
  build/default/production/_ext/1077471063/libDCM.o \
  build/default/production/_ext/1077471063/deadReckoning.o \
  build/default/production/_ext/1077471063/gpsParseMTEK.o \
  build/default/production/_ext/1077471063/gpsParseNMEA.o \
  build/default/production/_ext/1077471063/fbcl.o \
  build/default/production/_ext/1077454706/background.o \
  build/default/production/_ext/1077454706/libUDB.o \
  build/default/production/_ext/1077454706/analog2digital_udb4.o \
  build/default/production/_ext/1077454706/servoOut.o \
  build/default/production/_ext/1077454706/osd.o \
  build/default/production/_ext/1077454706/24LC256.o \
  build/default/production/_ext/1077454706/events.o \
  build/default/production/_ext/1077454706/analog2digital_udb5.o \
  build/default/production/_ext/1077454706/mpu6000.o \
  build/default/production/_ext/1077454706/traps_asm.o \
  build/default/production/_ext/1077454706/mcu.o \
  build/default/production/_ext/1077454706/eeprom_udb4.o \
  build/default/production/_ext/1077454706/barometer.o \
  build/default/production/_ext/1077454706/magnetometer.o \
  build/default/production/_ext/1077454706/radioIn.o \
  build/default/production/_ext/1077454706/serialIO.o \
  build/default/production/_ext/1077454706/I2C1.o \
  build/default/production/_ext/1077454706/I2C2.o \
  build/default/production/_ext/1077454706/read.o \
  build/default/production/_ext/1077454706/uart.o \
  build/default/production/_ext/1077454706/write.o \
  build/default/production/_ext/1077454706/analog2digital_auav3.o \
  build/default/production/_ext/1077454706/analogs.o \
  build/default/production/_ext/1077454706/traps.o \
  build/default/production/_ext/1077454706/osd_bit.o \
  build/default/production/_ext/1077454706/osd_spi.o \
  build/default/production/_ext/1077454706/mpu_spi.o \
  build/default/production/_ext/1077454706/heartbeat.o \
  build/default/production/_ext/1077454706/sonarIn.o \
  build/default/production/_ext/679848855/madd.o \
  build/default/production/_ext/679848855/mmul.o \
  build/default/production/_ext/679848855/mscl.o \
  build/default/production/_ext/679848855/msub.o \
  build/default/production/_ext/679848855/mtrp.o \
  build/default/production/_ext/679848855/vadd.o \
  build/default/production/_ext/679848855/vcon.o \
  build/default/production/_ext/679848855/vcopy.o \
  build/default/production/_ext/679848855/vcor.o \
  build/default/production/_ext/679848855/vdot.o \
  build/default/production/_ext/679848855/vmax.o \
  build/default/production/_ext/679848855/vmin.o \
  build/default/production/_ext/679848855/vmul.o \
  build/default/production/_ext/679848855/vneg.o \
  build/default/production/_ext/679848855/vpow.o \
  build/default/production/_ext/679848855/vscl.o \
  build/default/production/_ext/679848855/vsub.o \
  build/default/production/_ext/679848855/vzpad.o \
  build/default/production/_ext/1472/config_tests.o \
  build/default/production/_ext/1472/behavior.o \
  build/default/production/_ext/1472/cameraCntrl.o \
  build/default/production/_ext/1472/main.o \
  build/default/production/_ext/1472/navigate.o \
  build/default/production/_ext/1472/pitchCntrl.o \
  build/default/production/_ext/1472/rollCntrl.o \
  build/default/production/_ext/1472/servoMix.o \
  build/default/production/_ext/1472/states.o \
  build/default/production/_ext/1472/yawCntrl.o \
  build/default/production/_ext/1472/telemetry.o \
  build/default/production/_ext/1472/servoPrepare.o \
  build/default/production/_ext/1472/flightplan-waypoints.o \
  build/default/production/_ext/1472/flightplan-logo.o \
  build/default/production/_ext/1472/mp_osd.o \
  build/default/production/_ext/1472/altitudeCntrl.o \
  build/default/production/_ext/1472/MAVLink.o \
  build/default/production/_ext/1472/mode_switch.o \
  build/default/production/_ext/1472/data_services.o \
  build/default/production/_ext/1472/data_storage.o \
  build/default/production/_ext/1472/nv_memory_table.o \
  build/default/production/_ext/1472/parameter_table.o \
  build/default/production/_ext/1472/airspeedCntrl.o \
  build/default/production/_ext/1472/altitudeCntrlVariable.o \
  build/default/production/_ext/1472/euler_angles.o \
  build/default/production/_ext/1472/fly_by_datalink.o \
  build/default/production/_ext/1472/console.o \
  build/default/production/_ext/1472/config.o \
  build/default/production/_ext/1472/MAVFlexiFunctions.o \
  build/default/production/_ext/1472/MAVMission.o \
  build/default/production/_ext/1472/MAVParams.o \
  build/default/production/_ext/1472/MAVUDBExtra.o \
  build/default/production/_ext/1472/barometerCntrl.o \
  build/default/production/_ext/1472/sonarCntrl.o \
  build/default/production/_ext/1077471063/estAirspeed.o \
  --defsym=__MPLAB_BUILD=1 \
  -Tp33FJ256GP710A.gld.00 \
  --heap=256 \
  --stack=16 \
  --check-sections \
  --data-init \
  --pack-data \
  --handles \
  --isr \
  --no-gc-sections \
  --fill-upper=0 \
  --stackguard=16 \
  --no-force-link \
  --smart-io \
  -Map=dist/default/production\MatrixPilot-udb4.X.production.map \
  -start-group \
  --library=lega-pic30-elf \
  --library=m-elf \
  --library=lega-c-elf \
  -end-group \

Archive member included because of file (symbol)

c:/program files (x86)/microchip/xc16/v1.10/bin/bin/../../lib/dsPIC33F\libp33FJ256GP710A-elf.a(CloseSPI2.o)
                              build/default/production/_ext/1077454706/mpu_spi.o (_CloseSPI2)
c:/program files (x86)/microchip/xc16/v1.10/bin/bin/../../lib/dsPIC33F\libp33FJ256GP710A-elf.a(ConfigIntSPI2.o)
                              build/default/production/_ext/1077454706/mpu_spi.o (_ConfigIntSPI2)
c:/program files (x86)/microchip/xc16/v1.10/bin/bin/../../lib/dsPIC33F\libp33FJ256GP710A-elf.a(OpenSPI2.o)
                              build/default/production/_ext/1077454706/mpu_spi.o (_OpenSPI2)
c:/program files (x86)/microchip/xc16/v1.10/bin/bin/../../lib\liblega-pic30-elf.a(crt0_standard.o)
                              (__resetPRI)
c:/program files (x86)/microchip/xc16/v1.10/bin/bin/../../lib\liblega-pic30-elf.a(data_init_standard.o)
                              c:/program files (x86)/microchip/xc16/v1.10/bin/bin/../../lib\liblega-pic30-elf.a(crt0_standard.o) (__data_init_standard)
c:/program files (x86)/microchip/xc16/v1.10/bin/bin/../../lib\liblega-pic30-elf.a(c30_uart.Leo)
                              build/default/production/_ext/1077454706/read.o (___C30_UART)
c:/program files (x86)/microchip/xc16/v1.10/bin/bin/../../lib\liblega-pic30-elf.a(delay32.Leo)
                              build/default/production/_ext/1077454706/osd.o (___delay32)
c:/program files (x86)/microchip/xc16/v1.10/bin/bin/../../lib\libm-elf.a(addsf3.eo)
                              build/default/production/_ext/1472/barometerCntrl.o (___subsf3)
c:/program files (x86)/microchip/xc16/v1.10/bin/bin/../../lib\libm-elf.a(divsf3.eo)
                              build/default/production/_ext/1472/mp_osd.o (___divsf3)
c:/program files (x86)/microchip/xc16/v1.10/bin/bin/../../lib\libm-elf.a(divsi3.eo)
                              build/default/production/_ext/1077471063/gpsParseCommon.o (___divsi3)
c:/program files (x86)/microchip/xc16/v1.10/bin/bin/../../lib\libm-elf.a(expf.eo)
                              build/default/production/_ext/1472/barometerCntrl.o (_expf)
c:/program files (x86)/microchip/xc16/v1.10/bin/bin/../../lib\libm-elf.a(feqltle.eo)
                              c:/program files (x86)/microchip/xc16/v1.10/bin/bin/../../lib\libm-elf.a(expf.eo) (___ltsf2)
c:/program files (x86)/microchip/xc16/v1.10/bin/bin/../../lib\libm-elf.a(fgtge.eo)
                              c:/program files (x86)/microchip/xc16/v1.10/bin/bin/../../lib\libm-elf.a(expf.eo) (___gtsf2)
c:/program files (x86)/microchip/xc16/v1.10/bin/bin/../../lib\libm-elf.a(fixsfsi.eo)
                              build/default/production/_ext/1077454706/barometer.o (_(float, int, long long, short, float, short, int))
c:/program files (x86)/microchip/xc16/v1.10/bin/bin/../../lib\libm-elf.a(fixunssfsi.eo)
                              build/default/production/_ext/1077454706/barometer.o (___fixunssfsi)
c:/program files (x86)/microchip/xc16/v1.10/bin/bin/../../lib\libm-elf.a(floatsisf.eo)
                              build/default/production/_ext/1077454706/barometer.o (___floatsisf)
c:/program files (x86)/microchip/xc16/v1.10/bin/bin/../../lib\libm-elf.a(floatunsisf.eo)
                              build/default/production/_ext/1077454706/barometer.o (___floatunsisf)
c:/program files (x86)/microchip/xc16/v1.10/bin/bin/../../lib\libm-elf.a(fpack.eo)
                              c:/program files (x86)/microchip/xc16/v1.10/bin/bin/../../lib\libm-elf.a(addsf3.eo) (__fpack)
c:/program files (x86)/microchip/xc16/v1.10/bin/bin/../../lib\libm-elf.a(funpack.eo)
                              c:/program files (x86)/microchip/xc16/v1.10/bin/bin/../../lib\libm-elf.a(expf.eo) (__funpack)
c:/program files (x86)/microchip/xc16/v1.10/bin/bin/../../lib\libm-elf.a(funpack2.eo)
                              c:/program files (x86)/microchip/xc16/v1.10/bin/bin/../../lib\libm-elf.a(addsf3.eo) (__funpack2)
c:/program files (x86)/microchip/xc16/v1.10/bin/bin/../../lib\libm-elf.a(futil.eo)
                              c:/program files (x86)/microchip/xc16/v1.10/bin/bin/../../lib\libm-elf.a(addsf3.eo) (__fPropagateNaN)
c:/program files (x86)/microchip/xc16/v1.10/bin/bin/../../lib\libm-elf.a(ldexpf.eo)
                              c:/program files (x86)/microchip/xc16/v1.10/bin/bin/../../lib\libm-elf.a(expf.eo) (_ldexpf)
c:/program files (x86)/microchip/xc16/v1.10/bin/bin/../../lib\libm-elf.a(logf.eo)
                              build/default/production/_ext/1472/barometerCntrl.o (_logf)
c:/program files (x86)/microchip/xc16/v1.10/bin/bin/../../lib\libm-elf.a(modsi3.eo)
                              build/default/production/_ext/1077471063/gpsParseCommon.o (___modsi3)
c:/program files (x86)/microchip/xc16/v1.10/bin/bin/../../lib\libm-elf.a(mulsf3.eo)
                              build/default/production/_ext/1077454706/barometer.o (___mulsf3)
c:/program files (x86)/microchip/xc16/v1.10/bin/bin/../../lib\libm-elf.a(powf.eo)
                              build/default/production/_ext/1472/barometerCntrl.o (_powf)
c:/program files (x86)/microchip/xc16/v1.10/bin/bin/../../lib\libm-elf.a(sqrtf.eo)
                              build/default/production/_ext/1077471063/estAirspeed.o (_sqrtf)
c:/program files (x86)/microchip/xc16/v1.10/bin/bin/../../lib\libm-elf.a(udivsi3.eo)
                              build/default/production/_ext/1077454706/barometer.o (___udivsi3)
c:/program files (x86)/microchip/xc16/v1.10/bin/bin/../../lib\libm-elf.a(umodsi3.eo)
                              c:/program files (x86)/microchip/xc16/v1.10/bin/bin/../../lib\libm-elf.a(modsi3.eo) (___umodsi3)
c:/program files (x86)/microchip/xc16/v1.10/bin/bin/../../lib\libm-elf.a(divmoddi3.eo)
                              build/default/production/_ext/1077454706/serialIO.o (___divdi3)
c:/program files (x86)/microchip/xc16/v1.10/bin/bin/../../lib\libm-elf.a(_frexpf.eo)
                              c:/program files (x86)/microchip/xc16/v1.10/bin/bin/../../lib\libm-elf.a(logf.eo) (__frexpf)
c:/program files (x86)/microchip/xc16/v1.10/bin/bin/../../lib\libm-elf.a(errno.eo)
                              c:/program files (x86)/microchip/xc16/v1.10/bin/bin/../../lib\libm-elf.a(expf.eo) (_errno)
c:/program files (x86)/microchip/xc16/v1.10/bin/bin/../../lib\libm-elf.a(fchop.eo)
                              c:/program files (x86)/microchip/xc16/v1.10/bin/bin/../../lib\libm-elf.a(powf.eo) (__fchop)
c:/program files (x86)/microchip/xc16/v1.10/bin/bin/../../lib\libm-elf.a(fcompare.eo)
                              c:/program files (x86)/microchip/xc16/v1.10/bin/bin/../../lib\libm-elf.a(feqltle.eo) (__fcompare)
c:/program files (x86)/microchip/xc16/v1.10/bin/bin/../../lib\liblega-c-elf.a(strlen.XXeo)
                              build/default/production/_ext/1077471063/gpsParseCommon.o (_strlen)
c:/program files (x86)/microchip/xc16/v1.10/bin/bin/../../lib\liblega-c-elf.a(vsnprint.XXeo)
                              build/default/production/_ext/1472/telemetry.o (_vsnprintf)
c:/program files (x86)/microchip/xc16/v1.10/bin/bin/../../lib\liblega-c-elf.a(xprintf.XXeo)
                              c:/program files (x86)/microchip/xc16/v1.10/bin/bin/../../lib\liblega-c-elf.a(vsnprint.XXeo) (__Printf)
c:/program files (x86)/microchip/xc16/v1.10/bin/bin/../../lib\liblega-c-elf.a(xputfld.XXeo)
                              c:/program files (x86)/microchip/xc16/v1.10/bin/bin/../../lib\liblega-c-elf.a(xprintf.XXeo) (__Putfld)
c:/program files (x86)/microchip/xc16/v1.10/bin/bin/../../lib\liblega-c-elf.a(strchr.XXelo)
                              c:/program files (x86)/microchip/xc16/v1.10/bin/bin/../../lib\liblega-c-elf.a(xprintf.XXeo) (_strchr)
c:/program files (x86)/microchip/xc16/v1.10/bin/bin/../../lib\liblega-c-elf.a(xvacopy.XXelo)
                              c:/program files (x86)/microchip/xc16/v1.10/bin/bin/../../lib\liblega-c-elf.a(xprintf.XXeo) (__Vacopy)
c:/program files (x86)/microchip/xc16/v1.10/bin/bin/../../lib\liblega-c-elf.a(printf_cdnopuxX.XXeo)
                              build/default/production/_ext/1077454706/mpu6000.o (__printf_cdnopuxX)
c:/program files (x86)/microchip/xc16/v1.10/bin/bin/../../lib\liblega-c-elf.a(xprintf_cdnopuxX.XXeo)
                              c:/program files (x86)/microchip/xc16/v1.10/bin/bin/../../lib\liblega-c-elf.a(printf_cdnopuxX.XXeo) (___Printf_cdnopuxX)
c:/program files (x86)/microchip/xc16/v1.10/bin/bin/../../lib\liblega-c-elf.a(xputfld_cdnopuxX.XXeo)
                              c:/program files (x86)/microchip/xc16/v1.10/bin/bin/../../lib\liblega-c-elf.a(xprintf_cdnopuxX.XXeo) (___Putfld_cdnopuxX)
c:/program files (x86)/microchip/xc16/v1.10/bin/bin/../../lib\liblega-c-elf.a(fwrite.XXeo)
                              c:/program files (x86)/microchip/xc16/v1.10/bin/bin/../../lib\liblega-c-elf.a(printf_cdnopuxX.XXeo) (_fwrite)
c:/program files (x86)/microchip/xc16/v1.10/bin/bin/../../lib\liblega-c-elf.a(memchr.XXeo)
                              c:/program files (x86)/microchip/xc16/v1.10/bin/bin/../../lib\liblega-c-elf.a(xputfld.XXeo) (_memchr)
c:/program files (x86)/microchip/xc16/v1.10/bin/bin/../../lib\liblega-c-elf.a(memcpy.XXeo)
                              c:/program files (x86)/microchip/xc16/v1.10/bin/bin/../../lib\liblega-c-elf.a(vsnprint.XXeo) (_memcpy)
c:/program files (x86)/microchip/xc16/v1.10/bin/bin/../../lib\liblega-c-elf.a(xfiles.XXeo)
                              c:/program files (x86)/microchip/xc16/v1.10/bin/bin/../../lib\liblega-c-elf.a(printf_cdnopuxX.XXeo) (__Stdout)
c:/program files (x86)/microchip/xc16/v1.10/bin/bin/../../lib\liblega-c-elf.a(xfwprep.XXeo)
                              c:/program files (x86)/microchip/xc16/v1.10/bin/bin/../../lib\liblega-c-elf.a(fwrite.XXeo) (__Fwprep)
c:/program files (x86)/microchip/xc16/v1.10/bin/bin/../../lib\liblega-c-elf.a(xldtob.XXeo)
                              c:/program files (x86)/microchip/xc16/v1.10/bin/bin/../../lib\liblega-c-elf.a(xputfld.XXeo) (__Ldtob)
c:/program files (x86)/microchip/xc16/v1.10/bin/bin/../../lib\liblega-c-elf.a(xldunsca.XXeo)
                              c:/program files (x86)/microchip/xc16/v1.10/bin/bin/../../lib\liblega-c-elf.a(xldtob.XXeo) (__LDunscale)
c:/program files (x86)/microchip/xc16/v1.10/bin/bin/../../lib\liblega-c-elf.a(xlitob.XXeo)
                              c:/program files (x86)/microchip/xc16/v1.10/bin/bin/../../lib\liblega-c-elf.a(xputfld.XXeo) (__Litob)
c:/program files (x86)/microchip/xc16/v1.10/bin/bin/../../lib\liblega-c-elf.a(xputtxt.XXeo)
                              c:/program files (x86)/microchip/xc16/v1.10/bin/bin/../../lib\liblega-c-elf.a(xprintf.XXeo) (__Puttxt)
c:/program files (x86)/microchip/xc16/v1.10/bin/bin/../../lib\liblega-c-elf.a(fclose.XXelo)
                              c:/program files (x86)/microchip/xc16/v1.10/bin/bin/../../lib\liblega-c-elf.a(xfwprep.XXeo) (__Closreg)
c:/program files (x86)/microchip/xc16/v1.10/bin/bin/../../lib\liblega-c-elf.a(fflush.XXelo)
                              c:/program files (x86)/microchip/xc16/v1.10/bin/bin/../../lib\liblega-c-elf.a(fwrite.XXeo) (__DNKfflush)
c:/program files (x86)/microchip/xc16/v1.10/bin/bin/../../lib\liblega-c-elf.a(ldiv.XXelo)
                              c:/program files (x86)/microchip/xc16/v1.10/bin/bin/../../lib\liblega-c-elf.a(xldtob.XXeo) (_ldiv)
c:/program files (x86)/microchip/xc16/v1.10/bin/bin/../../lib\liblega-c-elf.a(xatexit.XXelo)
                              c:/program files (x86)/microchip/xc16/v1.10/bin/bin/../../lib\liblega-c-elf.a(fclose.XXelo) (__Atexit)
c:/program files (x86)/microchip/xc16/v1.10/bin/bin/../../lib\liblega-c-elf.a(xdnorm.XXelo)
                              c:/program files (x86)/microchip/xc16/v1.10/bin/bin/../../lib\liblega-c-elf.a(xldunsca.XXeo) (__Dnorm)
c:/program files (x86)/microchip/xc16/v1.10/bin/bin/../../lib\liblega-c-elf.a(xldscale.XXelo)
                              c:/program files (x86)/microchip/xc16/v1.10/bin/bin/../../lib\liblega-c-elf.a(xldtob.XXeo) (__LDscale)
c:/program files (x86)/microchip/xc16/v1.10/bin/bin/../../lib\liblega-c-elf.a(free.XXeo)
                              c:/program files (x86)/microchip/xc16/v1.10/bin/bin/../../lib\liblega-c-elf.a(fclose.XXelo) (_free)
c:/program files (x86)/microchip/xc16/v1.10/bin/bin/../../lib\liblega-c-elf.a(malloc.XXeo)
                              c:/program files (x86)/microchip/xc16/v1.10/bin/bin/../../lib\liblega-c-elf.a(free.XXeo) (__Aldata)
c:/program files (x86)/microchip/xc16/v1.10/bin/bin/../../lib\liblega-c-elf.a(xgenld.XXeo)
                              c:/program files (x86)/microchip/xc16/v1.10/bin/bin/../../lib\liblega-c-elf.a(xldtob.XXeo) (__Genld)
c:/program files (x86)/microchip/xc16/v1.10/bin/bin/../../lib\liblega-c-elf.a(xgetmem.XXeo)
                              c:/program files (x86)/microchip/xc16/v1.10/bin/bin/../../lib\liblega-c-elf.a(malloc.XXeo) (__Getmem)
c:/program files (x86)/microchip/xc16/v1.10/bin/bin/../../lib\liblega-c-elf.a(div.XXelo)
                              c:/program files (x86)/microchip/xc16/v1.10/bin/bin/../../lib\liblega-c-elf.a(xgenld.XXeo) (_div)
c:/program files (x86)/microchip/xc16/v1.10/bin/bin/../../lib\liblega-pic30-elf.a(close.Leo)
                              c:/program files (x86)/microchip/xc16/v1.10/bin/bin/../../lib\liblega-c-elf.a(fclose.XXelo) (_close)
c:/program files (x86)/microchip/xc16/v1.10/bin/bin/../../lib\liblega-pic30-elf.a(remove.Leo)
                              c:/program files (x86)/microchip/xc16/v1.10/bin/bin/../../lib\liblega-c-elf.a(fclose.XXelo) (_remove)
c:/program files (x86)/microchip/xc16/v1.10/bin/bin/../../lib\liblega-pic30-elf.a(sbrk.Leo)
                              c:/program files (x86)/microchip/xc16/v1.10/bin/bin/../../lib\liblega-c-elf.a(xgetmem.XXeo) (_sbrk)
c:/program files (x86)/microchip/xc16/v1.10/bin/bin/../../lib\liblega-pic30-elf.a(brk.Lelo)
                              c:/program files (x86)/microchip/xc16/v1.10/bin/bin/../../lib\liblega-pic30-elf.a(sbrk.Leo) (_brk)
c:/program files (x86)/microchip/xc16/v1.10/bin/bin/../../lib\libm-elf.a(deqltle.eo)
                              c:/program files (x86)/microchip/xc16/v1.10/bin/bin/../../lib\liblega-c-elf.a(xldtob.XXeo) (___ltdf2)
c:/program files (x86)/microchip/xc16/v1.10/bin/bin/../../lib\libm-elf.a(dgtge.eo)
                              c:/program files (x86)/microchip/xc16/v1.10/bin/bin/../../lib\liblega-c-elf.a(xldtob.XXeo) (___gtdf2)
c:/program files (x86)/microchip/xc16/v1.10/bin/bin/../../lib\libm-elf.a(divdf3.eo)
                              c:/program files (x86)/microchip/xc16/v1.10/bin/bin/../../lib\liblega-c-elf.a(xldtob.XXeo) (___divdf3)
c:/program files (x86)/microchip/xc16/v1.10/bin/bin/../../lib\libm-elf.a(dpack.eo)
                              c:/program files (x86)/microchip/xc16/v1.10/bin/bin/../../lib\libm-elf.a(divdf3.eo) (__dpack)
c:/program files (x86)/microchip/xc16/v1.10/bin/bin/../../lib\libm-elf.a(dunpack2.eo)
                              c:/program files (x86)/microchip/xc16/v1.10/bin/bin/../../lib\libm-elf.a(divdf3.eo) (__dunpack2)
c:/program files (x86)/microchip/xc16/v1.10/bin/bin/../../lib\libm-elf.a(extendsfdf.eo)
                              c:/program files (x86)/microchip/xc16/v1.10/bin/bin/../../lib\liblega-c-elf.a(xputfld.XXeo) (___extendsfdf2)
c:/program files (x86)/microchip/xc16/v1.10/bin/bin/../../lib\libm-elf.a(fixdfsi.eo)
                              c:/program files (x86)/microchip/xc16/v1.10/bin/bin/../../lib\liblega-c-elf.a(xldtob.XXeo) (_(float, int, long long, double, float, short, int))
c:/program files (x86)/microchip/xc16/v1.10/bin/bin/../../lib\libm-elf.a(floatsidf.eo)
                              c:/program files (x86)/microchip/xc16/v1.10/bin/bin/../../lib\liblega-c-elf.a(xldtob.XXeo) (___floatsidf)
c:/program files (x86)/microchip/xc16/v1.10/bin/bin/../../lib\libm-elf.a(muldf3.eo)
                              c:/program files (x86)/microchip/xc16/v1.10/bin/bin/../../lib\liblega-c-elf.a(xldtob.XXeo) (___muldf3)
c:/program files (x86)/microchip/xc16/v1.10/bin/bin/../../lib\libm-elf.a(subdf3.eo)
                              c:/program files (x86)/microchip/xc16/v1.10/bin/bin/../../lib\liblega-c-elf.a(xldtob.XXeo) (___subdf3)
c:/program files (x86)/microchip/xc16/v1.10/bin/bin/../../lib\libm-elf.a(mulsi3.eo)
                              c:/program files (x86)/microchip/xc16/v1.10/bin/bin/../../lib\liblega-c-elf.a(xldtob.XXeo) (___mulsi3)
c:/program files (x86)/microchip/xc16/v1.10/bin/bin/../../lib\libm-elf.a(adddf3.eo)
                              c:/program files (x86)/microchip/xc16/v1.10/bin/bin/../../lib\libm-elf.a(subdf3.eo) (___adddf3)
c:/program files (x86)/microchip/xc16/v1.10/bin/bin/../../lib\libm-elf.a(dcompare.eo)
                              c:/program files (x86)/microchip/xc16/v1.10/bin/bin/../../lib\libm-elf.a(deqltle.eo) (__dcompare)
c:/program files (x86)/microchip/xc16/v1.10/bin/bin/../../lib\libm-elf.a(dpropagateNaN.eo)
                              c:/program files (x86)/microchip/xc16/v1.10/bin/bin/../../lib\libm-elf.a(dunpack2.eo) (__dPropagateNaN)
c:/program files (x86)/microchip/xc16/v1.10/bin/bin/../../lib\libm-elf.a(dtype.eo)
                              c:/program files (x86)/microchip/xc16/v1.10/bin/bin/../../lib\libm-elf.a(dcompare.eo) (__dtype)
c:/program files (x86)/microchip/xc16/v1.10/bin/bin/../../lib\libm-elf.a(dunpack.eo)
                              c:/program files (x86)/microchip/xc16/v1.10/bin/bin/../../lib\libm-elf.a(dunpack2.eo) (__dunpack)
c:/program files (x86)/microchip/xc16/v1.10/bin/bin/../../lib\libm-elf.a(floatdidf.eo)
                              c:/program files (x86)/microchip/xc16/v1.10/bin/bin/../../lib\libm-elf.a(floatsidf.eo) (___floatdidf)


Selected CodeGuard Options:
  FGS:GWRP:OFF
  FGS:GSS:OFF

CodeGuard FLASH Memory:
  boot    (none)
  secure  (none)
  general 0x200 to 0x2abfc

CodeGuard RAM Memory:
  general 0x800 to 0x7fff
  secure  (none)
  boot    (none)


Program Memory  [Origin = 0x200, Length = 0x2a9fe]

section                    address   length (PC units)   length (bytes) (dec)
-------                    -------   -----------------   --------------------
.text                        0x200              0x309e          0x48ed  (18669)
.const                      0x329e               0xf4a          0x16ef  (5871)
.text                       0x41e8              0x4796          0x6b61  (27489)
.dinit                      0x897e               0x3d2           0x5bb  (1467)
.text                       0x8d50              0x3a38          0x5754  (22356)
.init.delay32               0xc788                0x1c            0x2a  (42)
.text                       0xc7a4                 0xc            0x12  (18)

                     Total program memory used (bytes):        0x12888  (75912) 28%


Data Memory  [Origin = 0x800, Length = 0x7800]

section                    address      alignment gaps    total length  (dec)
-------                    -------      --------------    -------------------
.nbss                        0x800                   0           0x126  (294)
.ndata                       0x926                   0            0x60  (96)
.nbss                        0x986                   0           0x208  (520)
.ndata                       0xb8e                   0            0x38  (56)
.nbss                        0xbc6                   0            0x68  (104)
.ndata                       0xc2e                   0            0x30  (48)
.nbss                        0xc5e                   0            0x58  (88)
.ndata                       0xcb6                   0            0x58  (88)
.nbss                        0xd0e                   0            0x7c  (124)
.ndata                       0xd8a                   0            0x10  (16)
.nbss                        0xd9a                   0            0x26  (38)
.ndata                       0xdc0                   0             0xc  (12)
.nbss                        0xdcc                   0            0x14  (20)
.ndata                       0xde0                   0             0xa  (10)
.nbss                        0xdea                   0             0xa  (10)
.ndata                       0xdf4                   0             0xa  (10)
.nbss                        0xdfe                   0             0xa  (10)
.ndata                       0xe08                   0             0xa  (10)
.nbss                        0xe12                   0             0xa  (10)
.ndata                       0xe1c                   0             0xa  (10)
.nbss                        0xe26                   0             0x8  (8)
.ndata                       0xe2e                   0             0x8  (8)
.nbss                        0xe36                   0             0x8  (8)
.ndata                       0xe3e                   0             0xe  (14)
.nbss                        0xe4c                   0             0x6  (6)
.ndata                       0xe52                   0             0x4  (4)
.nbss                        0xe56                   0             0x4  (4)
.ndata                       0xe5a                   0             0x4  (4)
_02E222A05338212b            0xe5e                   0             0x4  (4)
.ndata                       0xe62                   0             0x8  (8)
.nbss                        0xe6a                   0             0xa  (10)
.ndata                       0xe74                   0             0x6  (6)
_02E221805338212b            0xe7a                   0             0x2  (2)
_02E223005338212b            0xe7c                   0             0x2  (2)
.ndata                       0xe7e                   0             0x4  (4)
.nbss                        0xe82                   0             0x2  (2)
.ndata                       0xe84                   0             0x2  (2)
.nbss                        0xe86                   0             0x2  (2)
.data._Stdin                 0xe88                   0            0x88  (136)
.data.pows                   0xf10                   0            0x48  (72)
.data                        0xf58                   0            0x32  (50)
.data.udigs                  0xf8a                   0            0x22  (34)
.data                        0xfac                   0            0x1a  (26)
.bss                         0xfc6                   0             0x2  (2)
.data                        0xfc8                   0             0x2  (2)
.bss                         0xfca                   0             0x2  (2)
.heap                        0xfcc                   0           0x100  (256)
_02F6A42053382129           0x7fc0                   0             0xc  (12)
.data.fbit                  0x7fcc                   0            0x12  (18)
.data.__C30_UART            0x7fde                   0             0x2  (2)
_02F6A30053382129           0x7fe0                   0             0xc  (12)
.data                       0x7fec                   0             0x8  (8)
.bss                        0x7ff4                   0             0x6  (6)
.data._Aldata               0x7ffa                   0             0x6  (6)

                        Total data memory used (bytes):          0x90c  (2316) 7%


Dynamic Memory Usage

region                     address                      maximum length  (dec)
------                     -------                      ---------------------
heap                         0xfcc                               0x100  (256)
stack                       0x10cc                              0x6ef4  (28404)

                        Maximum dynamic memory (bytes):         0x6ff4  (28660)


External Symbols in Data Memory (by address):

                    0x0800                  _voltage_temp
                    0x0802                  _fp_high_byte
                    0x0803                  _fp_checksum
                    0x0804                  _serial_buffer
                    0x0926                  _ggain
                    0x092c                  _spin_rate
                    0x092e                  _spin_axis
                    0x0934                  _rmat
                    0x0958                  _omegagyro
                    0x095e                  _accelEarth
                    0x0964                  _omegaAccum
                    0x096a                  _gplane
                    0x0970                  _dirovergndHGPS
                    0x0976                  _dirovergndHRmat
                    0x097c                  _magAlignment
                    0x0986                  _events
                    0x0a1c                  _magFieldEarth
                    0x0a22                  _rmatPrevious
                    0x0a34                  _magFieldEarthNormalizedPrevious
                    0x0a3a                  _magFieldBodyMagnitudePrevious
                    0x0a3c                  _magFieldBodyPrevious
                    0x0a42                  _mpu_data
                    0x0a52                  _udb_xaccel
                    0x0a5c                  _udb_yaccel
                    0x0a66                  _udb_zaccel
                    0x0a70                  _udb_xrate
                    0x0a7a                  _udb_yrate
                    0x0a84                  _udb_zrate
                    0x0a8e                  _mpu_temp
                    0x0a98                  _vref_adj
                    0x0a9a                  _lat_origin
                    0x0a9e                  _lon_origin
                    0x0aa2                  _alt_origin
                    0x0aa6                  _lat_gps
                    0x0aaa                  _lon_gps
                    0x0aae                  _alt_sl_gps
                    0x0ab2                  _week_no
                    0x0ab4                  _sog_gps
                    0x0ab6                  _cog_gps
                    0x0ab8                  _climb_gps
                    0x0aba                  _as_sim
                    0x0abc                  _tow
                    0x0ac0                  _hdop
                    0x0ac1                  _svs
                    0x0ac2                  _gps_data_age
                    0x0ac4                  _lat_gps_
                    0x0ac8                  _lon_gps_
                    0x0acc                  _alt_sl_gps_
                    0x0ad0                  _tow_
                    0x0ad4                  _hdop_
                    0x0ad6                  _actual_dir
                    0x0ad7                  _calculated_heading
                    0x0ae4                  _date_gps_
                    0x0ae8                  _time_gps_
                    0x0aee                  _absoluteXLong
                    0x0af2                  _logo_inject_instr
                    0x0af6                  _logoStack
                    0x0b26                  _turtleLocations
                    0x0b3a                  _currentTurtle
                    0x0b3c                  _penState
                    0x0b8e                  _dead_reckon_clock
                    0x0b90                  _IMUvelocityx
                    0x0b94                  _IMUvelocityy
                    0x0b98                  _IMUvelocityz
                    0x0b9c                  _forward_ground_speed
                    0x0b9e                  _IMUlocationx
                    0x0ba2                  _IMUlocationy
                    0x0ba6                  _IMUlocationz
                    0x0baa                  _IMUintegralAccelerationx
                    0x0bae                  _IMUintegralAccelerationy
                    0x0bb2                  _IMUintegralAccelerationz
                    0x0bb6                  _air_speed_3DIMU
                    0x0bb8                  _total_energy
                    0x0bba                  _locationErrorEarth
                    0x0bc0                  _velocityErrorEarth
                    0x0bc6                  _udb_analogInputs
                    0x0bda                  _udb_vcc
                    0x0be4                  _udb_5v
                    0x0bee                  _udb_vref
                    0x0bf8                  _sample_count
                    0x0bfa                  _i2c2_queue
                    0x0c2e                  _hmc5883read_index
                    0x0c2f                  _hmc5883write_index
                    0x0c30                  _enableMagRead
                    0x0c33                  _enableMagCalibration
                    0x0c36                  _resetMagnetometer
                    0x0c3a                  _udb_magOffset
                    0x0c40                  _udb_staticMagOffset
                    0x0c46                  _magGain
                    0x0c4c                  _rawMagCalib
                    0x0c52                  _I2interrupts
                    0x0c54                  _magMessage
                    0x0c56                  _magCalibPause
                    0x0c58                  _previousMagFieldRaw
                    0x0c5e                  _udb_pwIn
                    0x0c70                  _udb_pwTrim
                    0x0c86                  _udb_pwm_sonar
                    0x0cb6                  _GPSlocation
                    0x0cbc                  _GPSvelocity
                    0x0cc2                  _cos_lat
                    0x0cc4                  _gps_out_buffer
                    0x0cc6                  _gps_out_buffer_length
                    0x0cc8                  _gps_out_index
                    0x0cca                  _ground_velocity_magnitudeXY
                    0x0ccc                  _forward_acceleration
                    0x0cce                  _air_speed_magnitudeXY
                    0x0cd0                  _air_speed_3DGPS
                    0x0cd4                  _instructionIndex
                    0x0cd6                  _waypointIndex
                    0x0cd8                  _absoluteHighWord
                    0x0cda                  _currentInstructionSet
                    0x0cdc                  _numInstructionsInCurrentSet
                    0x0cde                  _instructionsProcessed
                    0x0ce0                  _logo_inject_pos
                    0x0ce2                  _interruptIndex
                    0x0ce4                  _interruptStackBase
                    0x0ce6                  _logoStackIndex
                    0x0ce8                  _lastGoal
                    0x0cee                  _turtleAngles
                    0x0cf2                  _pI2C2_callback
                    0x0cf4                  _I2C2ERROR
                    0x0cf6                  _I2C2MAXS
                    0x0cf8                  _I2C2MAXQ
                    0x0cfa                  _I2C2_Busy
                    0x0cfc                  _I2C2_state
                    0x0cfe                  _I2C2_CommandByte
                    0x0d00                  _I2C2_tx_data_size
                    0x0d02                  _I2C2_rx_data_size
                    0x0d04                  _I2C2_command_data_size
                    0x0d06                  _pI2C2Buffer
                    0x0d08                  _pI2C2commandBuffer
                    0x0d0a                  _I2C2_service_handle
                    0x0d0c                  _I2C2_ERROR
                    0x0d0e                  _yawkpail
                    0x0d10                  _yawkprud
                    0x0d12                  _goal
                    0x0d22                  _desired_bearing_over_ground
                    0x0d24                  _desired_bearing_over_ground_vector
                    0x0d28                  _desiredHeight
                    0x0d2a                  _height_target_min
                    0x0d2c                  _height_target_max
                    0x0d2e                  _height_margin
                    0x0d30                  _alt_hold_throttle_min
                    0x0d32                  _alt_hold_throttle_max
                    0x0d34                  _alt_hold_pitch_min
                    0x0d36                  _alt_hold_pitch_max
                    0x0d38                  _alt_hold_pitch_high
                    0x0d3a                  _rtl_pitch_down
                    0x0d3c                  _desiredSpeed
                    0x0d3e                  _payloadlength
                    0x0d40                  _un
                    0x0d41                  _svs_
                    0x0d42                  _nav_valid_
                    0x0d44                  _nav_type_
                    0x0d46                  _sog_gps_
                    0x0d48                  _climb_gps_
                    0x0d4a                  _week_no_
                    0x0d4c                  _cog_gps_
                    0x0d4e                  _checksum_
                    0x0d50                  _calculated_checksum
                    0x0d52                  _udb_magFieldBody
                    0x0d58                  _magreg
                    0x0d5e                  _magFieldRaw
                    0x0d64                  _mrindex
                    0x0d66                  _pitchgain
                    0x0d68                  _pitchkd
                    0x0d6a                  _hoverpitchgain
                    0x0d6c                  _hoverpitchkd
                    0x0d6e                  _rudderElevMixGain
                    0x0d70                  _rollElevMixGain
                    0x0d72                  _pitchrate
                    0x0d74                  _navElevMix
                    0x0d76                  _elevInput
                    0x0d78                  _minimum_groundspeed
                    0x0d7a                  _minimum_airspeed
                    0x0d7c                  _maximum_airspeed
                    0x0d7e                  _cruise_airspeed
                    0x0d80                  _airspeed_pitch_adjust_rate
                    0x0d82                  _airspeed_pitch_ki_limit
                    0x0d84                  _airspeed_pitch_ki
                    0x0d86                  _airspeed_pitch_min_aspd
                    0x0d88                  _airspeed_pitch_max_aspd
                    0x0d8a                  _cam_pitch_servo_pwm_delta
                    0x0d8c                  _cam_yaw_servo_pwm_delta
                    0x0d8e                  _view_location
                    0x0d94                  _camera_view
                    0x0d9a                  _udb_pwOut
                    0x0da6                  _outputNum
                    0x0db4                  _battery_current
                    0x0db8                  _battery_mAh_used
                    0x0dbc                  _battery_voltage
                    0x0dc0                  _throttleFiltered
                    0x0dc4                  _speed_height
                    0x0dc8                  _pitchAltitudeAdjust
                    0x0dca                  _filterManual
                    0x0dd6                  _current_orientation
                    0x0dd8                  _desired_behavior
                    0x0de0                  _togoal
                    0x0de4                  _tofinish_line
                    0x0de6                  _progress_to_goal
                    0x0de8                  _desired_dir
                    0x0de9                  _extended_range
                    0x0dea                  _yawkdail
                    0x0dec                  _rollkp
                    0x0dee                  _rollkd
                    0x0df0                  _hoverrollkp
                    0x0df2                  _hoverrollkd
                    0x0df4                  _waggle
                    0x0df6                  _counter
                    0x0dfe                  _yawkdrud
                    0x0e00                  _rollkprud
                    0x0e02                  _rollkdrud
                    0x0e04                  _hoveryawkp
                    0x0e06                  _hoveryawkd
                    0x0e08                  _voltage_milis
                    0x0e0a                  _sio_parse
                    0x0e0c                  _sb_index
                    0x0e0e                  _end_index
                    0x0e12                  _pitch_control
                    0x0e14                  _roll_control
                    0x0e16                  _yaw_control
                    0x0e18                  _throttle_control
                    0x0e1a                  _wind_gain
                    0x0e1c                  _il_pressure
                    0x0e20                  _il_temperature
                    0x0e22                  _il_aslaltitude
                    0x0e34                  _barometer_callback
                    0x0e3e                  _sonar_aglaltitude
                    0x0e40                  _sonar_rawaglaltitude
                    0x0e42                  _cos_sonarproll
                    0x0e46                  _estimatedWind
                    0x0e4c                  _flags
                    0x0e52                  _msg_parse
                    0x0e54                  _store_index
                    0x0e56                  _udb_flags
                    0x0e5a                  _mpuCnt
                    0x0e5c                  _mpuDAV
                    0x0e5e                  _trap_source
                    0x0e62                  _dmaErrFlag
                    0x0e64                  _dmaPWErrLoc
                    0x0e66                  _one_hertz_flag
                    0x0e68                  _udb_heartbeat_counter
                    0x0e72                  _dcm_flags
                    0x0e74                  _event_init_done
                    0x0e76                  _DmaBuffer
                    0x0e78                  _defaultCorcon
                    0x0e7a                  _trap_flags
                    0x0e7c                  _osc_fail_count
                    0x0e7e                  _eeprom_control
                    0x0e80                  _ppm_ch
                    0x0e82                  _dmaRWErrLoc
                    0x0e88                  __Stdin
                    0x0eb0                  __Stdout
                    0x0ed8                  __Stderr
                    0x0f00                  __Files
                    0x0fca                  ___curbrk
                    0x7fc0                  _BufferB
                    0x7fde                  ___C30_UART
                    0x7fe0                  _BufferA
                    0x7ff4                  _JmpStckPtr
                    0x7ff6                  _JmpAddrLow
                    0x7ff8                  _JmpAddrHgh
                    0x7ffa                  __Aldata
                    0x7ffe                  __Size_block

External Symbols in Data Memory (by name):

                    0x7fe0                  _BufferA
                    0x7fc0                  _BufferB
                    0x0e76                  _DmaBuffer
                    0x0cb6                  _GPSlocation
                    0x0cbc                  _GPSvelocity
                    0x0cf4                  _I2C2ERROR
                    0x0cf8                  _I2C2MAXQ
                    0x0cf6                  _I2C2MAXS
                    0x0cfa                  _I2C2_Busy
                    0x0cfe                  _I2C2_CommandByte
                    0x0d0c                  _I2C2_ERROR
                    0x0d04                  _I2C2_command_data_size
                    0x0d02                  _I2C2_rx_data_size
                    0x0d0a                  _I2C2_service_handle
                    0x0cfc                  _I2C2_state
                    0x0d00                  _I2C2_tx_data_size
                    0x0c52                  _I2interrupts
                    0x0baa                  _IMUintegralAccelerationx
                    0x0bae                  _IMUintegralAccelerationy
                    0x0bb2                  _IMUintegralAccelerationz
                    0x0b9e                  _IMUlocationx
                    0x0ba2                  _IMUlocationy
                    0x0ba6                  _IMUlocationz
                    0x0b90                  _IMUvelocityx
                    0x0b94                  _IMUvelocityy
                    0x0b98                  _IMUvelocityz
                    0x7ff8                  _JmpAddrHgh
                    0x7ff6                  _JmpAddrLow
                    0x7ff4                  _JmpStckPtr
                    0x7ffa                  __Aldata
                    0x0f00                  __Files
                    0x7ffe                  __Size_block
                    0x0ed8                  __Stderr
                    0x0e88                  __Stdin
                    0x0eb0                  __Stdout
                    0x7fde                  ___C30_UART
                    0x0fca                  ___curbrk
                    0x0cd8                  _absoluteHighWord
                    0x0aee                  _absoluteXLong
                    0x095e                  _accelEarth
                    0x0ad6                  _actual_dir
                    0x0cd0                  _air_speed_3DGPS
                    0x0bb6                  _air_speed_3DIMU
                    0x0cce                  _air_speed_magnitudeXY
                    0x0d80                  _airspeed_pitch_adjust_rate
                    0x0d84                  _airspeed_pitch_ki
                    0x0d82                  _airspeed_pitch_ki_limit
                    0x0d88                  _airspeed_pitch_max_aspd
                    0x0d86                  _airspeed_pitch_min_aspd
                    0x0d38                  _alt_hold_pitch_high
                    0x0d36                  _alt_hold_pitch_max
                    0x0d34                  _alt_hold_pitch_min
                    0x0d32                  _alt_hold_throttle_max
                    0x0d30                  _alt_hold_throttle_min
                    0x0aa2                  _alt_origin
                    0x0aae                  _alt_sl_gps
                    0x0acc                  _alt_sl_gps_
                    0x0aba                  _as_sim
                    0x0e34                  _barometer_callback
                    0x0db4                  _battery_current
                    0x0db8                  _battery_mAh_used
                    0x0dbc                  _battery_voltage
                    0x0d50                  _calculated_checksum
                    0x0ad7                  _calculated_heading
                    0x0d8a                  _cam_pitch_servo_pwm_delta
                    0x0d8c                  _cam_yaw_servo_pwm_delta
                    0x0d94                  _camera_view
                    0x0d4e                  _checksum_
                    0x0ab8                  _climb_gps
                    0x0d48                  _climb_gps_
                    0x0ab6                  _cog_gps
                    0x0d4c                  _cog_gps_
                    0x0cc2                  _cos_lat
                    0x0e42                  _cos_sonarproll
                    0x0df6                  _counter
                    0x0d7e                  _cruise_airspeed
                    0x0cda                  _currentInstructionSet
                    0x0b3a                  _currentTurtle
                    0x0dd6                  _current_orientation
                    0x0ae4                  _date_gps_
                    0x0e72                  _dcm_flags
                    0x0b8e                  _dead_reckon_clock
                    0x0e78                  _defaultCorcon
                    0x0d28                  _desiredHeight
                    0x0d3c                  _desiredSpeed
                    0x0d22                  _desired_bearing_over_ground
                    0x0d24                  _desired_bearing_over_ground_vector
                    0x0dd8                  _desired_behavior
                    0x0de8                  _desired_dir
                    0x0970                  _dirovergndHGPS
                    0x0976                  _dirovergndHRmat
                    0x0e62                  _dmaErrFlag
                    0x0e64                  _dmaPWErrLoc
                    0x0e82                  _dmaRWErrLoc
                    0x0e7e                  _eeprom_control
                    0x0d76                  _elevInput
                    0x0c33                  _enableMagCalibration
                    0x0c30                  _enableMagRead
                    0x0e0e                  _end_index
                    0x0e46                  _estimatedWind
                    0x0e74                  _event_init_done
                    0x0986                  _events
                    0x0de9                  _extended_range
                    0x0dca                  _filterManual
                    0x0e4c                  _flags
                    0x0ccc                  _forward_acceleration
                    0x0b9c                  _forward_ground_speed
                    0x0803                  _fp_checksum
                    0x0802                  _fp_high_byte
                    0x0926                  _ggain
                    0x0d12                  _goal
                    0x096a                  _gplane
                    0x0ac2                  _gps_data_age
                    0x0cc4                  _gps_out_buffer
                    0x0cc6                  _gps_out_buffer_length
                    0x0cc8                  _gps_out_index
                    0x0cca                  _ground_velocity_magnitudeXY
                    0x0ac0                  _hdop
                    0x0ad4                  _hdop_
                    0x0d2e                  _height_margin
                    0x0d2c                  _height_target_max
                    0x0d2a                  _height_target_min
                    0x0c2e                  _hmc5883read_index
                    0x0c2f                  _hmc5883write_index
                    0x0d6a                  _hoverpitchgain
                    0x0d6c                  _hoverpitchkd
                    0x0df2                  _hoverrollkd
                    0x0df0                  _hoverrollkp
                    0x0e06                  _hoveryawkd
                    0x0e04                  _hoveryawkp
                    0x0bfa                  _i2c2_queue
                    0x0e22                  _il_aslaltitude
                    0x0e1c                  _il_pressure
                    0x0e20                  _il_temperature
                    0x0cd4                  _instructionIndex
                    0x0cde                  _instructionsProcessed
                    0x0ce2                  _interruptIndex
                    0x0ce4                  _interruptStackBase
                    0x0ce8                  _lastGoal
                    0x0aa6                  _lat_gps
                    0x0ac4                  _lat_gps_
                    0x0a9a                  _lat_origin
                    0x0bba                  _locationErrorEarth
                    0x0af6                  _logoStack
                    0x0ce6                  _logoStackIndex
                    0x0af2                  _logo_inject_instr
                    0x0ce0                  _logo_inject_pos
                    0x0aaa                  _lon_gps
                    0x0ac8                  _lon_gps_
                    0x0a9e                  _lon_origin
                    0x097c                  _magAlignment
                    0x0c56                  _magCalibPause
                    0x0a3a                  _magFieldBodyMagnitudePrevious
                    0x0a3c                  _magFieldBodyPrevious
                    0x0a1c                  _magFieldEarth
                    0x0a34                  _magFieldEarthNormalizedPrevious
                    0x0d5e                  _magFieldRaw
                    0x0c46                  _magGain
                    0x0c54                  _magMessage
                    0x0d58                  _magreg
                    0x0d7c                  _maximum_airspeed
                    0x0d7a                  _minimum_airspeed
                    0x0d78                  _minimum_groundspeed
                    0x0e5a                  _mpuCnt
                    0x0e5c                  _mpuDAV
                    0x0a42                  _mpu_data
                    0x0a8e                  _mpu_temp
                    0x0d64                  _mrindex
                    0x0e52                  _msg_parse
                    0x0d74                  _navElevMix
                    0x0d44                  _nav_type_
                    0x0d42                  _nav_valid_
                    0x0cdc                  _numInstructionsInCurrentSet
                    0x0964                  _omegaAccum
                    0x0958                  _omegagyro
                    0x0e66                  _one_hertz_flag
                    0x0e7c                  _osc_fail_count
                    0x0da6                  _outputNum
                    0x0d06                  _pI2C2Buffer
                    0x0cf2                  _pI2C2_callback
                    0x0d08                  _pI2C2commandBuffer
                    0x0d3e                  _payloadlength
                    0x0b3c                  _penState
                    0x0dc8                  _pitchAltitudeAdjust
                    0x0e12                  _pitch_control
                    0x0d66                  _pitchgain
                    0x0d68                  _pitchkd
                    0x0d72                  _pitchrate
                    0x0e80                  _ppm_ch
                    0x0c58                  _previousMagFieldRaw
                    0x0de6                  _progress_to_goal
                    0x0c4c                  _rawMagCalib
                    0x0c36                  _resetMagnetometer
                    0x0934                  _rmat
                    0x0a22                  _rmatPrevious
                    0x0d70                  _rollElevMixGain
                    0x0e14                  _roll_control
                    0x0dee                  _rollkd
                    0x0e02                  _rollkdrud
                    0x0dec                  _rollkp
                    0x0e00                  _rollkprud
                    0x0d3a                  _rtl_pitch_down
                    0x0d6e                  _rudderElevMixGain
                    0x0bf8                  _sample_count
                    0x0e0c                  _sb_index
                    0x0804                  _serial_buffer
                    0x0e0a                  _sio_parse
                    0x0ab4                  _sog_gps
                    0x0d46                  _sog_gps_
                    0x0e3e                  _sonar_aglaltitude
                    0x0e40                  _sonar_rawaglaltitude
                    0x0dc4                  _speed_height
                    0x092e                  _spin_axis
                    0x092c                  _spin_rate
                    0x0e54                  _store_index
                    0x0ac1                  _svs
                    0x0d41                  _svs_
                    0x0dc0                  _throttleFiltered
                    0x0e18                  _throttle_control
                    0x0ae8                  _time_gps_
                    0x0de4                  _tofinish_line
                    0x0de0                  _togoal
                    0x0bb8                  _total_energy
                    0x0abc                  _tow
                    0x0ad0                  _tow_
                    0x0e7a                  _trap_flags
                    0x0e5e                  _trap_source
                    0x0cee                  _turtleAngles
                    0x0b26                  _turtleLocations
                    0x0be4                  _udb_5v
                    0x0bc6                  _udb_analogInputs
                    0x0e56                  _udb_flags
                    0x0e68                  _udb_heartbeat_counter
                    0x0d52                  _udb_magFieldBody
                    0x0c3a                  _udb_magOffset
                    0x0c5e                  _udb_pwIn
                    0x0d9a                  _udb_pwOut
                    0x0c70                  _udb_pwTrim
                    0x0c86                  _udb_pwm_sonar
                    0x0c40                  _udb_staticMagOffset
                    0x0bda                  _udb_vcc
                    0x0bee                  _udb_vref
                    0x0a52                  _udb_xaccel
                    0x0a70                  _udb_xrate
                    0x0a5c                  _udb_yaccel
                    0x0a7a                  _udb_yrate
                    0x0a66                  _udb_zaccel
                    0x0a84                  _udb_zrate
                    0x0d40                  _un
                    0x0bc0                  _velocityErrorEarth
                    0x0d8e                  _view_location
                    0x0e08                  _voltage_milis
                    0x0800                  _voltage_temp
                    0x0a98                  _vref_adj
                    0x0df4                  _waggle
                    0x0cd6                  _waypointIndex
                    0x0ab2                  _week_no
                    0x0d4a                  _week_no_
                    0x0e1a                  _wind_gain
                    0x0e16                  _yaw_control
                    0x0dea                  _yawkdail
                    0x0dfe                  _yawkdrud
                    0x0d0e                  _yawkpail
                    0x0d10                  _yawkprud

External Symbols in Program Memory (by address):

                  0x000200                  __resetPRI
                  0x000222                  __psv_init
                  0x000232                  __data_init_standard
                  0x000232                  __data_init
                  0x00034c                  __DefaultInterrupt
                  0x00049a                  printf_cdnopuxX.XXeo:_prout
                  0x0004b6                  __printf_cdnopuxX
                  0x0004c6                  ___Printf_cdnopuxX
                  0x000638                  ___Putfld_cdnopuxX
                  0x00086e                  _FindFirstBitChangeFromLeft
                  0x000872                  _FindFirstBitFromLeft
                  0x000876                  _MatrixAdd
                  0x0008b6                  _MatrixMultiply
                  0x000930                  _MatrixScale
                  0x00096c                  _MatrixSubtract
                  0x0009ba                  _MatrixTranspose
                  0x000a02                  _VectorAdd
                  0x000a40                  _VectorConvolve
                  0x000b38                  _VectorCopy
                  0x000b48                  _VectorCorrelate
                  0x000b78                  _VectorDotProduct
                  0x000bb2                  _VectorMax
                  0x000bcc                  _VectorMin
                  0x000be6                  _VectorMultiply
                  0x000c22                  _VectorNegate
                  0x000c62                  _VectorPower
                  0x000c9a                  _VectorScale
                  0x000cd6                  _VectorSubtract
                  0x000d22                  _VectorZeroPad
                  0x000d40                  _CloseSPI2
                  0x000d48                  _ConfigIntSPI2
                  0x000d6a                  _OpenSPI2
                  0x000d72                  ___subsf3
                  0x000d74                  ___addsf3
                  0x000e2e                  ___divsf3
                  0x000eb2                  ___divsi3
                  0x000ed0                  _expf
                  0x000f94                  ___ltsf2
                  0x000f94                  ___lesf2
                  0x000f94                  ___eqsf2
                  0x000f98                  ___gtsf2
                  0x000f98                  ___gesf2
                  0x000f9c                  ___fixsfsi
                  0x000fde                  ___fixunssfsi
                  0x001014                  ___floatsisf
                  0x001030                  ___floatunsisf
                  0x001070                  __fpack
                  0x0010bc                  __funpack
                  0x0010e6                  __funpack2
                  0x0010f6                  __fPropagateNaN
                  0x001108                  __fbopExit
                  0x001110                  __fbopReturnNaN
                  0x001116                  _ldexpf
                  0x00115a                  _logf
                  0x001208                  ___modsi3
                  0x001226                  ___mulsf3
                  0x00128e                  _powf
                  0x001454                  _sqrtf
                  0x0014be                  ___udivsi3
                  0x0014de                  ___umodsi3
                  0x00153c                  ___udivmoddi3
                  0x001600                  ___udivdi3
                  0x00160e                  ___umoddi3
                  0x001616                  ___divdi3
                  0x00167c                  ___moddi3
                  0x0016d8                  __frexpf
                  0x0016f2                  __fchop
                  0x001740                  __fcompare
                  0x001776                  _strlen
                  0x001786                  vsnprint.XXeo:_prout
                  0x0017a8                  _vsnprintf
                  0x0017c8                  __Printf
                  0x00193a                  __Putfld
                  0x001c22                  _strchr
                  0x001c34                  __Vacopy
                  0x001c38                  _fwrite
                  0x001ce0                  _memchr
                  0x001cf2                  _memcpy
                  0x001d00                  __Fwprep
                  0x001d8e                  __Ldtob
                  0x0021ee                  __LDunscale
                  0x002242                  __Litob
                  0x0024ce                  __Puttxt
                  0x00264c                  __Closreg
                  0x002660                  _fclose
                  0x0026e8                  fclose.XXelo:_closeall
                  0x002700                  __DNKfflush
                  0x00277e                  _ldiv
                  0x0027a8                  __Atexit
                  0x0027c4                  __Dnorm
                  0x00285e                  __LDscale
                  0x002952                  _free
                  0x002a1a                  _malloc
                  0x002a6e                  __Genld
                  0x002cd4                  __Getmem
                  0x002ce8                  _div
                  0x002d6e                  ___ltdf2
                  0x002d6e                  ___ledf2
                  0x002d6e                  ___eqdf2
                  0x002d78                  ___gedf2
                  0x002d78                  ___gtdf2
                  0x002d82                  ___divdf3
                  0x002e36                  __dpack
                  0x002e8e                  __dunpack2
                  0x002eb0                  __dreturnNaN
                  0x002eb6                  __dunpack2exit
                  0x002ec0                  ___extendsfdf2
                  0x002efe                  ___fixdfsi
                  0x002f56                  ___floatsidf
                  0x002f5c                  ___muldf3
                  0x003046                  ___subdf3
                  0x00304a                  ___mulsi3
                  0x00304a                  ___mulp32peds3
                  0x00304a                  ___mulp32eds3
                  0x003056                  ___adddf3
                  0x003150                  __dcompare
                  0x0031a2                  __dPropagateNaN
                  0x0031be                  __dtype
                  0x0031e2                  __dunpack
                  0x003230                  ___floatdidf
                  0x00329e                  _instructions
                  0x003af6                  _rtlInstructions
                  0x003fe0                  _bin_mode
                  0x003ffc                  _mode
                  0x004006                  _mode_length
                  0x004008                  _msg41parse
                  0x0040c0                  _sintab
                  0x0041be                  _pitch_servo_high_ratio
                  0x0041c0                  _yaw_servo_high_ratio
                  0x0041c2                  _tan_pitch_in_stabilized_mode
                  0x0041c4                  _pitch_offset_centred_pwm
                  0x0041c6                  _yaw_offset_centred_pwm
                  0x0041c8                  _pitch_servo_pwm_max
                  0x0041ca                  _pitch_servo_pwm_min
                  0x0041cc                  _yaw_servo_pwm_max
                  0x0041ce                  _yaw_servo_pwm_min
                  0x0041d0                  _days_in_month
                  0x0041dc                  _aileronbgain
                  0x0041de                  _elevatorbgain
                  0x0041e0                  _rudderbgain
                  0x0041e8                  _init_flightplan
                  0x0042bc                  _use_fixed_origin
                  0x0042c4                  _get_fixed_origin
                  0x00432a                  _logo_goal_has_moved
                  0x004350                  _update_goal_from
                  0x0043c4                  _run_flightplan
                  0x00449a                  _find_start_of_subroutine
                  0x0044f4                  _find_end_of_current_if_block
                  0x0045ca                  _get_current_stack_parameter_frame_index
                  0x0045f4                  _get_current_angle
                  0x00462c                  _get_angle_to_point
                  0x00468a                  _logo_value_for_identifier
                  0x004812                  _process_one_instruction
                  0x0050ae                  _process_instructions
                  0x005116                  _flightplan_live_begin
                  0x00512a                  _flightplan_live_received_byte
                  0x0051b8                  _flightplan_live_commit
                  0x0051d8                  _yaw_drift_reset
                  0x0051ea                  _dcm_init_rmat
                  0x0053a2                  _udb_callback_read_sensors
                  0x005c80                  _udb_magnetometer_callback
                  0x005e5a                  _dcm_run_imu_step
                  0x00651a                  _osd_run_step
                  0x006610                  _sine
                  0x00666c                  _arcsine
                  0x00670c                  _cosine
                  0x00671a                  _rotate_2D_vector_by_vector
                  0x006788                  _rotate_2D_long_vector_by_vector
                  0x0067e6                  _rotate_2D_vector_by_angle
                  0x006802                  _rotate
                  0x00686c                  _rect_to_polar
                  0x006920                  _rect_to_polar16
                  0x0069fa                  _sqrt_int
                  0x006a64                  _sqrt_long
                  0x006b06                  _vector2_mag
                  0x006b26                  _vector3_mag
                  0x006b52                  _vector2_normalize
                  0x006bb4                  _vector3_normalize
                  0x006c3e                  _long_scale
                  0x006ccc                  _find_first_bit_int16
                  0x006cf6                  _find_first_bit_int32
                  0x006d4c                  _osd_reset
                  0x006d62                  _osd_init
                  0x006d6e                  _osd_spi_write_location
                  0x006d90                  _osd_spi_write_string
                  0x006db6                  _osd_spi_write_vertical_string_at_location
                  0x006df2                  _osd_spi_erase_chars
                  0x006e18                  _osd_spi_write_number
                  0x0073f8                  _init_serial
                  0x007406                  _udb_serial_callback_received_byte
                  0x007414                  _sio_newMsg
                  0x007448                  _sio_voltage_high
                  0x00745c                  _sio_voltage_low
                  0x007476                  _hex_char_val
                  0x0074ac                  _sio_fp_data
                  0x007502                  _sio_fp_checksum
                  0x007546                  _serial_output
                  0x007586                  _udb_serial_callback_get_byte_to_send
                  0x0075b0                  _restart_telemetry
                  0x0075ba                  _serial_output_8hz
                  0x007a68                  _I2C2_init
                  0x007b0a                  _I2C2_reset
                  0x007b32                  _I2C2_trigger_service
                  0x007b3e                  _serviceI2C2
                  0x007b58                  __MI2C2Interrupt
                  0x007b82                  _I2C2_CheckAvailable
                  0x007bb4                  _I2C2_Normal
                  0x007bce                  _I2C2_serve_queue
                  0x007caa                  _I2C2_Write
                  0x007d62                  _I2C2_Read
                  0x007e1a                  _I2C2_checkACK
                  0x007e50                  _I2C2_startWrite
                  0x007e60                  _I2C2_writeCommand
                  0x007e74                  _I2C2_writeCommandData
                  0x007ec2                  _I2C2_writeData
                  0x007f02                  _I2C2_writeStop
                  0x007f0e                  _I2C2_doneWrite
                  0x007f26                  _I2C2_readStart
                  0x007f36                  _I2C2_readCommand
                  0x007f48                  _I2C2_recen
                  0x007f64                  _I2C2_rerecen
                  0x007f70                  _I2C2_recstore
                  0x007f9e                  _I2C2_stopRead
                  0x007faa                  _I2C2_idle
                  0x007fb0                  _I2C2_doneRead
                  0x007fc8                  _I2C2_Failed
                  0x007fe4                  _rxBarometer
                  0x0080f0                  _ReadBarCalib_callback
                  0x0083f8                  _ReadBarTemp_callback
                  0x008438                  _ReadBarPres_callback
                  0x0084b4                  _get_gps_date
                  0x0084be                  _get_gps_time
                  0x0084c8                  _gps_init
                  0x0084d2                  _gpsoutbin
                  0x0084f0                  _gpsoutline
                  0x008508                  _udb_gps_callback_get_byte_to_send
                  0x008534                  _udb_gps_callback_received_byte
                  0x008542                  _gps_nav_capable_check_set
                  0x008574                  _gps_parse_common
                  0x008580                  build/default/production/_ext/1077471063/gpsParseCommon.o:_udb_background_callback_triggered
                  0x008788                  _calculate_week_num
                  0x008886                  _calculate_time_of_week
                  0x008d50                  _init_altitudeCntrl
                  0x008d86                  _altitudeCntrl
                  0x008df8                  _setTargetAltitude
                  0x009114                  _init_navigation
                  0x009164                  _dcm_callback_gps_location_updated
                  0x009176                  _set_goal
                  0x0091e0                  _update_goal_alt
                  0x0091ec                  _process_flightplan
                  0x00920e                  _compute_bearing_to_goal
                  0x009390                  _wind_gain_adjustment
                  0x009398                  _determine_navigation_deflection
                  0x0094ce                  _get_barometer_pres_rtf
                  0x0094d8                  _get_barometer_temp_rtf
                  0x0094e0                  _get_barometer_aslalt_est
                  0x0094ea                  _barometerCalibrate
                  0x0095b4                  _udb_barometer_callback
                  0x009648                  _estBarometerAltitude
                  0x0096c4                  _calcBarASLAlt
                  0x0096ec                  _calcSHABarASLAlt
                  0x009772                  _calcSMABarASLAlt
                  0x0097cc                  _calcNScBarASLAlt
                  0x009818                  _initFlags
                  0x00982a                  _estBarAltOffset
                  0x009858                  _init_states
                  0x009872                  _udb_callback_radio_did_turn_off
                  0x00987a                  _udb_heartbeat_40hz_callback
                  0x0099b4                  build/default/production/_ext/1472/states.o:_startS
                  0x0099bc                  build/default/production/_ext/1472/states.o:_calibrateS
                  0x0099fa                  build/default/production/_ext/1472/states.o:_acquiringS
                  0x009a6a                  build/default/production/_ext/1472/states.o:_manualS
                  0x009aae                  build/default/production/_ext/1472/states.o:_stabilizedS
                  0x009aee                  build/default/production/_ext/1472/states.o:_waypointS
                  0x009b34                  build/default/production/_ext/1472/states.o:_returnS
                  0x009b76                  _dead_reckon
                  0x009e66                  _estimateWind
                  0x00a0e8                  _udb_init_GPS
                  0x00a148                  _udb_gps_set_rate
                  0x00a172                  _udb_gps_check_rate
                  0x00a1a4                  _udb_gps_start_sending_data
                  0x00a1ac                  __U1TXInterrupt
                  0x00a1e6                  __U1RXInterrupt
                  0x00a222                  _udb_init_USART
                  0x00a284                  _udb_serial_set_rate
                  0x00a2ae                  _udb_serial_check_rate
                  0x00a2e0                  _udb_serial_start_sending_data
                  0x00a2e8                  __U2TXInterrupt
                  0x00a322                  __U2RXInterrupt
                  0x00a35e                  _rxMagnetometer
                  0x00a448                  _I2C_doneReadMagData
                  0x00a5b8                  _udb_eeprom_init
                  0x00a5c2                  _bstart
                  0x00a5d6                  _bstop
                  0x00a5ea                  _bit_out
                  0x00a614                  _bit_in
                  0x00a648                  _byte_out
                  0x00a672                  _byte_in
                  0x00a69c                  _ACK_Poll
                  0x00a6b6                  _eeprom_ByteWrite
                  0x00a6dc                  _eeprom_PageWrite
                  0x00a71c                  _eeprom_ByteRead
                  0x00a74e                  _eeprom_SequentialRead
                  0x00a7ac                  _init_pitchCntrl
                  0x00a7ca                  _pitchCntrl
                  0x00a9a0                  _servoMix
                  0x00aaf0                  _cameraServoMix
                  0x00ab94                  _udb_servo_record_trims
                  0x00abbc                  _udb_init_capture
                  0x00ac1a                  _radioIn_failsafe_check
                  0x00ac4c                  _radioIn_failsafe_reset
                  0x00ac56                  _get_sonar_value
                  0x00ac5e                  _get_sonar_count
                  0x00ac66                  _udb_init_sonar
                  0x00ac9e                  __IC8Interrupt
                  0x00ace0                  __IC1Interrupt
                  0x00ad74                  _register_event
                  0x00ad82                  _register_event_p
                  0x00adce                  _trigger_event
                  0x00ae1c                  _init_events
                  0x00ae7c                  __C2Interrupt
                  0x00aee6                  __C1Interrupt
                  0x00af50                  _udb_init_ADC
                  0x00b01e                  __DMA0Interrupt
                  0x00b122                  _gps_nav_valid
                  0x00b132                  _gps_startup_sequence
                  0x00b178                  build/default/production/_ext/1077471063/gpsParseSTD.o:_msg_B3
                  0x00b18c                  build/default/production/_ext/1077471063/gpsParseSTD.o:_msg_A0
                  0x00b1aa                  build/default/production/_ext/1077471063/gpsParseSTD.o:_msg_A2
                  0x00b1ba                  build/default/production/_ext/1077471063/gpsParseSTD.o:_msg_PL1
                  0x00b1d0                  build/default/production/_ext/1077471063/gpsParseSTD.o:_msg_PL2
                  0x00b20a                  build/default/production/_ext/1077471063/gpsParseSTD.o:_msg_MSG41
                  0x00b252                  build/default/production/_ext/1077471063/gpsParseSTD.o:_msg_MSGU
                  0x00b27a                  build/default/production/_ext/1077471063/gpsParseSTD.o:_msg_B0
                  0x00b2aa                  _gps_commit_data
                  0x00b2e8                  _init_gps_std
                  0x00b2ee                  _dcm_init
                  0x00b2fe                  _dcm_run_init_step
                  0x00b32c                  _runI2CQueuedSensors
                  0x00b34c                  _udb_heartbeat_callback
                  0x00b374                  _dcm_calibrate
                  0x00b388                  _dcm_set_origin_location
                  0x00b3c8                  _dcm_absolute_to_relative
                  0x00b42a                  _dcm_rel2abs
                  0x00b4b0                  _initMPUSPI_master16
                  0x00b4f4                  _writeMPUSPIreg16
                  0x00b52c                  build/default/production/_ext/1077454706/mpu_spi.o:_no_call_back
                  0x00b532                  _readMPUSPI_burst16n
                  0x00b56a                  __SPI2Interrupt
                  0x00b616                  _readMPUSPIreg16
                  0x00b652                  _init_yawCntrl
                  0x00b66c                  _yawCntrl
                  0x00b686                  _normalYawCntrl
                  0x00b786                  _hoverYawCntrl
                  0x00b7e4                  _init_behavior
                  0x00b7f6                  _setBehavior
                  0x00b81c                  _canStabilizeInverted
                  0x00b852                  _canStabilizeHover
                  0x00b85a                  _updateBehavior
                  0x00b91c                  _updateTriggerAction
                  0x00b974                  _udb_cpu_load
                  0x00b986                  _init_heartbeat
                  0x00b9e0                  _cpu_load_calc
                  0x00ba1c                  _udb_init_clock
                  0x00ba2a                  __T1Interrupt
                  0x00ba54                  __T5Interrupt
                  0x00ba72                  __T6Interrupt
                  0x00baa2                  _udb_background_trigger_pulse
                  0x00bab0                  __T7Interrupt
                  0x00bae0                  _udb_background_trigger
                  0x00baee                  _udb_init_pwm
                  0x00bb36                  _udb_set_action_state
                  0x00bb52                  _start_pwm_outputs
                  0x00bb68                  __T4Interrupt
                  0x00bc62                  _init_rollCntrl
                  0x00bc7c                  _rollCntrl
                  0x00bc96                  _normalRollCntrl
                  0x00bd30                  _hoverRollCntrl
                  0x00bd80                  _MPU6000_init16
                  0x00be02                  _process_MPU_data
                  0x00be28                  _MPU6000_read
                  0x00be40                  __INT3Interrupt
                  0x00be68                  _MPU6000_print
                  0x00be98                  _init_servoPrepare
                  0x00befa                  _dcm_heartbeat_callback
                  0x00bf62                  _manualPassthrough
                  0x00bf7c                  _restart
                  0x00bf96                  __OscillatorFail
                  0x00bfc2                  __AddressError
                  0x00bfe8                  __StackError
                  0x00c00e                  __MathError
                  0x00c034                  __DMACError
                  0x00c05a                  _get_air_density
                  0x00c082                  _calc_indicated_airspeed
                  0x00c0ae                  _calc_true_airspeed_from_indicated
                  0x00c0dc                  _calc_true_airspeed
                  0x00c118                  _flight_mode_switch_manual
                  0x00c126                  _flight_mode_switch_stabilize
                  0x00c134                  _flight_mode_switch_waypoints
                  0x00c142                  _flight_mode_switch_2pos_poll
                  0x00c148                  _flight_mode_switch_check_set
                  0x00c1d4                  _heartbeat_chk
                  0x00c200                  _heartbeat_cnt
                  0x00c208                  _heartbeat
                  0x00c24c                  build/default/production/_ext/1077454706/heartbeat.o:_pulse
                  0x00c28c                  _get_sonar_rawaglaltitude
                  0x00c294                  _get_sonar_aglaltitude
                  0x00c29c                  _get_cos_sonarproll
                  0x00c2a6                  _calSonarAGLAltitude
                  0x00c338                  _udb_init
                  0x00c37e                  _udb_run
                  0x00c386                  _udb_a2d_record_offsets
                  0x00c3a8                  _udb_servo_pulsesat
                  0x00c3d6                  _osd_spi_init
                  0x00c3e8                  _spi_write_raw_byte
                  0x00c428                  _osd_spi_write_byte
                  0x00c446                  _osd_spi_write
                  0x00c46a                  _cam_pitchServoLimit
                  0x00c494                  _cam_yawServoLimit
                  0x00c4be                  _set_camera_view
                  0x00c4d6                  _compute_camera_view
                  0x00c4f4                  _cameraCntrl
                  0x00c4fa                  _magnetometer_callback_newdata
                  0x00c502                  _dcm_enable_yaw_drift_correction
                  0x00c524                  _estYawDrift
                  0x00c57e                  _get_reset_flags
                  0x00c59c                  _configureDigitalIO
                  0x00c5a8                  _init_leds
                  0x00c5be                  _mcu_init
                  0x00c602                  _init_analogs
                  0x00c61a                  _calculate_analog_sensor_values
                  0x00c684                  _get_geo_heading_angle
                  0x00c6c6                  _SP_start
                  0x00c6ca                  _SP_limit
                  0x00c6ce                  _SP_current
                  0x00c6d2                  _getErrLoc
                  0x00c6e8                  _setjmp
                  0x00c6fe                  _gentrap
                  0x00c706                  _main
                  0x00c736                  _init_airspeedCntrl
                  0x00c760                  _init_config
                  0x00c782                  _save_config
                  0x00c788                  ___delay32
                  0x00c7a4                  _init_uart
                  0x00c7aa                  _init_altitudeCntrlVariable
                  0xf80004                  __FGS.sec

External Symbols in Program Memory (by name):

                  0x00a69c                  _ACK_Poll
                  0x000d40                  _CloseSPI2
                  0x000d48                  _ConfigIntSPI2
                  0x00086e                  _FindFirstBitChangeFromLeft
                  0x000872                  _FindFirstBitFromLeft
                  0x007b82                  _I2C2_CheckAvailable
                  0x007fc8                  _I2C2_Failed
                  0x007bb4                  _I2C2_Normal
                  0x007d62                  _I2C2_Read
                  0x007caa                  _I2C2_Write
                  0x007e1a                  _I2C2_checkACK
                  0x007fb0                  _I2C2_doneRead
                  0x007f0e                  _I2C2_doneWrite
                  0x007faa                  _I2C2_idle
                  0x007a68                  _I2C2_init
                  0x007f36                  _I2C2_readCommand
                  0x007f26                  _I2C2_readStart
                  0x007f48                  _I2C2_recen
                  0x007f70                  _I2C2_recstore
                  0x007f64                  _I2C2_rerecen
                  0x007b0a                  _I2C2_reset
                  0x007bce                  _I2C2_serve_queue
                  0x007e50                  _I2C2_startWrite
                  0x007f9e                  _I2C2_stopRead
                  0x007b32                  _I2C2_trigger_service
                  0x007e60                  _I2C2_writeCommand
                  0x007e74                  _I2C2_writeCommandData
                  0x007ec2                  _I2C2_writeData
                  0x007f02                  _I2C2_writeStop
                  0x00a448                  _I2C_doneReadMagData
                  0x00bd80                  _MPU6000_init16
                  0x00be68                  _MPU6000_print
                  0x00be28                  _MPU6000_read
                  0x000876                  _MatrixAdd
                  0x0008b6                  _MatrixMultiply
                  0x000930                  _MatrixScale
                  0x00096c                  _MatrixSubtract
                  0x0009ba                  _MatrixTranspose
                  0x000d6a                  _OpenSPI2
                  0x0080f0                  _ReadBarCalib_callback
                  0x008438                  _ReadBarPres_callback
                  0x0083f8                  _ReadBarTemp_callback
                  0x00c6ce                  _SP_current
                  0x00c6ca                  _SP_limit
                  0x00c6c6                  _SP_start
                  0x000a02                  _VectorAdd
                  0x000a40                  _VectorConvolve
                  0x000b38                  _VectorCopy
                  0x000b48                  _VectorCorrelate
                  0x000b78                  _VectorDotProduct
                  0x000bb2                  _VectorMax
                  0x000bcc                  _VectorMin
                  0x000be6                  _VectorMultiply
                  0x000c22                  _VectorNegate
                  0x000c62                  _VectorPower
                  0x000c9a                  _VectorScale
                  0x000cd6                  _VectorSubtract
                  0x000d22                  _VectorZeroPad
                  0x00bfc2                  __AddressError
                  0x0027a8                  __Atexit
                  0x00aee6                  __C1Interrupt
                  0x00ae7c                  __C2Interrupt
                  0x00264c                  __Closreg
                  0x00b01e                  __DMA0Interrupt
                  0x00c034                  __DMACError
                  0x002700                  __DNKfflush
                  0x00034c                  __DefaultInterrupt
                  0x0027c4                  __Dnorm
                  0xf80004                  __FGS.sec
                  0x001d00                  __Fwprep
                  0x002a6e                  __Genld
                  0x002cd4                  __Getmem
                  0x00ace0                  __IC1Interrupt
                  0x00ac9e                  __IC8Interrupt
                  0x00be40                  __INT3Interrupt
                  0x00285e                  __LDscale
                  0x0021ee                  __LDunscale
                  0x001d8e                  __Ldtob
                  0x002242                  __Litob
                  0x007b58                  __MI2C2Interrupt
                  0x00c00e                  __MathError
                  0x00bf96                  __OscillatorFail
                  0x0017c8                  __Printf
                  0x00193a                  __Putfld
                  0x0024ce                  __Puttxt
                  0x00b56a                  __SPI2Interrupt
                  0x00bfe8                  __StackError
                  0x00ba2a                  __T1Interrupt
                  0x00bb68                  __T4Interrupt
                  0x00ba54                  __T5Interrupt
                  0x00ba72                  __T6Interrupt
                  0x00bab0                  __T7Interrupt
                  0x00a1e6                  __U1RXInterrupt
                  0x00a1ac                  __U1TXInterrupt
                  0x00a322                  __U2RXInterrupt
                  0x00a2e8                  __U2TXInterrupt
                  0x001c34                  __Vacopy
                  0x0004c6                  ___Printf_cdnopuxX
                  0x000638                  ___Putfld_cdnopuxX
                  0x003056                  ___adddf3
                  0x000d74                  ___addsf3
                  0x00c788                  ___delay32
                  0x002d82                  ___divdf3
                  0x001616                  ___divdi3
                  0x000e2e                  ___divsf3
                  0x000eb2                  ___divsi3
                  0x002d6e                  ___eqdf2
                  0x000f94                  ___eqsf2
                  0x002ec0                  ___extendsfdf2
                  0x002efe                  ___fixdfsi
                  0x000f9c                  ___fixsfsi
                  0x000fde                  ___fixunssfsi
                  0x003230                  ___floatdidf
                  0x002f56                  ___floatsidf
                  0x001014                  ___floatsisf
                  0x001030                  ___floatunsisf
                  0x002d78                  ___gedf2
                  0x000f98                  ___gesf2
                  0x002d78                  ___gtdf2
                  0x000f98                  ___gtsf2
                  0x002d6e                  ___ledf2
                  0x000f94                  ___lesf2
                  0x002d6e                  ___ltdf2
                  0x000f94                  ___ltsf2
                  0x00167c                  ___moddi3
                  0x001208                  ___modsi3
                  0x002f5c                  ___muldf3
                  0x00304a                  ___mulp32eds3
                  0x00304a                  ___mulp32peds3
                  0x001226                  ___mulsf3
                  0x00304a                  ___mulsi3
                  0x003046                  ___subdf3
                  0x000d72                  ___subsf3
                  0x001600                  ___udivdi3
                  0x00153c                  ___udivmoddi3
                  0x0014be                  ___udivsi3
                  0x00160e                  ___umoddi3
                  0x0014de                  ___umodsi3
                  0x0031a2                  __dPropagateNaN
                  0x000232                  __data_init
                  0x000232                  __data_init_standard
                  0x003150                  __dcompare
                  0x002e36                  __dpack
                  0x002eb0                  __dreturnNaN
                  0x0031be                  __dtype
                  0x0031e2                  __dunpack
                  0x002e8e                  __dunpack2
                  0x002eb6                  __dunpack2exit
                  0x0010f6                  __fPropagateNaN
                  0x001108                  __fbopExit
                  0x001110                  __fbopReturnNaN
                  0x0016f2                  __fchop
                  0x001740                  __fcompare
                  0x001070                  __fpack
                  0x0016d8                  __frexpf
                  0x0010bc                  __funpack
                  0x0010e6                  __funpack2
                  0x0004b6                  __printf_cdnopuxX
                  0x000222                  __psv_init
                  0x000200                  __resetPRI
                  0x0041dc                  _aileronbgain
                  0x008d86                  _altitudeCntrl
                  0x00666c                  _arcsine
                  0x0094ea                  _barometerCalibrate
                  0x003fe0                  _bin_mode
                  0x00a614                  _bit_in
                  0x00a5ea                  _bit_out
                  0x00a5c2                  _bstart
                  0x00a5d6                  _bstop
                  0x00a672                  _byte_in
                  0x00a648                  _byte_out
                  0x00c2a6                  _calSonarAGLAltitude
                  0x0096c4                  _calcBarASLAlt
                  0x0097cc                  _calcNScBarASLAlt
                  0x0096ec                  _calcSHABarASLAlt
                  0x009772                  _calcSMABarASLAlt
                  0x00c082                  _calc_indicated_airspeed
                  0x00c0dc                  _calc_true_airspeed
                  0x00c0ae                  _calc_true_airspeed_from_indicated
                  0x00c61a                  _calculate_analog_sensor_values
                  0x008886                  _calculate_time_of_week
                  0x008788                  _calculate_week_num
                  0x00c46a                  _cam_pitchServoLimit
                  0x00c494                  _cam_yawServoLimit
                  0x00c4f4                  _cameraCntrl
                  0x00aaf0                  _cameraServoMix
                  0x00b852                  _canStabilizeHover
                  0x00b81c                  _canStabilizeInverted
                  0x00920e                  _compute_bearing_to_goal
                  0x00c4d6                  _compute_camera_view
                  0x00c59c                  _configureDigitalIO
                  0x00670c                  _cosine
                  0x00b9e0                  _cpu_load_calc
                  0x0041d0                  _days_in_month
                  0x00b3c8                  _dcm_absolute_to_relative
                  0x00b374                  _dcm_calibrate
                  0x009164                  _dcm_callback_gps_location_updated
                  0x00c502                  _dcm_enable_yaw_drift_correction
                  0x00befa                  _dcm_heartbeat_callback
                  0x00b2ee                  _dcm_init
                  0x0051ea                  _dcm_init_rmat
                  0x00b42a                  _dcm_rel2abs
                  0x005e5a                  _dcm_run_imu_step
                  0x00b2fe                  _dcm_run_init_step
                  0x00b388                  _dcm_set_origin_location
                  0x009b76                  _dead_reckon
                  0x009398                  _determine_navigation_deflection
                  0x002ce8                  _div
                  0x00a71c                  _eeprom_ByteRead
                  0x00a6b6                  _eeprom_ByteWrite
                  0x00a6dc                  _eeprom_PageWrite
                  0x00a74e                  _eeprom_SequentialRead
                  0x0041de                  _elevatorbgain
                  0x00982a                  _estBarAltOffset
                  0x009648                  _estBarometerAltitude
                  0x00c524                  _estYawDrift
                  0x009e66                  _estimateWind
                  0x000ed0                  _expf
                  0x002660                  _fclose
                  0x0044f4                  _find_end_of_current_if_block
                  0x006ccc                  _find_first_bit_int16
                  0x006cf6                  _find_first_bit_int32
                  0x00449a                  _find_start_of_subroutine
                  0x00c142                  _flight_mode_switch_2pos_poll
                  0x00c148                  _flight_mode_switch_check_set
                  0x00c118                  _flight_mode_switch_manual
                  0x00c126                  _flight_mode_switch_stabilize
                  0x00c134                  _flight_mode_switch_waypoints
                  0x005116                  _flightplan_live_begin
                  0x0051b8                  _flightplan_live_commit
                  0x00512a                  _flightplan_live_received_byte
                  0x002952                  _free
                  0x001c38                  _fwrite
                  0x00c6fe                  _gentrap
                  0x00c6d2                  _getErrLoc
                  0x00c05a                  _get_air_density
                  0x00462c                  _get_angle_to_point
                  0x0094e0                  _get_barometer_aslalt_est
                  0x0094ce                  _get_barometer_pres_rtf
                  0x0094d8                  _get_barometer_temp_rtf
                  0x00c29c                  _get_cos_sonarproll
                  0x0045f4                  _get_current_angle
                  0x0045ca                  _get_current_stack_parameter_frame_index
                  0x0042c4                  _get_fixed_origin
                  0x00c684                  _get_geo_heading_angle
                  0x0084b4                  _get_gps_date
                  0x0084be                  _get_gps_time
                  0x00c57e                  _get_reset_flags
                  0x00c294                  _get_sonar_aglaltitude
                  0x00ac5e                  _get_sonar_count
                  0x00c28c                  _get_sonar_rawaglaltitude
                  0x00ac56                  _get_sonar_value
                  0x00b2aa                  _gps_commit_data
                  0x0084c8                  _gps_init
                  0x008542                  _gps_nav_capable_check_set
                  0x00b122                  _gps_nav_valid
                  0x008574                  _gps_parse_common
                  0x00b132                  _gps_startup_sequence
                  0x0084d2                  _gpsoutbin
                  0x0084f0                  _gpsoutline
                  0x00c208                  _heartbeat
                  0x00c1d4                  _heartbeat_chk
                  0x00c200                  _heartbeat_cnt
                  0x007476                  _hex_char_val
                  0x00bd30                  _hoverRollCntrl
                  0x00b786                  _hoverYawCntrl
                  0x009818                  _initFlags
                  0x00b4b0                  _initMPUSPI_master16
                  0x00c736                  _init_airspeedCntrl
                  0x008d50                  _init_altitudeCntrl
                  0x00c7aa                  _init_altitudeCntrlVariable
                  0x00c602                  _init_analogs
                  0x00b7e4                  _init_behavior
                  0x00c760                  _init_config
                  0x00ae1c                  _init_events
                  0x0041e8                  _init_flightplan
                  0x00b2e8                  _init_gps_std
                  0x00b986                  _init_heartbeat
                  0x00c5a8                  _init_leds
                  0x009114                  _init_navigation
                  0x00a7ac                  _init_pitchCntrl
                  0x00bc62                  _init_rollCntrl
                  0x0073f8                  _init_serial
                  0x00be98                  _init_servoPrepare
                  0x009858                  _init_states
                  0x00c7a4                  _init_uart
                  0x00b652                  _init_yawCntrl
                  0x00329e                  _instructions
                  0x001116                  _ldexpf
                  0x00277e                  _ldiv
                  0x00115a                  _logf
                  0x00432a                  _logo_goal_has_moved
                  0x00468a                  _logo_value_for_identifier
                  0x006c3e                  _long_scale
                  0x00c4fa                  _magnetometer_callback_newdata
                  0x00c706                  _main
                  0x002a1a                  _malloc
                  0x00bf62                  _manualPassthrough
                  0x00c5be                  _mcu_init
                  0x001ce0                  _memchr
                  0x001cf2                  _memcpy
                  0x003ffc                  _mode
                  0x004006                  _mode_length
                  0x004008                  _msg41parse
                  0x00bc96                  _normalRollCntrl
                  0x00b686                  _normalYawCntrl
                  0x006d62                  _osd_init
                  0x006d4c                  _osd_reset
                  0x00651a                  _osd_run_step
                  0x006df2                  _osd_spi_erase_chars
                  0x00c3d6                  _osd_spi_init
                  0x00c446                  _osd_spi_write
                  0x00c428                  _osd_spi_write_byte
                  0x006d6e                  _osd_spi_write_location
                  0x006e18                  _osd_spi_write_number
                  0x006d90                  _osd_spi_write_string
                  0x006db6                  _osd_spi_write_vertical_string_at_location
                  0x00a7ca                  _pitchCntrl
                  0x0041c4                  _pitch_offset_centred_pwm
                  0x0041be                  _pitch_servo_high_ratio
                  0x0041c8                  _pitch_servo_pwm_max
                  0x0041ca                  _pitch_servo_pwm_min
                  0x00128e                  _powf
                  0x00be02                  _process_MPU_data
                  0x0091ec                  _process_flightplan
                  0x0050ae                  _process_instructions
                  0x004812                  _process_one_instruction
                  0x00ac1a                  _radioIn_failsafe_check
                  0x00ac4c                  _radioIn_failsafe_reset
                  0x00b532                  _readMPUSPI_burst16n
                  0x00b616                  _readMPUSPIreg16
                  0x00686c                  _rect_to_polar
                  0x006920                  _rect_to_polar16
                  0x00ad74                  _register_event
                  0x00ad82                  _register_event_p
                  0x00bf7c                  _restart
                  0x0075b0                  _restart_telemetry
                  0x00bc7c                  _rollCntrl
                  0x006802                  _rotate
                  0x006788                  _rotate_2D_long_vector_by_vector
                  0x0067e6                  _rotate_2D_vector_by_angle
                  0x00671a                  _rotate_2D_vector_by_vector
                  0x003af6                  _rtlInstructions
                  0x0041e0                  _rudderbgain
                  0x00b32c                  _runI2CQueuedSensors
                  0x0043c4                  _run_flightplan
                  0x007fe4                  _rxBarometer
                  0x00a35e                  _rxMagnetometer
                  0x00c782                  _save_config
                  0x007546                  _serial_output
                  0x0075ba                  _serial_output_8hz
                  0x007b3e                  _serviceI2C2
                  0x00a9a0                  _servoMix
                  0x00b7f6                  _setBehavior
                  0x008df8                  _setTargetAltitude
                  0x00c4be                  _set_camera_view
                  0x009176                  _set_goal
                  0x00c6e8                  _setjmp
                  0x006610                  _sine
                  0x0040c0                  _sintab
                  0x007502                  _sio_fp_checksum
                  0x0074ac                  _sio_fp_data
                  0x007414                  _sio_newMsg
                  0x007448                  _sio_voltage_high
                  0x00745c                  _sio_voltage_low
                  0x00c3e8                  _spi_write_raw_byte
                  0x0069fa                  _sqrt_int
                  0x006a64                  _sqrt_long
                  0x001454                  _sqrtf
                  0x00bb52                  _start_pwm_outputs
                  0x001c22                  _strchr
                  0x001776                  _strlen
                  0x0041c2                  _tan_pitch_in_stabilized_mode
                  0x00adce                  _trigger_event
                  0x00c386                  _udb_a2d_record_offsets
                  0x00bae0                  _udb_background_trigger
                  0x00baa2                  _udb_background_trigger_pulse
                  0x0095b4                  _udb_barometer_callback
                  0x009872                  _udb_callback_radio_did_turn_off
                  0x0053a2                  _udb_callback_read_sensors
                  0x00b974                  _udb_cpu_load
                  0x00a5b8                  _udb_eeprom_init
                  0x008508                  _udb_gps_callback_get_byte_to_send
                  0x008534                  _udb_gps_callback_received_byte
                  0x00a172                  _udb_gps_check_rate
                  0x00a148                  _udb_gps_set_rate
                  0x00a1a4                  _udb_gps_start_sending_data
                  0x00987a                  _udb_heartbeat_40hz_callback
                  0x00b34c                  _udb_heartbeat_callback
                  0x00c338                  _udb_init
                  0x00af50                  _udb_init_ADC
                  0x00a0e8                  _udb_init_GPS
                  0x00a222                  _udb_init_USART
                  0x00abbc                  _udb_init_capture
                  0x00ba1c                  _udb_init_clock
                  0x00baee                  _udb_init_pwm
                  0x00ac66                  _udb_init_sonar
                  0x005c80                  _udb_magnetometer_callback
                  0x00c37e                  _udb_run
                  0x007586                  _udb_serial_callback_get_byte_to_send
                  0x007406                  _udb_serial_callback_received_byte
                  0x00a2ae                  _udb_serial_check_rate
                  0x00a284                  _udb_serial_set_rate
                  0x00a2e0                  _udb_serial_start_sending_data
                  0x00c3a8                  _udb_servo_pulsesat
                  0x00ab94                  _udb_servo_record_trims
                  0x00bb36                  _udb_set_action_state
                  0x00b85a                  _updateBehavior
                  0x00b91c                  _updateTriggerAction
                  0x0091e0                  _update_goal_alt
                  0x004350                  _update_goal_from
                  0x0042bc                  _use_fixed_origin
                  0x006b06                  _vector2_mag
                  0x006b52                  _vector2_normalize
                  0x006b26                  _vector3_mag
                  0x006bb4                  _vector3_normalize
                  0x0017a8                  _vsnprintf
                  0x009390                  _wind_gain_adjustment
                  0x00b4f4                  _writeMPUSPIreg16
                  0x00b66c                  _yawCntrl
                  0x0051d8                  _yaw_drift_reset
                  0x0041c6                  _yaw_offset_centred_pwm
                  0x0041c0                  _yaw_servo_high_ratio
                  0x0041cc                  _yaw_servo_pwm_max
                  0x0041ce                  _yaw_servo_pwm_min
                  0x00c24c                  build/default/production/_ext/1077454706/heartbeat.o:_pulse
                  0x00b52c                  build/default/production/_ext/1077454706/mpu_spi.o:_no_call_back
                  0x008580                  build/default/production/_ext/1077471063/gpsParseCommon.o:_udb_background_callback_triggered
                  0x00b18c                  build/default/production/_ext/1077471063/gpsParseSTD.o:_msg_A0
                  0x00b1aa                  build/default/production/_ext/1077471063/gpsParseSTD.o:_msg_A2
                  0x00b27a                  build/default/production/_ext/1077471063/gpsParseSTD.o:_msg_B0
                  0x00b178                  build/default/production/_ext/1077471063/gpsParseSTD.o:_msg_B3
                  0x00b20a                  build/default/production/_ext/1077471063/gpsParseSTD.o:_msg_MSG41
                  0x00b252                  build/default/production/_ext/1077471063/gpsParseSTD.o:_msg_MSGU
                  0x00b1ba                  build/default/production/_ext/1077471063/gpsParseSTD.o:_msg_PL1
                  0x00b1d0                  build/default/production/_ext/1077471063/gpsParseSTD.o:_msg_PL2
                  0x0099fa                  build/default/production/_ext/1472/states.o:_acquiringS
                  0x0099bc                  build/default/production/_ext/1472/states.o:_calibrateS
                  0x009a6a                  build/default/production/_ext/1472/states.o:_manualS
                  0x009b34                  build/default/production/_ext/1472/states.o:_returnS
                  0x009aae                  build/default/production/_ext/1472/states.o:_stabilizedS
                  0x0099b4                  build/default/production/_ext/1472/states.o:_startS
                  0x009aee                  build/default/production/_ext/1472/states.o:_waypointS
                  0x0026e8                  fclose.XXelo:_closeall
                  0x00049a                  printf_cdnopuxX.XXeo:_prout
                  0x001786                  vsnprint.XXeo:_prout

Memory Configuration

Name             Origin             Length             Attributes
data             0x000800           0x007800           a !xr
reset            0x000000           0x000004  
ivt              0x000004           0x0000fc  
_reserved        0x000100           0x000004  
aivt             0x000104           0x0000fc  
program          0x000200           0x02a9fe           xr
FBS              0xf80000           0x000002  
FSS              0xf80002           0x000002  
FGS              0xf80004           0x000002  
FOSCSEL          0xf80006           0x000002  
FOSC             0xf80008           0x000002  
FWDT             0xf8000a           0x000002  
FPOR             0xf8000c           0x000002  
FICD             0xf8000e           0x000002  
FUID0            0xf80010           0x000002  
FUID1            0xf80012           0x000002  
FUID2            0xf80014           0x000002  
FUID3            0xf80016           0x000002  
*default*        0x000000           0xffffffff  

Linker script and memory map

LOAD build/default/production/_ext/1077471063/estWind.o
LOAD build/default/production/_ext/1077471063/estYawDrift.o
LOAD build/default/production/_ext/1077471063/gpsParseCommon.o
LOAD build/default/production/_ext/1077471063/gpsParseSTD.o
LOAD build/default/production/_ext/1077471063/gpsParseUBX.o
LOAD build/default/production/_ext/1077471063/mathlibNAV.o
LOAD build/default/production/_ext/1077471063/rmat.o
LOAD build/default/production/_ext/1077471063/libDCM.o
LOAD build/default/production/_ext/1077471063/deadReckoning.o
LOAD build/default/production/_ext/1077471063/gpsParseMTEK.o
LOAD build/default/production/_ext/1077471063/gpsParseNMEA.o
LOAD build/default/production/_ext/1077471063/fbcl.o
LOAD build/default/production/_ext/1077454706/background.o
LOAD build/default/production/_ext/1077454706/libUDB.o
LOAD build/default/production/_ext/1077454706/analog2digital_udb4.o
LOAD build/default/production/_ext/1077454706/servoOut.o
LOAD build/default/production/_ext/1077454706/osd.o
LOAD build/default/production/_ext/1077454706/24LC256.o
LOAD build/default/production/_ext/1077454706/events.o
LOAD build/default/production/_ext/1077454706/analog2digital_udb5.o
LOAD build/default/production/_ext/1077454706/mpu6000.o
LOAD build/default/production/_ext/1077454706/traps_asm.o
LOAD build/default/production/_ext/1077454706/mcu.o
LOAD build/default/production/_ext/1077454706/eeprom_udb4.o
LOAD build/default/production/_ext/1077454706/barometer.o
LOAD build/default/production/_ext/1077454706/magnetometer.o
LOAD build/default/production/_ext/1077454706/radioIn.o
LOAD build/default/production/_ext/1077454706/serialIO.o
LOAD build/default/production/_ext/1077454706/I2C1.o
LOAD build/default/production/_ext/1077454706/I2C2.o
LOAD build/default/production/_ext/1077454706/read.o
LOAD build/default/production/_ext/1077454706/uart.o
LOAD build/default/production/_ext/1077454706/write.o
LOAD build/default/production/_ext/1077454706/analog2digital_auav3.o
LOAD build/default/production/_ext/1077454706/analogs.o
LOAD build/default/production/_ext/1077454706/traps.o
LOAD build/default/production/_ext/1077454706/osd_bit.o
LOAD build/default/production/_ext/1077454706/osd_spi.o
LOAD build/default/production/_ext/1077454706/mpu_spi.o
LOAD build/default/production/_ext/1077454706/heartbeat.o
LOAD build/default/production/_ext/1077454706/sonarIn.o
LOAD build/default/production/_ext/679848855/madd.o
LOAD build/default/production/_ext/679848855/mmul.o
LOAD build/default/production/_ext/679848855/mscl.o
LOAD build/default/production/_ext/679848855/msub.o
LOAD build/default/production/_ext/679848855/mtrp.o
LOAD build/default/production/_ext/679848855/vadd.o
LOAD build/default/production/_ext/679848855/vcon.o
LOAD build/default/production/_ext/679848855/vcopy.o
LOAD build/default/production/_ext/679848855/vcor.o
LOAD build/default/production/_ext/679848855/vdot.o
LOAD build/default/production/_ext/679848855/vmax.o
LOAD build/default/production/_ext/679848855/vmin.o
LOAD build/default/production/_ext/679848855/vmul.o
LOAD build/default/production/_ext/679848855/vneg.o
LOAD build/default/production/_ext/679848855/vpow.o
LOAD build/default/production/_ext/679848855/vscl.o
LOAD build/default/production/_ext/679848855/vsub.o
LOAD build/default/production/_ext/679848855/vzpad.o
LOAD build/default/production/_ext/1472/config_tests.o
LOAD build/default/production/_ext/1472/behavior.o
LOAD build/default/production/_ext/1472/cameraCntrl.o
LOAD build/default/production/_ext/1472/main.o
LOAD build/default/production/_ext/1472/navigate.o
LOAD build/default/production/_ext/1472/pitchCntrl.o
LOAD build/default/production/_ext/1472/rollCntrl.o
LOAD build/default/production/_ext/1472/servoMix.o
LOAD build/default/production/_ext/1472/states.o
LOAD build/default/production/_ext/1472/yawCntrl.o
LOAD build/default/production/_ext/1472/telemetry.o
LOAD build/default/production/_ext/1472/servoPrepare.o
LOAD build/default/production/_ext/1472/flightplan-waypoints.o
LOAD build/default/production/_ext/1472/flightplan-logo.o
LOAD build/default/production/_ext/1472/mp_osd.o
LOAD build/default/production/_ext/1472/altitudeCntrl.o
LOAD build/default/production/_ext/1472/MAVLink.o
LOAD build/default/production/_ext/1472/mode_switch.o
LOAD build/default/production/_ext/1472/data_services.o
LOAD build/default/production/_ext/1472/data_storage.o
LOAD build/default/production/_ext/1472/nv_memory_table.o
LOAD build/default/production/_ext/1472/parameter_table.o
LOAD build/default/production/_ext/1472/airspeedCntrl.o
LOAD build/default/production/_ext/1472/altitudeCntrlVariable.o
LOAD build/default/production/_ext/1472/euler_angles.o
LOAD build/default/production/_ext/1472/fly_by_datalink.o
LOAD build/default/production/_ext/1472/console.o
LOAD build/default/production/_ext/1472/config.o
LOAD build/default/production/_ext/1472/MAVFlexiFunctions.o
LOAD build/default/production/_ext/1472/MAVMission.o
LOAD build/default/production/_ext/1472/MAVParams.o
LOAD build/default/production/_ext/1472/MAVUDBExtra.o
LOAD build/default/production/_ext/1472/barometerCntrl.o
LOAD build/default/production/_ext/1472/sonarCntrl.o
LOAD build/default/production/_ext/1077471063/estAirspeed.o
                    0x0001                  __MPLAB_BUILD = 0x1
LOAD c:/program files (x86)/microchip/xc16/v1.10/bin/bin/../../lib/dsPIC33F\libp33FJ256GP710A-elf.a
                    0xf80000                  __FBS = 0xf80000
                    0xf80002                  __FSS = 0xf80002
                    0xf80004                  __FGS = 0xf80004
                    0xf80006                  __FOSCSEL = 0xf80006
                    0xf80008                  __FOSC = 0xf80008
                    0xf8000a                  __FWDT = 0xf8000a
                    0xf8000c                  __FPOR = 0xf8000c
                    0xf8000e                  __FICD = 0xf8000e
                    0xf80010                  __FUID0 = 0xf80010
                    0xf80012                  __FUID1 = 0xf80012
                    0xf80014                  __FUID2 = 0xf80014
                    0xf80016                  __FUID3 = 0xf80016
                    0x0004                  __IVT_BASE = 0x4
                    0x0104                  __AIVT_BASE = 0x104
                    0x0800                  __DATA_BASE = 0x800
                    0x7800                  __DATA_LENGTH = 0x7800
                    0x4800                  __YDATA_BASE = 0x4800
                    0x7800                  __DMA_BASE = 0x7800
                    0x7fff                  __DMA_END = 0x7fff
                    0x0200                  __CODE_BASE = 0x200
                    0x2aa00                  __CODE_LENGTH = 0x2aa00

.reset            0x000000          0x4
                  0x000000          0x2 SHORT 0x200 ABSOLUTE (__reset)
                  0x000001          0x2 SHORT 0x4
                  0x000002          0x2 SHORT 0x0 ((ABSOLUTE (__reset) >> 0x10) & 0x7f)
                  0x000003          0x2 SHORT 0x0

.text             0x000200       0x309e
 *(.init)
 .init            0x000200         0x32 c:/program files (x86)/microchip/xc16/v1.10/bin/bin/../../lib\liblega-pic30-elf.a(crt0_standard.o)
                  0x000200                  __resetPRI
                  0x000200                  __reset
                  0x000222                  __psv_init
 .init            0x000232         0x5e c:/program files (x86)/microchip/xc16/v1.10/bin/bin/../../lib\liblega-pic30-elf.a(data_init_standard.o)
                  0x000232                  __data_init_standard
                  0x000232                  __data_init
 *(.user_init)
 *(.handle)
 .handle          0x000290         0xbc jump_table
 *(.isr*)
 .isr             0x00034c          0x4 default_isr
                  0x00034c                  __DefaultInterrupt
 *(.libc)
 .libc            0x000350         0xac build/default/production/_ext/1077454706/read.o
                  0x000350                  _read
 .libc            0x0003fc         0x9e build/default/production/_ext/1077454706/write.o
                  0x0003fc                  _write
 .libc            0x00049a         0x2c c:/program files (x86)/microchip/xc16/v1.10/bin/bin/../../lib\liblega-c-elf.a(printf_cdnopuxX.XXeo)
                  0x00049a                  printf_cdnopuxX.XXeo:_prout
                  0x0004b6                  __printf_cdnopuxX
 .libc            0x0004c6        0x172 c:/program files (x86)/microchip/xc16/v1.10/bin/bin/../../lib\liblega-c-elf.a(xprintf_cdnopuxX.XXeo)
                  0x0004c6                  ___Printf_cdnopuxX
 .libc            0x000638        0x236 c:/program files (x86)/microchip/xc16/v1.10/bin/bin/../../lib\liblega-c-elf.a(xputfld_cdnopuxX.XXeo)
                  0x000638                  ___Putfld_cdnopuxX
 *(.libm)
 *(.libdsp)
 .libdsp          0x00086e          0x8 build/default/production/_ext/1077471063/fbcl.o
                  0x00086e                  _FindFirstBitChangeFromLeft
                  0x000872                  _FindFirstBitFromLeft
 .libdsp          0x000876         0x40 build/default/production/_ext/679848855/madd.o
                  0x000876                  _MatrixAdd
 .libdsp          0x0008b6         0x7a build/default/production/_ext/679848855/mmul.o
                  0x0008b6                  _MatrixMultiply
 .libdsp          0x000930         0x3c build/default/production/_ext/679848855/mscl.o
                  0x000930                  _MatrixScale
 .libdsp          0x00096c         0x4e build/default/production/_ext/679848855/msub.o
                  0x00096c                  _MatrixSubtract
 .libdsp          0x0009ba         0x48 build/default/production/_ext/679848855/mtrp.o
                  0x0009ba                  _MatrixTranspose
 .libdsp          0x000a02         0x3e build/default/production/_ext/679848855/vadd.o
                  0x000a02                  _VectorAdd
 .libdsp          0x000a40         0xf8 build/default/production/_ext/679848855/vcon.o
                  0x000a40                  _VectorConvolve
 .libdsp          0x000b38         0x10 build/default/production/_ext/679848855/vcopy.o
                  0x000b38                  _VectorCopy
 .libdsp          0x000b48         0x30 build/default/production/_ext/679848855/vcor.o
                  0x000b48                  _VectorCorrelate
 .libdsp          0x000b78         0x3a build/default/production/_ext/679848855/vdot.o
                  0x000b78                  _VectorDotProduct
 .libdsp          0x000bb2         0x1a build/default/production/_ext/679848855/vmax.o
                  0x000bb2                  _VectorMax
 .libdsp          0x000bcc         0x1a build/default/production/_ext/679848855/vmin.o
                  0x000bcc                  _VectorMin
 .libdsp          0x000be6         0x3c build/default/production/_ext/679848855/vmul.o
                  0x000be6                  _VectorMultiply
 .libdsp          0x000c22         0x40 build/default/production/_ext/679848855/vneg.o
                  0x000c22                  _VectorNegate
 .libdsp          0x000c62         0x38 build/default/production/_ext/679848855/vpow.o
                  0x000c62                  _VectorPower
 .libdsp          0x000c9a         0x3c build/default/production/_ext/679848855/vscl.o
                  0x000c9a                  _VectorScale
 .libdsp          0x000cd6         0x4c build/default/production/_ext/679848855/vsub.o
                  0x000cd6                  _VectorSubtract
 .libdsp          0x000d22         0x1e build/default/production/_ext/679848855/vzpad.o
                  0x000d22                  _VectorZeroPad
 *(.lib*)
 .libperi         0x000d40          0x8 c:/program files (x86)/microchip/xc16/v1.10/bin/bin/../../lib/dsPIC33F\libp33FJ256GP710A-elf.a(CloseSPI2.o)
                  0x000d40                  _CloseSPI2
 .libperi         0x000d48         0x22 c:/program files (x86)/microchip/xc16/v1.10/bin/bin/../../lib/dsPIC33F\libp33FJ256GP710A-elf.a(ConfigIntSPI2.o)
                  0x000d48                  _ConfigIntSPI2
 .libperi         0x000d6a          0x8 c:/program files (x86)/microchip/xc16/v1.10/bin/bin/../../lib/dsPIC33F\libp33FJ256GP710A-elf.a(OpenSPI2.o)
                  0x000d6a                  _OpenSPI2
 .libm.subsf3     0x000d72         0xbc c:/program files (x86)/microchip/xc16/v1.10/bin/bin/../../lib\libm-elf.a(addsf3.eo)
                  0x000d72                  ___subsf3
                  0x000d74                  ___addsf3
 .libm.divfs3     0x000e2e         0x84 c:/program files (x86)/microchip/xc16/v1.10/bin/bin/../../lib\libm-elf.a(divsf3.eo)
                  0x000e2e                  ___divsf3
 .libm.divsi3     0x000eb2         0x1e c:/program files (x86)/microchip/xc16/v1.10/bin/bin/../../lib\libm-elf.a(divsi3.eo)
                  0x000eb2                  ___divsi3
 .libm.expf       0x000ed0         0xc4 c:/program files (x86)/microchip/xc16/v1.10/bin/bin/../../lib\libm-elf.a(expf.eo)
                  0x000ed0                  _expf
 .libm.eqsf2      0x000f94          0x4 c:/program files (x86)/microchip/xc16/v1.10/bin/bin/../../lib\libm-elf.a(feqltle.eo)
                  0x000f94                  ___eqsf2
                  0x000f94                  ___ltsf2
                  0x000f94                  ___lesf2
 .libm.gtsf2      0x000f98          0x4 c:/program files (x86)/microchip/xc16/v1.10/bin/bin/../../lib\libm-elf.a(fgtge.eo)
                  0x000f98                  ___gesf2
                  0x000f98                  ___gtsf2
 .libm.fixsfsi    0x000f9c         0x42 c:/program files (x86)/microchip/xc16/v1.10/bin/bin/../../lib\libm-elf.a(fixsfsi.eo)
                  0x000f9c                  _(float, int, long long, short, float, short, int)
 .libm.fixunssfsi
                  0x000fde         0x36 c:/program files (x86)/microchip/xc16/v1.10/bin/bin/../../lib\libm-elf.a(fixunssfsi.eo)
                  0x000fde                  ___fixunssfsi
 .libm.floatsisf
                  0x001014         0x1c c:/program files (x86)/microchip/xc16/v1.10/bin/bin/../../lib\libm-elf.a(floatsisf.eo)
                  0x001014                  ___floatsisf
 .libm.floatunsisf
                  0x001030         0x40 c:/program files (x86)/microchip/xc16/v1.10/bin/bin/../../lib\libm-elf.a(floatunsisf.eo)
                  0x001030                  ___floatunsisf
 .libm.fpack      0x001070         0x4c c:/program files (x86)/microchip/xc16/v1.10/bin/bin/../../lib\libm-elf.a(fpack.eo)
                  0x001070                  __fpack
 .libm.funpack    0x0010bc         0x2a c:/program files (x86)/microchip/xc16/v1.10/bin/bin/../../lib\libm-elf.a(funpack.eo)
                  0x0010bc                  __funpack
 .libm.funpack2
                  0x0010e6         0x10 c:/program files (x86)/microchip/xc16/v1.10/bin/bin/../../lib\libm-elf.a(funpack2.eo)
                  0x0010e6                  __funpack2
 .libm.fPropagateNaN
                  0x0010f6         0x12 c:/program files (x86)/microchip/xc16/v1.10/bin/bin/../../lib\libm-elf.a(futil.eo)
                  0x0010f6                  __fPropagateNaN
 .libm.fbobExit
                  0x001108          0x8 c:/program files (x86)/microchip/xc16/v1.10/bin/bin/../../lib\libm-elf.a(futil.eo)
                  0x001108                  __fbopExit
 .libm.fbopReturnNaN
                  0x001110          0x6 c:/program files (x86)/microchip/xc16/v1.10/bin/bin/../../lib\libm-elf.a(futil.eo)
                  0x001110                  __fbopReturnNaN
 .libm.ldexpf     0x001116         0x44 c:/program files (x86)/microchip/xc16/v1.10/bin/bin/../../lib\libm-elf.a(ldexpf.eo)
                  0x001116                  _ldexpf
 .libm.logf       0x00115a         0xae c:/program files (x86)/microchip/xc16/v1.10/bin/bin/../../lib\libm-elf.a(logf.eo)
                  0x00115a                  _logf
 .libm.modsi3     0x001208         0x1e c:/program files (x86)/microchip/xc16/v1.10/bin/bin/../../lib\libm-elf.a(modsi3.eo)
                  0x001208                  ___modsi3
 .libm.mulsf3     0x001226         0x68 c:/program files (x86)/microchip/xc16/v1.10/bin/bin/../../lib\libm-elf.a(mulsf3.eo)
                  0x001226                  ___mulsf3
 .libm.powf       0x00128e        0x1c6 c:/program files (x86)/microchip/xc16/v1.10/bin/bin/../../lib\libm-elf.a(powf.eo)
                  0x00128e                  _powf
 .libm.sqrtf      0x001454         0x6a c:/program files (x86)/microchip/xc16/v1.10/bin/bin/../../lib\libm-elf.a(sqrtf.eo)
                  0x001454                  _sqrtf
 .libm.udivsi3    0x0014be         0x20 c:/program files (x86)/microchip/xc16/v1.10/bin/bin/../../lib\libm-elf.a(udivsi3.eo)
                  0x0014be                  ___udivsi3
 .libm.umodsi3    0x0014de          0x6 c:/program files (x86)/microchip/xc16/v1.10/bin/bin/../../lib\libm-elf.a(umodsi3.eo)
                  0x0014de                  ___umodsi3
 .libm.__PplusBdi.__PplusBdi
                  0x0014e4         0x28 c:/program files (x86)/microchip/xc16/v1.10/bin/bin/../../lib\libm-elf.a(divmoddi3.eo)
 .libm.__PminusBdi.__PminusBdi
                  0x00150c         0x30 c:/program files (x86)/microchip/xc16/v1.10/bin/bin/../../lib\libm-elf.a(divmoddi3.eo)
 .libm.__udivmoddi3.__udivmoddi3
                  0x00153c         0xc4 c:/program files (x86)/microchip/xc16/v1.10/bin/bin/../../lib\libm-elf.a(divmoddi3.eo)
                  0x00153c                  ___udivmoddi3
 .libm.__udivdi3.__udivdi3
                  0x001600          0xe c:/program files (x86)/microchip/xc16/v1.10/bin/bin/../../lib\libm-elf.a(divmoddi3.eo)
                  0x001600                  ___udivdi3
 .libm.__umoddi3.__umoddi3
                  0x00160e          0x8 c:/program files (x86)/microchip/xc16/v1.10/bin/bin/../../lib\libm-elf.a(divmoddi3.eo)
                  0x00160e                  ___umoddi3
 .libm.__divdi3.__divdi3
                  0x001616         0x66 c:/program files (x86)/microchip/xc16/v1.10/bin/bin/../../lib\libm-elf.a(divmoddi3.eo)
                  0x001616                  ___divdi3
 .libm.__moddi3.__moddi3
                  0x00167c         0x5c c:/program files (x86)/microchip/xc16/v1.10/bin/bin/../../lib\libm-elf.a(divmoddi3.eo)
                  0x00167c                  ___moddi3
 .libm.frexpf     0x0016d8         0x1a c:/program files (x86)/microchip/xc16/v1.10/bin/bin/../../lib\libm-elf.a(_frexpf.eo)
                  0x0016d8                  __frexpf
 .libm.fchop      0x0016f2         0x4e c:/program files (x86)/microchip/xc16/v1.10/bin/bin/../../lib\libm-elf.a(fchop.eo)
                  0x0016f2                  __fchop
 .libm.fcompare
                  0x001740         0x36 c:/program files (x86)/microchip/xc16/v1.10/bin/bin/../../lib\libm-elf.a(fcompare.eo)
                  0x001740                  __fcompare
 .libc.strlen.strlen
                  0x001776         0x10 c:/program files (x86)/microchip/xc16/v1.10/bin/bin/../../lib\liblega-c-elf.a(strlen.XXeo)
                  0x001776                  _strlen
 .libc.prout.prout
                  0x001786         0x22 c:/program files (x86)/microchip/xc16/v1.10/bin/bin/../../lib\liblega-c-elf.a(vsnprint.XXeo)
                  0x001786                  vsnprint.XXeo:_prout
 .libc.vsnprintf.vsnprintf
                  0x0017a8         0x20 c:/program files (x86)/microchip/xc16/v1.10/bin/bin/../../lib\liblega-c-elf.a(vsnprint.XXeo)
                  0x0017a8                  _vsnprintf
 .libc._Printf._Printf
                  0x0017c8        0x172 c:/program files (x86)/microchip/xc16/v1.10/bin/bin/../../lib\liblega-c-elf.a(xprintf.XXeo)
                  0x0017c8                  __Printf
 .libc._Putfld._Putfld
                  0x00193a        0x2e8 c:/program files (x86)/microchip/xc16/v1.10/bin/bin/../../lib\liblega-c-elf.a(xputfld.XXeo)
                  0x00193a                  __Putfld
 .libc.strchr.strchr
                  0x001c22         0x12 c:/program files (x86)/microchip/xc16/v1.10/bin/bin/../../lib\liblega-c-elf.a(strchr.XXelo)
                  0x001c22                  _strchr
 .libc._Vacopy._Vacopy
                  0x001c34          0x4 c:/program files (x86)/microchip/xc16/v1.10/bin/bin/../../lib\liblega-c-elf.a(xvacopy.XXelo)
                  0x001c34                  __Vacopy
 .libc.fwrite.fwrite
                  0x001c38         0xa8 c:/program files (x86)/microchip/xc16/v1.10/bin/bin/../../lib\liblega-c-elf.a(fwrite.XXeo)
                  0x001c38                  _fwrite
 .libc.memchr.memchr
                  0x001ce0         0x12 c:/program files (x86)/microchip/xc16/v1.10/bin/bin/../../lib\liblega-c-elf.a(memchr.XXeo)
                  0x001ce0                  _memchr
 .libc.memcpy.memcpy
                  0x001cf2          0xe c:/program files (x86)/microchip/xc16/v1.10/bin/bin/../../lib\liblega-c-elf.a(memcpy.XXeo)
                  0x001cf2                  _memcpy
 .libc._Fwprep._Fwprep
                  0x001d00         0x8e c:/program files (x86)/microchip/xc16/v1.10/bin/bin/../../lib\liblega-c-elf.a(xfwprep.XXeo)
                  0x001d00                  __Fwprep
 .libc._Ldtob._Ldtob
                  0x001d8e        0x460 c:/program files (x86)/microchip/xc16/v1.10/bin/bin/../../lib\liblega-c-elf.a(xldtob.XXeo)
                  0x001d8e                  __Ldtob
 .libc._LDunscale._LDunscale
                  0x0021ee         0x54 c:/program files (x86)/microchip/xc16/v1.10/bin/bin/../../lib\liblega-c-elf.a(xldunsca.XXeo)
                  0x0021ee                  __LDunscale
 .libc._Litob._Litob
                  0x002242        0x28c c:/program files (x86)/microchip/xc16/v1.10/bin/bin/../../lib\liblega-c-elf.a(xlitob.XXeo)
                  0x002242                  __Litob
 .libc._Puttxt._Puttxt
                  0x0024ce        0x178 c:/program files (x86)/microchip/xc16/v1.10/bin/bin/../../lib\liblega-c-elf.a(xputtxt.XXeo)
                  0x0024ce                  __Puttxt
 .libc.closeallreg.closeallreg
                  0x002646          0x6 c:/program files (x86)/microchip/xc16/v1.10/bin/bin/../../lib\liblega-c-elf.a(fclose.XXelo)
 .libc._Closreg._Closreg
                  0x00264c         0x14 c:/program files (x86)/microchip/xc16/v1.10/bin/bin/../../lib\liblega-c-elf.a(fclose.XXelo)
                  0x00264c                  __Closreg
 .libc.fclose.fclose
                  0x002660         0x88 c:/program files (x86)/microchip/xc16/v1.10/bin/bin/../../lib\liblega-c-elf.a(fclose.XXelo)
                  0x002660                  _fclose
 .libc.closeall.closeall
                  0x0026e8         0x18 c:/program files (x86)/microchip/xc16/v1.10/bin/bin/../../lib\liblega-c-elf.a(fclose.XXelo)
                  0x0026e8                  fclose.XXelo:_closeall
 .libc._DNKfflush._DNKfflush
                  0x002700         0x7e c:/program files (x86)/microchip/xc16/v1.10/bin/bin/../../lib\liblega-c-elf.a(fflush.XXelo)
                  0x002700                  __DNKfflush
 .libc.ldiv.ldiv
                  0x00277e         0x2a c:/program files (x86)/microchip/xc16/v1.10/bin/bin/../../lib\liblega-c-elf.a(ldiv.XXelo)
                  0x00277e                  _ldiv
 .libc._Atexit._Atexit
                  0x0027a8         0x1c c:/program files (x86)/microchip/xc16/v1.10/bin/bin/../../lib\liblega-c-elf.a(xatexit.XXelo)
                  0x0027a8                  __Atexit
 .libc._Dnorm._Dnorm
                  0x0027c4         0x9a c:/program files (x86)/microchip/xc16/v1.10/bin/bin/../../lib\liblega-c-elf.a(xdnorm.XXelo)
                  0x0027c4                  __Dnorm
 .libc._LDscale._LDscale
                  0x00285e         0xf4 c:/program files (x86)/microchip/xc16/v1.10/bin/bin/../../lib\liblega-c-elf.a(xldscale.XXelo)
                  0x00285e                  __LDscale
 .libc.free.free
                  0x002952         0x64 c:/program files (x86)/microchip/xc16/v1.10/bin/bin/../../lib\liblega-c-elf.a(free.XXeo)
                  0x002952                  _free
 .libc.findmem.findmem
                  0x0029b6         0x64 c:/program files (x86)/microchip/xc16/v1.10/bin/bin/../../lib\liblega-c-elf.a(malloc.XXeo)
 .libc.malloc.malloc
                  0x002a1a         0x54 c:/program files (x86)/microchip/xc16/v1.10/bin/bin/../../lib\liblega-c-elf.a(malloc.XXeo)
                  0x002a1a                  _malloc
 .libc._Genld._Genld
                  0x002a6e        0x266 c:/program files (x86)/microchip/xc16/v1.10/bin/bin/../../lib\liblega-c-elf.a(xgenld.XXeo)
                  0x002a6e                  __Genld
 .libc._Getmem._Getmem
                  0x002cd4         0x14 c:/program files (x86)/microchip/xc16/v1.10/bin/bin/../../lib\liblega-c-elf.a(xgetmem.XXeo)
                  0x002cd4                  __Getmem
 .libc.div.div    0x002ce8         0x16 c:/program files (x86)/microchip/xc16/v1.10/bin/bin/../../lib\liblega-c-elf.a(div.XXelo)
                  0x002ce8                  _div
 .libc.doclose.doclose
                  0x002cfe          0x4 c:/program files (x86)/microchip/xc16/v1.10/bin/bin/../../lib\liblega-pic30-elf.a(close.Leo)
 .libc.close      0x002d02         0x12 c:/program files (x86)/microchip/xc16/v1.10/bin/bin/../../lib\liblega-pic30-elf.a(close.Leo)
                  0x002d02                  _close
 .libc.doremove.doremove
                  0x002d14          0x4 c:/program files (x86)/microchip/xc16/v1.10/bin/bin/../../lib\liblega-pic30-elf.a(remove.Leo)
 .libc.remove     0x002d18         0x12 c:/program files (x86)/microchip/xc16/v1.10/bin/bin/../../lib\liblega-pic30-elf.a(remove.Leo)
                  0x002d18                  _remove
 .libc.sbrk       0x002d2a         0x28 c:/program files (x86)/microchip/xc16/v1.10/bin/bin/../../lib\liblega-pic30-elf.a(sbrk.Leo)
                  0x002d2a                  _sbrk
 .libc.brk        0x002d52         0x1c c:/program files (x86)/microchip/xc16/v1.10/bin/bin/../../lib\liblega-pic30-elf.a(brk.Lelo)
                  0x002d52                  _brk
 .libm.eqdf2      0x002d6e          0xa c:/program files (x86)/microchip/xc16/v1.10/bin/bin/../../lib\libm-elf.a(deqltle.eo)
                  0x002d6e                  ___eqdf2
                  0x002d6e                  ___ltdf2
                  0x002d6e                  ___ledf2
 .libm.gtdf2      0x002d78          0xa c:/program files (x86)/microchip/xc16/v1.10/bin/bin/../../lib\libm-elf.a(dgtge.eo)
                  0x002d78                  ___gtdf2
                  0x002d78                  ___gedf2
 .libm.divdf3     0x002d82         0xb4 c:/program files (x86)/microchip/xc16/v1.10/bin/bin/../../lib\libm-elf.a(divdf3.eo)
                  0x002d82                  ___divdf3
 .libm.dpack      0x002e36         0x58 c:/program files (x86)/microchip/xc16/v1.10/bin/bin/../../lib\libm-elf.a(dpack.eo)
                  0x002e36                  __dpack
 .libm.dunpack2
                  0x002e8e         0x32 c:/program files (x86)/microchip/xc16/v1.10/bin/bin/../../lib\libm-elf.a(dunpack2.eo)
                  0x002e8e                  __dunpack2
                  0x002eb0                  __dreturnNaN
                  0x002eb6                  __dunpack2exit
 .libm.extendsfdf2
                  0x002ec0         0x3e c:/program files (x86)/microchip/xc16/v1.10/bin/bin/../../lib\libm-elf.a(extendsfdf.eo)
                  0x002ec0                  ___extendsfdf2
 .libm.fixdfsi    0x002efe         0x58 c:/program files (x86)/microchip/xc16/v1.10/bin/bin/../../lib\libm-elf.a(fixdfsi.eo)
                  0x002efe                  _(float, int, long long, double, float, short, int)
 .libm.floatsidf
                  0x002f56          0x6 c:/program files (x86)/microchip/xc16/v1.10/bin/bin/../../lib\libm-elf.a(floatsidf.eo)
                  0x002f56                  ___floatsidf
 .libm.muldf3     0x002f5c         0xea c:/program files (x86)/microchip/xc16/v1.10/bin/bin/../../lib\libm-elf.a(muldf3.eo)
                  0x002f5c                  ___muldf3
 .libm.subdf3     0x003046          0x4 c:/program files (x86)/microchip/xc16/v1.10/bin/bin/../../lib\libm-elf.a(subdf3.eo)
                  0x003046                  ___subdf3
 .libm.mulsi3     0x00304a          0xc c:/program files (x86)/microchip/xc16/v1.10/bin/bin/../../lib\libm-elf.a(mulsi3.eo)
                  0x00304a                  ___mulp32peds3
                  0x00304a                  ___mulsi3
                  0x00304a                  ___mulp32eds3
 .libm.adddf3     0x003056         0xfa c:/program files (x86)/microchip/xc16/v1.10/bin/bin/../../lib\libm-elf.a(adddf3.eo)
                  0x003056                  ___adddf3
 .libm.dcompare
                  0x003150         0x52 c:/program files (x86)/microchip/xc16/v1.10/bin/bin/../../lib\libm-elf.a(dcompare.eo)
                  0x003150                  __dcompare
 .libm.dPropagateNaN
                  0x0031a2         0x1c c:/program files (x86)/microchip/xc16/v1.10/bin/bin/../../lib\libm-elf.a(dpropagateNaN.eo)
                  0x0031a2                  __dPropagateNaN
 .libm.dtype      0x0031be         0x24 c:/program files (x86)/microchip/xc16/v1.10/bin/bin/../../lib\libm-elf.a(dtype.eo)
                  0x0031be                  __dtype
 .libm.dunpack    0x0031e2         0x4e c:/program files (x86)/microchip/xc16/v1.10/bin/bin/../../lib\libm-elf.a(dunpack.eo)
                  0x0031e2                  __dunpack
 .libm.floatdidf
                  0x003230         0x6e c:/program files (x86)/microchip/xc16/v1.10/bin/bin/../../lib\libm-elf.a(floatdidf.eo)
                  0x003230                  ___floatdidf

usercode
 *(usercode)

__FBS
 *(__FBS.sec*)

__FSS
 *(__FSS.sec*)

__FGS             0xf80004          0x2
 *(__FGS.sec*)
 __FGS.sec        0xf80004          0x2 FGS
                  0xf80004                  __FGS.sec

__FOSCSEL         0xf80006          0x2
 *(__FOSCSEL.sec*)
 __FOSCSEL.sec    0xf80006          0x2 build/default/production/_ext/1077454706/mcu.o

__FOSC            0xf80008          0x2
 *(__FOSC.sec*)
 __FOSC.sec       0xf80008          0x2 build/default/production/_ext/1077454706/mcu.o

__FWDT            0xf8000a          0x2
 *(__FWDT.sec*)
 __FWDT.sec       0xf8000a          0x2 build/default/production/_ext/1077454706/mcu.o

__FPOR            0xf8000c          0x2
 *(__FPOR.sec*)
 __FPOR.sec       0xf8000c          0x2 build/default/production/_ext/1077454706/mcu.o

__FICD            0xf8000e          0x2
 *(__FICD.sec*)
 __FICD.sec       0xf8000e          0x2 build/default/production/_ext/1077454706/mcu.o

__FUID0
 *(__FUID0.sec*)

__FUID1
 *(__FUID1.sec*)

__FUID2
 *(__FUID2.sec*)

__FUID3
 *(__FUID3.sec*)

.comment          0x000000         0x5e
 *(.comment)
 .comment         0x000000         0x5e c:/program files (x86)/microchip/xc16/v1.10/bin/bin/../../lib\liblega-c-elf.a(xfiles.XXeo)

.debug_info       0x000000      0x23a95
 *(.debug_info)
 .debug_info      0x000000        0x6c5 build/default/production/_ext/1077471063/estWind.o
 .debug_info      0x0006c5        0x4d2 build/default/production/_ext/1077471063/estYawDrift.o
 .debug_info      0x000b97        0xeb3 build/default/production/_ext/1077471063/gpsParseCommon.o
 .debug_info      0x001a4a        0x914 build/default/production/_ext/1077471063/gpsParseSTD.o
 .debug_info      0x00235e        0x191 build/default/production/_ext/1077471063/gpsParseUBX.o
 .debug_info      0x0024ef        0x9a5 build/default/production/_ext/1077471063/mathlibNAV.o
 .debug_info      0x002e94       0x1140 build/default/production/_ext/1077471063/rmat.o
 .debug_info      0x003fd4        0x71e build/default/production/_ext/1077471063/libDCM.o
 .debug_info      0x0046f2        0xb0f build/default/production/_ext/1077471063/deadReckoning.o
 .debug_info      0x005201        0x192 build/default/production/_ext/1077471063/gpsParseMTEK.o
 .debug_info      0x005393        0x192 build/default/production/_ext/1077471063/gpsParseNMEA.o
 .debug_info      0x005525         0xd3 build/default/production/_ext/1077471063/fbcl.o
 .debug_info      0x0055f8       0x1975 build/default/production/_ext/1077454706/background.o
 .debug_info      0x006f6d        0x6c3 build/default/production/_ext/1077454706/libUDB.o
 .debug_info      0x007630        0x190 build/default/production/_ext/1077454706/analog2digital_udb4.o
 .debug_info      0x0077c0       0x1072 build/default/production/_ext/1077454706/servoOut.o
 .debug_info      0x008832        0x3c7 build/default/production/_ext/1077454706/osd.o
 .debug_info      0x008bf9        0x184 build/default/production/_ext/1077454706/24LC256.o
 .debug_info      0x008d7d        0xde2 build/default/production/_ext/1077454706/events.o
 .debug_info      0x009b5f       0x1b13 build/default/production/_ext/1077454706/analog2digital_udb5.o
 .debug_info      0x00b672        0xc06 build/default/production/_ext/1077454706/mpu6000.o
 .debug_info      0x00c278         0xd8 build/default/production/_ext/1077454706/traps_asm.o
 .debug_info      0x00c350        0xba5 build/default/production/_ext/1077454706/mcu.o
 .debug_info      0x00cef5        0x6d7 build/default/production/_ext/1077454706/eeprom_udb4.o
 .debug_info      0x00d5cc        0x6d7 build/default/production/_ext/1077454706/barometer.o
 .debug_info      0x00dca3        0x4bb build/default/production/_ext/1077454706/magnetometer.o
 .debug_info      0x00e15e       0x19e4 build/default/production/_ext/1077454706/radioIn.o
 .debug_info      0x00fb42       0x1888 build/default/production/_ext/1077454706/serialIO.o
 .debug_info      0x0113ca        0x181 build/default/production/_ext/1077454706/I2C1.o
 .debug_info      0x01154b       0x1331 build/default/production/_ext/1077454706/I2C2.o
 .debug_info      0x01287c        0x940 build/default/production/_ext/1077454706/read.o
 .debug_info      0x0131bc        0x1a4 build/default/production/_ext/1077454706/uart.o
 .debug_info      0x013360        0x925 build/default/production/_ext/1077454706/write.o
 .debug_info      0x013c85        0x191 build/default/production/_ext/1077454706/analog2digital_auav3.o
 .debug_info      0x013e16        0x309 build/default/production/_ext/1077454706/analogs.o
 .debug_info      0x01411f        0x48a build/default/production/_ext/1077454706/traps.o
 .debug_info      0x0145a9        0x4f0 build/default/production/_ext/1077454706/osd_bit.o
 .debug_info      0x014a99        0x184 build/default/production/_ext/1077454706/osd_spi.o
 .debug_info      0x014c1d        0xda8 build/default/production/_ext/1077454706/mpu_spi.o
 .debug_info      0x0159c5        0x48b build/default/production/_ext/1077454706/heartbeat.o
 .debug_info      0x015e50        0x184 build/default/production/_ext/1077454706/sonarIn.o
 .debug_info      0x015fd4         0xdc build/default/production/_ext/679848855/madd.o
 .debug_info      0x0160b0         0xdc build/default/production/_ext/679848855/mmul.o
 .debug_info      0x01618c         0xdc build/default/production/_ext/679848855/mscl.o
 .debug_info      0x016268         0xdc build/default/production/_ext/679848855/msub.o
 .debug_info      0x016344         0xdc build/default/production/_ext/679848855/mtrp.o
 .debug_info      0x016420         0xdc build/default/production/_ext/679848855/vadd.o
 .debug_info      0x0164fc         0xdc build/default/production/_ext/679848855/vcon.o
 .debug_info      0x0165d8         0xdd build/default/production/_ext/679848855/vcopy.o
 .debug_info      0x0166b5         0xdc build/default/production/_ext/679848855/vcor.o
 .debug_info      0x016791         0xdc build/default/production/_ext/679848855/vdot.o
 .debug_info      0x01686d         0xdc build/default/production/_ext/679848855/vmax.o
 .debug_info      0x016949         0xdc build/default/production/_ext/679848855/vmin.o
 .debug_info      0x016a25         0xdc build/default/production/_ext/679848855/vmul.o
 .debug_info      0x016b01         0xdc build/default/production/_ext/679848855/vneg.o
 .debug_info      0x016bdd         0xdc build/default/production/_ext/679848855/vpow.o
 .debug_info      0x016cb9         0xdc build/default/production/_ext/679848855/vscl.o
 .debug_info      0x016d95         0xdc build/default/production/_ext/679848855/vsub.o
 .debug_info      0x016e71         0xdd build/default/production/_ext/679848855/vzpad.o
 .debug_info      0x016f4e        0x188 build/default/production/_ext/1472/config_tests.o
 .debug_info      0x0170d6        0x82b build/default/production/_ext/1472/behavior.o
 .debug_info      0x017901        0x52b build/default/production/_ext/1472/cameraCntrl.o
 .debug_info      0x017e2c        0x198 build/default/production/_ext/1472/main.o
 .debug_info      0x017fc4        0xdee build/default/production/_ext/1472/navigate.o
 .debug_info      0x018db2        0xa8a build/default/production/_ext/1472/pitchCntrl.o
 .debug_info      0x01983c        0x89d build/default/production/_ext/1472/rollCntrl.o
 .debug_info      0x01a0d9        0x7ac build/default/production/_ext/1472/servoMix.o
 .debug_info      0x01a885        0xb65 build/default/production/_ext/1472/states.o
 .debug_info      0x01b3ea        0x9e9 build/default/production/_ext/1472/yawCntrl.o
 .debug_info      0x01bdd3       0x11bd build/default/production/_ext/1472/telemetry.o
 .debug_info      0x01cf90        0x4e7 build/default/production/_ext/1472/servoPrepare.o
 .debug_info      0x01d477        0x190 build/default/production/_ext/1472/flightplan-waypoints.o
 .debug_info      0x01d607       0x13bb build/default/production/_ext/1472/flightplan-logo.o
 .debug_info      0x01e9c2        0xe69 build/default/production/_ext/1472/mp_osd.o
 .debug_info      0x01f82b        0xcce build/default/production/_ext/1472/altitudeCntrl.o
 .debug_info      0x0204f9        0x183 build/default/production/_ext/1472/MAVLink.o
 .debug_info      0x02067c        0x6c4 build/default/production/_ext/1472/mode_switch.o
 .debug_info      0x020d40        0x180 build/default/production/_ext/1472/data_services.o
 .debug_info      0x020ec0        0x17f build/default/production/_ext/1472/data_storage.o
 .debug_info      0x02103f        0x18b build/default/production/_ext/1472/nv_memory_table.o
 .debug_info      0x0211ca        0x18b build/default/production/_ext/1472/parameter_table.o
 .debug_info      0x021355        0x2e3 build/default/production/_ext/1472/airspeedCntrl.o
 .debug_info      0x021638        0x1bc build/default/production/_ext/1472/altitudeCntrlVariable.o
 .debug_info      0x0217f4        0x271 build/default/production/_ext/1472/euler_angles.o
 .debug_info      0x021a65        0x18b build/default/production/_ext/1472/fly_by_datalink.o
 .debug_info      0x021bf0        0x183 build/default/production/_ext/1472/console.o
 .debug_info      0x021d73        0x1ba build/default/production/_ext/1472/config.o
 .debug_info      0x021f2d        0x18d build/default/production/_ext/1472/MAVFlexiFunctions.o
 .debug_info      0x0220ba        0x186 build/default/production/_ext/1472/MAVMission.o
 .debug_info      0x022240        0x185 build/default/production/_ext/1472/MAVParams.o
 .debug_info      0x0223c5        0x187 build/default/production/_ext/1472/MAVUDBExtra.o
 .debug_info      0x02254c        0xa51 build/default/production/_ext/1472/barometerCntrl.o
 .debug_info      0x022f9d        0x7f6 build/default/production/_ext/1472/sonarCntrl.o
 .debug_info      0x023793        0x302 build/default/production/_ext/1077471063/estAirspeed.o
 *(.gnu.linkonce.wi.*)

.debug_abbrev     0x000000       0x3f73
 *(.debug_abbrev)
 .debug_abbrev    0x000000         0xeb build/default/production/_ext/1077471063/estWind.o
 .debug_abbrev    0x0000eb         0xcf build/default/production/_ext/1077471063/estYawDrift.o
 .debug_abbrev    0x0001ba        0x1c5 build/default/production/_ext/1077471063/gpsParseCommon.o
 .debug_abbrev    0x00037f        0x18e build/default/production/_ext/1077471063/gpsParseSTD.o
 .debug_abbrev    0x00050d         0x1f build/default/production/_ext/1077471063/gpsParseUBX.o
 .debug_abbrev    0x00052c        0x182 build/default/production/_ext/1077471063/mathlibNAV.o
 .debug_abbrev    0x0006ae        0x1fe build/default/production/_ext/1077471063/rmat.o
 .debug_abbrev    0x0008ac        0x11e build/default/production/_ext/1077471063/libDCM.o
 .debug_abbrev    0x0009ca        0x100 build/default/production/_ext/1077471063/deadReckoning.o
 .debug_abbrev    0x000aca         0x1f build/default/production/_ext/1077471063/gpsParseMTEK.o
 .debug_abbrev    0x000ae9         0x1f build/default/production/_ext/1077471063/gpsParseNMEA.o
 .debug_abbrev    0x000b08         0x14 build/default/production/_ext/1077471063/fbcl.o
 .debug_abbrev    0x000b1c        0x156 build/default/production/_ext/1077454706/background.o
 .debug_abbrev    0x000c72        0x178 build/default/production/_ext/1077454706/libUDB.o
 .debug_abbrev    0x000dea         0x1f build/default/production/_ext/1077454706/analog2digital_udb4.o
 .debug_abbrev    0x000e09        0x12e build/default/production/_ext/1077454706/servoOut.o
 .debug_abbrev    0x000f37         0x9b build/default/production/_ext/1077454706/osd.o
 .debug_abbrev    0x000fd2         0x1f build/default/production/_ext/1077454706/24LC256.o
 .debug_abbrev    0x000ff1        0x1b6 build/default/production/_ext/1077454706/events.o
 .debug_abbrev    0x0011a7        0x199 build/default/production/_ext/1077454706/analog2digital_udb5.o
 .debug_abbrev    0x001340        0x13d build/default/production/_ext/1077454706/mpu6000.o
 .debug_abbrev    0x00147d         0x14 build/default/production/_ext/1077454706/traps_asm.o
 .debug_abbrev    0x001491        0x131 build/default/production/_ext/1077454706/mcu.o
 .debug_abbrev    0x0015c2        0x112 build/default/production/_ext/1077454706/eeprom_udb4.o
 .debug_abbrev    0x0016d4        0x126 build/default/production/_ext/1077454706/barometer.o
 .debug_abbrev    0x0017fa         0xcc build/default/production/_ext/1077454706/magnetometer.o
 .debug_abbrev    0x0018c6        0x202 build/default/production/_ext/1077454706/radioIn.o
 .debug_abbrev    0x001ac8        0x153 build/default/production/_ext/1077454706/serialIO.o
 .debug_abbrev    0x001c1b         0x1f build/default/production/_ext/1077454706/I2C1.o
 .debug_abbrev    0x001c3a        0x23f build/default/production/_ext/1077454706/I2C2.o
 .debug_abbrev    0x001e79        0x119 build/default/production/_ext/1077454706/read.o
 .debug_abbrev    0x001f92         0x34 build/default/production/_ext/1077454706/uart.o
 .debug_abbrev    0x001fc6        0x110 build/default/production/_ext/1077454706/write.o
 .debug_abbrev    0x0020d6         0x1f build/default/production/_ext/1077454706/analog2digital_auav3.o
 .debug_abbrev    0x0020f5         0xab build/default/production/_ext/1077454706/analogs.o
 .debug_abbrev    0x0021a0         0xb4 build/default/production/_ext/1077454706/traps.o
 .debug_abbrev    0x002254         0xc8 build/default/production/_ext/1077454706/osd_bit.o
 .debug_abbrev    0x00231c         0x1f build/default/production/_ext/1077454706/osd_spi.o
 .debug_abbrev    0x00233b        0x161 build/default/production/_ext/1077454706/mpu_spi.o
 .debug_abbrev    0x00249c        0x13e build/default/production/_ext/1077454706/heartbeat.o
 .debug_abbrev    0x0025da         0x1f build/default/production/_ext/1077454706/sonarIn.o
 .debug_abbrev    0x0025f9         0x14 build/default/production/_ext/679848855/madd.o
 .debug_abbrev    0x00260d         0x14 build/default/production/_ext/679848855/mmul.o
 .debug_abbrev    0x002621         0x14 build/default/production/_ext/679848855/mscl.o
 .debug_abbrev    0x002635         0x14 build/default/production/_ext/679848855/msub.o
 .debug_abbrev    0x002649         0x14 build/default/production/_ext/679848855/mtrp.o
 .debug_abbrev    0x00265d         0x14 build/default/production/_ext/679848855/vadd.o
 .debug_abbrev    0x002671         0x14 build/default/production/_ext/679848855/vcon.o
 .debug_abbrev    0x002685         0x14 build/default/production/_ext/679848855/vcopy.o
 .debug_abbrev    0x002699         0x14 build/default/production/_ext/679848855/vcor.o
 .debug_abbrev    0x0026ad         0x14 build/default/production/_ext/679848855/vdot.o
 .debug_abbrev    0x0026c1         0x14 build/default/production/_ext/679848855/vmax.o
 .debug_abbrev    0x0026d5         0x14 build/default/production/_ext/679848855/vmin.o
 .debug_abbrev    0x0026e9         0x14 build/default/production/_ext/679848855/vmul.o
 .debug_abbrev    0x0026fd         0x14 build/default/production/_ext/679848855/vneg.o
 .debug_abbrev    0x002711         0x14 build/default/production/_ext/679848855/vpow.o
 .debug_abbrev    0x002725         0x14 build/default/production/_ext/679848855/vscl.o
 .debug_abbrev    0x002739         0x14 build/default/production/_ext/679848855/vsub.o
 .debug_abbrev    0x00274d         0x14 build/default/production/_ext/679848855/vzpad.o
 .debug_abbrev    0x002761         0x1f build/default/production/_ext/1472/config_tests.o
 .debug_abbrev    0x002780        0x123 build/default/production/_ext/1472/behavior.o
 .debug_abbrev    0x0028a3        0x103 build/default/production/_ext/1472/cameraCntrl.o
 .debug_abbrev    0x0029a6         0x36 build/default/production/_ext/1472/main.o
 .debug_abbrev    0x0029dc        0x18c build/default/production/_ext/1472/navigate.o
 .debug_abbrev    0x002b68        0x12a build/default/production/_ext/1472/pitchCntrl.o
 .debug_abbrev    0x002c92        0x117 build/default/production/_ext/1472/rollCntrl.o
 .debug_abbrev    0x002da9         0xf2 build/default/production/_ext/1472/servoMix.o
 .debug_abbrev    0x002e9b        0x17d build/default/production/_ext/1472/states.o
 .debug_abbrev    0x003018        0x124 build/default/production/_ext/1472/yawCntrl.o
 .debug_abbrev    0x00313c        0x1ed build/default/production/_ext/1472/telemetry.o
 .debug_abbrev    0x003329         0xd7 build/default/production/_ext/1472/servoPrepare.o
 .debug_abbrev    0x003400         0x1f build/default/production/_ext/1472/flightplan-waypoints.o
 .debug_abbrev    0x00341f        0x1d5 build/default/production/_ext/1472/flightplan-logo.o
 .debug_abbrev    0x0035f4        0x15f build/default/production/_ext/1472/mp_osd.o
 .debug_abbrev    0x003753        0x19f build/default/production/_ext/1472/altitudeCntrl.o
 .debug_abbrev    0x0038f2         0x1f build/default/production/_ext/1472/MAVLink.o
 .debug_abbrev    0x003911         0xd7 build/default/production/_ext/1472/mode_switch.o
 .debug_abbrev    0x0039e8         0x1f build/default/production/_ext/1472/data_services.o
 .debug_abbrev    0x003a07         0x1f build/default/production/_ext/1472/data_storage.o
 .debug_abbrev    0x003a26         0x1f build/default/production/_ext/1472/nv_memory_table.o
 .debug_abbrev    0x003a45         0x1f build/default/production/_ext/1472/parameter_table.o
 .debug_abbrev    0x003a64         0x63 build/default/production/_ext/1472/airspeedCntrl.o
 .debug_abbrev    0x003ac7         0x34 build/default/production/_ext/1472/altitudeCntrlVariable.o
 .debug_abbrev    0x003afb         0x91 build/default/production/_ext/1472/euler_angles.o
 .debug_abbrev    0x003b8c         0x1f build/default/production/_ext/1472/fly_by_datalink.o
 .debug_abbrev    0x003bab         0x1f build/default/production/_ext/1472/console.o
 .debug_abbrev    0x003bca         0x34 build/default/production/_ext/1472/config.o
 .debug_abbrev    0x003bfe         0x1f build/default/production/_ext/1472/MAVFlexiFunctions.o
 .debug_abbrev    0x003c1d         0x1f build/default/production/_ext/1472/MAVMission.o
 .debug_abbrev    0x003c3c         0x1f build/default/production/_ext/1472/MAVParams.o
 .debug_abbrev    0x003c5b         0x1f build/default/production/_ext/1472/MAVUDBExtra.o
 .debug_abbrev    0x003c7a        0x18a build/default/production/_ext/1472/barometerCntrl.o
 .debug_abbrev    0x003e04        0x102 build/default/production/_ext/1472/sonarCntrl.o
 .debug_abbrev    0x003f06         0x6d build/default/production/_ext/1077471063/estAirspeed.o

.debug_line       0x000000       0xd104
 *(.debug_line)
 .debug_line      0x000000        0x30a build/default/production/_ext/1077471063/estWind.o
 .debug_line      0x00030a        0x20d build/default/production/_ext/1077471063/estYawDrift.o
 .debug_line      0x000517        0x638 build/default/production/_ext/1077471063/gpsParseCommon.o
 .debug_line      0x000b4f        0x42b build/default/production/_ext/1077471063/gpsParseSTD.o
 .debug_line      0x000f7a         0x24 build/default/production/_ext/1077471063/gpsParseUBX.o
 .debug_line      0x000f9e        0x894 build/default/production/_ext/1077471063/mathlibNAV.o
 .debug_line      0x001832        0xba0 build/default/production/_ext/1077471063/rmat.o
 .debug_line      0x0023d2        0x304 build/default/production/_ext/1077471063/libDCM.o
 .debug_line      0x0026d6        0x3d0 build/default/production/_ext/1077471063/deadReckoning.o
 .debug_line      0x002aa6         0x24 build/default/production/_ext/1077471063/gpsParseMTEK.o
 .debug_line      0x002aca         0x24 build/default/production/_ext/1077471063/gpsParseNMEA.o
 .debug_line      0x002aee         0x43 build/default/production/_ext/1077471063/fbcl.o
 .debug_line      0x002b31        0x424 build/default/production/_ext/1077454706/background.o
 .debug_line      0x002f55        0x243 build/default/production/_ext/1077454706/libUDB.o
 .debug_line      0x003198         0x24 build/default/production/_ext/1077454706/analog2digital_udb4.o
 .debug_line      0x0031bc        0x33d build/default/production/_ext/1077454706/servoOut.o
 .debug_line      0x0034f9        0x531 build/default/production/_ext/1077454706/osd.o
 .debug_line      0x003a2a         0x24 build/default/production/_ext/1077454706/24LC256.o
 .debug_line      0x003a4e        0x35e build/default/production/_ext/1077454706/events.o
 .debug_line      0x003dac        0x3ab build/default/production/_ext/1077454706/analog2digital_udb5.o
 .debug_line      0x004157        0x2c5 build/default/production/_ext/1077454706/mpu6000.o
 .debug_line      0x00441c         0x66 build/default/production/_ext/1077454706/traps_asm.o
 .debug_line      0x004482        0x225 build/default/production/_ext/1077454706/mcu.o
 .debug_line      0x0046a7        0x53b build/default/production/_ext/1077454706/eeprom_udb4.o
 .debug_line      0x004be2        0x3be build/default/production/_ext/1077454706/barometer.o
 .debug_line      0x004fa0        0x32b build/default/production/_ext/1077454706/magnetometer.o
 .debug_line      0x0052cb        0x424 build/default/production/_ext/1077454706/radioIn.o
 .debug_line      0x0056ef        0x530 build/default/production/_ext/1077454706/serialIO.o
 .debug_line      0x005c1f         0x24 build/default/production/_ext/1077454706/I2C1.o
 .debug_line      0x005c43        0x97a build/default/production/_ext/1077454706/I2C2.o
 .debug_line      0x0065bd        0x176 build/default/production/_ext/1077454706/read.o
 .debug_line      0x006733         0x58 build/default/production/_ext/1077454706/uart.o
 .debug_line      0x00678b        0x167 build/default/production/_ext/1077454706/write.o
 .debug_line      0x0068f2         0x24 build/default/production/_ext/1077454706/analog2digital_auav3.o
 .debug_line      0x006916        0x125 build/default/production/_ext/1077454706/analogs.o
 .debug_line      0x006a3b        0x1fe build/default/production/_ext/1077454706/traps.o
 .debug_line      0x006c39        0x24c build/default/production/_ext/1077454706/osd_bit.o
 .debug_line      0x006e85         0x24 build/default/production/_ext/1077454706/osd_spi.o
 .debug_line      0x006ea9        0x3ba build/default/production/_ext/1077454706/mpu_spi.o
 .debug_line      0x007263        0x22d build/default/production/_ext/1077454706/heartbeat.o
 .debug_line      0x007490         0x24 build/default/production/_ext/1077454706/sonarIn.o
 .debug_line      0x0074b4         0x69 build/default/production/_ext/679848855/madd.o
 .debug_line      0x00751d         0x83 build/default/production/_ext/679848855/mmul.o
 .debug_line      0x0075a0         0x69 build/default/production/_ext/679848855/mscl.o
 .debug_line      0x007609         0x6e build/default/production/_ext/679848855/msub.o
 .debug_line      0x007677         0x6b build/default/production/_ext/679848855/mtrp.o
 .debug_line      0x0076e2         0x68 build/default/production/_ext/679848855/vadd.o
 .debug_line      0x00774a         0xc0 build/default/production/_ext/679848855/vcon.o
 .debug_line      0x00780a         0x52 build/default/production/_ext/679848855/vcopy.o
 .debug_line      0x00785c         0x61 build/default/production/_ext/679848855/vcor.o
 .debug_line      0x0078bd         0x68 build/default/production/_ext/679848855/vdot.o
 .debug_line      0x007925         0x56 build/default/production/_ext/679848855/vmax.o
 .debug_line      0x00797b         0x56 build/default/production/_ext/679848855/vmin.o
 .debug_line      0x0079d1         0x69 build/default/production/_ext/679848855/vmul.o
 .debug_line      0x007a3a         0x6b build/default/production/_ext/679848855/vneg.o
 .debug_line      0x007aa5         0x67 build/default/production/_ext/679848855/vpow.o
 .debug_line      0x007b0c         0x69 build/default/production/_ext/679848855/vscl.o
 .debug_line      0x007b75         0x6d build/default/production/_ext/679848855/vsub.o
 .debug_line      0x007be2         0x58 build/default/production/_ext/679848855/vzpad.o
 .debug_line      0x007c3a         0x24 build/default/production/_ext/1472/config_tests.o
 .debug_line      0x007c5e        0x38d build/default/production/_ext/1472/behavior.o
 .debug_line      0x007feb        0x1cc build/default/production/_ext/1472/cameraCntrl.o
 .debug_line      0x0081b7         0xa3 build/default/production/_ext/1472/main.o
 .debug_line      0x00825a        0x628 build/default/production/_ext/1472/navigate.o
 .debug_line      0x008882        0x3bd build/default/production/_ext/1472/pitchCntrl.o
 .debug_line      0x008c3f        0x2ce build/default/production/_ext/1472/rollCntrl.o
 .debug_line      0x008f0d        0x242 build/default/production/_ext/1472/servoMix.o
 .debug_line      0x00914f        0x76f build/default/production/_ext/1472/states.o
 .debug_line      0x0098be        0x31d build/default/production/_ext/1472/yawCntrl.o
 .debug_line      0x009bdb        0x73e build/default/production/_ext/1472/telemetry.o
 .debug_line      0x00a319        0x239 build/default/production/_ext/1472/servoPrepare.o
 .debug_line      0x00a552         0x24 build/default/production/_ext/1472/flightplan-waypoints.o
 .debug_line      0x00a576        0xfa9 build/default/production/_ext/1472/flightplan-logo.o
 .debug_line      0x00b51f        0x7c4 build/default/production/_ext/1472/mp_osd.o
 .debug_line      0x00bce3        0x50f build/default/production/_ext/1472/altitudeCntrl.o
 .debug_line      0x00c1f2         0x24 build/default/production/_ext/1472/MAVLink.o
 .debug_line      0x00c216        0x243 build/default/production/_ext/1472/mode_switch.o
 .debug_line      0x00c459         0x24 build/default/production/_ext/1472/data_services.o
 .debug_line      0x00c47d         0x24 build/default/production/_ext/1472/data_storage.o
 .debug_line      0x00c4a1         0x24 build/default/production/_ext/1472/nv_memory_table.o
 .debug_line      0x00c4c5         0x24 build/default/production/_ext/1472/parameter_table.o
 .debug_line      0x00c4e9        0x159 build/default/production/_ext/1472/airspeedCntrl.o
 .debug_line      0x00c642         0x5f build/default/production/_ext/1472/altitudeCntrlVariable.o
 .debug_line      0x00c6a1        0x174 build/default/production/_ext/1472/euler_angles.o
 .debug_line      0x00c815         0x24 build/default/production/_ext/1472/fly_by_datalink.o
 .debug_line      0x00c839         0x24 build/default/production/_ext/1472/console.o
 .debug_line      0x00c85d         0xa5 build/default/production/_ext/1472/config.o
 .debug_line      0x00c902         0x24 build/default/production/_ext/1472/MAVFlexiFunctions.o
 .debug_line      0x00c926         0x24 build/default/production/_ext/1472/MAVMission.o
 .debug_line      0x00c94a         0x24 build/default/production/_ext/1472/MAVParams.o
 .debug_line      0x00c96e         0x24 build/default/production/_ext/1472/MAVUDBExtra.o
 .debug_line      0x00c992        0x434 build/default/production/_ext/1472/barometerCntrl.o
 .debug_line      0x00cdc6        0x274 build/default/production/_ext/1472/sonarCntrl.o
 .debug_line      0x00d03a         0xca build/default/production/_ext/1077471063/estAirspeed.o

.debug_frame      0x000000       0x1f40
 *(.debug_frame)
 .debug_frame     0x000000         0x24 build/default/production/_ext/1077471063/estWind.o
 .debug_frame     0x000024         0x44 build/default/production/_ext/1077471063/estYawDrift.o
 .debug_frame     0x000068         0xd4 build/default/production/_ext/1077471063/gpsParseCommon.o
 .debug_frame     0x00013c         0xd4 build/default/production/_ext/1077471063/gpsParseSTD.o
 .debug_frame     0x000210        0x134 build/default/production/_ext/1077471063/mathlibNAV.o
 .debug_frame     0x000344        0x164 build/default/production/_ext/1077471063/rmat.o
 .debug_frame     0x0004a8         0x94 build/default/production/_ext/1077471063/libDCM.o
 .debug_frame     0x00053c         0x24 build/default/production/_ext/1077471063/deadReckoning.o
 .debug_frame     0x000560         0xe4 build/default/production/_ext/1077454706/background.o
 .debug_frame     0x000644         0x54 build/default/production/_ext/1077454706/libUDB.o
 .debug_frame     0x000698         0x54 build/default/production/_ext/1077454706/servoOut.o
 .debug_frame     0x0006ec         0x84 build/default/production/_ext/1077454706/osd.o
 .debug_frame     0x000770         0x74 build/default/production/_ext/1077454706/events.o
 .debug_frame     0x0007e4         0x34 build/default/production/_ext/1077454706/analog2digital_udb5.o
 .debug_frame     0x000818         0xb4 build/default/production/_ext/1077454706/mpu6000.o
 .debug_frame     0x0008cc         0x54 build/default/production/_ext/1077454706/mcu.o
 .debug_frame     0x000920         0xd4 build/default/production/_ext/1077454706/eeprom_udb4.o
 .debug_frame     0x0009f4         0x84 build/default/production/_ext/1077454706/barometer.o
 .debug_frame     0x000a78         0x34 build/default/production/_ext/1077454706/magnetometer.o
 .debug_frame     0x000aac         0xa4 build/default/production/_ext/1077454706/radioIn.o
 .debug_frame     0x000b50         0xd4 build/default/production/_ext/1077454706/serialIO.o
 .debug_frame     0x000c24        0x1b4 build/default/production/_ext/1077454706/I2C2.o
 .debug_frame     0x000dd8         0x24 build/default/production/_ext/1077454706/read.o
 .debug_frame     0x000dfc         0x24 build/default/production/_ext/1077454706/uart.o
 .debug_frame     0x000e20         0x24 build/default/production/_ext/1077454706/write.o
 .debug_frame     0x000e44         0x34 build/default/production/_ext/1077454706/analogs.o
 .debug_frame     0x000e78         0x74 build/default/production/_ext/1077454706/traps.o
 .debug_frame     0x000eec         0x54 build/default/production/_ext/1077454706/osd_bit.o
 .debug_frame     0x000f40         0x74 build/default/production/_ext/1077454706/mpu_spi.o
 .debug_frame     0x000fb4         0x54 build/default/production/_ext/1077454706/heartbeat.o
 .debug_frame     0x001008         0x84 build/default/production/_ext/1472/behavior.o
 .debug_frame     0x00108c         0x64 build/default/production/_ext/1472/cameraCntrl.o
 .debug_frame     0x0010f0         0x24 build/default/production/_ext/1472/main.o
 .debug_frame     0x001114         0xa4 build/default/production/_ext/1472/navigate.o
 .debug_frame     0x0011b8         0x54 build/default/production/_ext/1472/pitchCntrl.o
 .debug_frame     0x00120c         0x54 build/default/production/_ext/1472/rollCntrl.o
 .debug_frame     0x001260         0x34 build/default/production/_ext/1472/servoMix.o
 .debug_frame     0x001294        0x114 build/default/production/_ext/1472/states.o
 .debug_frame     0x0013a8         0x54 build/default/production/_ext/1472/yawCntrl.o
 .debug_frame     0x0013fc        0x664 build/default/production/_ext/1472/telemetry.o
 .debug_frame     0x001a60         0x44 build/default/production/_ext/1472/servoPrepare.o
 .debug_frame     0x001aa4        0x124 build/default/production/_ext/1472/flightplan-logo.o
 .debug_frame     0x001bc8         0x64 build/default/production/_ext/1472/mp_osd.o
 .debug_frame     0x001c2c         0x94 build/default/production/_ext/1472/altitudeCntrl.o
 .debug_frame     0x001cc0         0x64 build/default/production/_ext/1472/mode_switch.o
 .debug_frame     0x001d24         0x24 build/default/production/_ext/1472/airspeedCntrl.o
 .debug_frame     0x001d48         0x24 build/default/production/_ext/1472/altitudeCntrlVariable.o
 .debug_frame     0x001d6c         0x24 build/default/production/_ext/1472/euler_angles.o
 .debug_frame     0x001d90         0x34 build/default/production/_ext/1472/config.o
 .debug_frame     0x001dc4         0xd4 build/default/production/_ext/1472/barometerCntrl.o
 .debug_frame     0x001e98         0x54 build/default/production/_ext/1472/sonarCntrl.o
 .debug_frame     0x001eec         0x54 build/default/production/_ext/1077471063/estAirspeed.o

.debug_str        0x000000       0x1d7c
 *(.debug_str)
 .debug_str       0x000000         0x24 build/default/production/_ext/1077471063/estWind.o
 .debug_str       0x000024         0x5b build/default/production/_ext/1077471063/estYawDrift.o
 .debug_str       0x00007f        0x166 build/default/production/_ext/1077471063/gpsParseCommon.o
 .debug_str       0x0001e5         0xd8 build/default/production/_ext/1077471063/gpsParseSTD.o
 .debug_str       0x0002bd         0x6d build/default/production/_ext/1077471063/mathlibNAV.o
 .debug_str       0x00032a        0x197 build/default/production/_ext/1077471063/rmat.o
 .debug_str       0x0004c1         0x41 build/default/production/_ext/1077471063/libDCM.o
 .debug_str       0x000502        0x14f build/default/production/_ext/1077471063/deadReckoning.o
 .debug_str       0x000651         0x99 build/default/production/_ext/1077454706/background.o
 .debug_str       0x0006ea         0x53 build/default/production/_ext/1077454706/libUDB.o
 .debug_str       0x00073d         0x69 build/default/production/_ext/1077454706/servoOut.o
 .debug_str       0x0007a6         0x82 build/default/production/_ext/1077454706/events.o
 .debug_str       0x000828        0x100 build/default/production/_ext/1077454706/analog2digital_udb5.o
 .debug_str       0x000928         0x9b build/default/production/_ext/1077454706/mpu6000.o
 .debug_str       0x0009c3         0x70 build/default/production/_ext/1077454706/mcu.o
 .debug_str       0x000a33         0x39 build/default/production/_ext/1077454706/eeprom_udb4.o
 .debug_str       0x000a6c         0x1c build/default/production/_ext/1077454706/barometer.o
 .debug_str       0x000a88         0xbe build/default/production/_ext/1077454706/magnetometer.o
 .debug_str       0x000b46         0xcf build/default/production/_ext/1077454706/radioIn.o
 .debug_str       0x000c15         0xa5 build/default/production/_ext/1077454706/serialIO.o
 .debug_str       0x000cba        0x164 build/default/production/_ext/1077454706/I2C2.o
 .debug_str       0x000e1e         0x59 build/default/production/_ext/1077454706/read.o
 .debug_str       0x000e77         0x59 build/default/production/_ext/1077454706/write.o
 .debug_str       0x000ed0         0x42 build/default/production/_ext/1077454706/analogs.o
 .debug_str       0x000f12         0x32 build/default/production/_ext/1077454706/traps.o
 .debug_str       0x000f44         0x13 build/default/production/_ext/1077454706/osd_bit.o
 .debug_str       0x000f57         0x53 build/default/production/_ext/1077454706/mpu_spi.o
 .debug_str       0x000faa         0x41 build/default/production/_ext/1077454706/heartbeat.o
 .debug_str       0x000feb         0x2f build/default/production/_ext/1472/behavior.o
 .debug_str       0x00101a         0x97 build/default/production/_ext/1472/cameraCntrl.o
 .debug_str       0x0010b1        0x124 build/default/production/_ext/1472/navigate.o
 .debug_str       0x0011d5        0x100 build/default/production/_ext/1472/pitchCntrl.o
 .debug_str       0x0012d5         0x7d build/default/production/_ext/1472/rollCntrl.o
 .debug_str       0x001352         0xc2 build/default/production/_ext/1472/servoMix.o
 .debug_str       0x001414         0x4d build/default/production/_ext/1472/states.o
 .debug_str       0x001461         0xa4 build/default/production/_ext/1472/yawCntrl.o
 .debug_str       0x001505        0x197 build/default/production/_ext/1472/telemetry.o
 .debug_str       0x00169c         0x80 build/default/production/_ext/1472/servoPrepare.o
 .debug_str       0x00171c        0x21a build/default/production/_ext/1472/flightplan-logo.o
 .debug_str       0x001936        0x12e build/default/production/_ext/1472/mp_osd.o
 .debug_str       0x001a64        0x19a build/default/production/_ext/1472/altitudeCntrl.o
 .debug_str       0x001bfe         0x13 build/default/production/_ext/1472/mode_switch.o
 .debug_str       0x001c11         0xbb build/default/production/_ext/1472/airspeedCntrl.o
 .debug_str       0x001ccc         0x44 build/default/production/_ext/1472/barometerCntrl.o
 .debug_str       0x001d10         0x40 build/default/production/_ext/1472/sonarCntrl.o
 .debug_str       0x001d50         0x2c build/default/production/_ext/1077471063/estAirspeed.o

.debug_loc
 *(.debug_loc)

.debug_macinfo
 *(.debug_macinfo)

.debug_pubnames
                  0x000000       0x2e45
 *(.debug_pubnames)
 .debug_pubnames
                  0x000000         0x35 build/default/production/_ext/1077471063/estWind.o
 .debug_pubnames
                  0x000035         0x68 build/default/production/_ext/1077471063/estYawDrift.o
 .debug_pubnames
                  0x00009d        0x32a build/default/production/_ext/1077471063/gpsParseCommon.o
 .debug_pubnames
                  0x0003c7        0x150 build/default/production/_ext/1077471063/gpsParseSTD.o
 .debug_pubnames
                  0x000517        0x177 build/default/production/_ext/1077471063/mathlibNAV.o
 .debug_pubnames
                  0x00068e        0x1a9 build/default/production/_ext/1077471063/rmat.o
 .debug_pubnames
                  0x000837         0xd1 build/default/production/_ext/1077471063/libDCM.o
 .debug_pubnames
                  0x000908        0x161 build/default/production/_ext/1077471063/deadReckoning.o
 .debug_pubnames
                  0x000a69         0xdb build/default/production/_ext/1077454706/background.o
 .debug_pubnames
                  0x000b44         0x6b build/default/production/_ext/1077454706/libUDB.o
 .debug_pubnames
                  0x000baf         0x7f build/default/production/_ext/1077454706/servoOut.o
 .debug_pubnames
                  0x000c2e         0xc0 build/default/production/_ext/1077454706/osd.o
 .debug_pubnames
                  0x000cee         0x9d build/default/production/_ext/1077454706/events.o
 .debug_pubnames
                  0x000d8b         0xa6 build/default/production/_ext/1077454706/analog2digital_udb5.o
 .debug_pubnames
                  0x000e31        0x104 build/default/production/_ext/1077454706/mpu6000.o
 .debug_pubnames
                  0x000f35         0xda build/default/production/_ext/1077454706/mcu.o
 .debug_pubnames
                  0x00100f         0xe3 build/default/production/_ext/1077454706/eeprom_udb4.o
 .debug_pubnames
                  0x0010f2         0x85 build/default/production/_ext/1077454706/barometer.o
 .debug_pubnames
                  0x001177        0x177 build/default/production/_ext/1077454706/magnetometer.o
 .debug_pubnames
                  0x0012ee        0x110 build/default/production/_ext/1077454706/radioIn.o
 .debug_pubnames
                  0x0013fe        0x121 build/default/production/_ext/1077454706/serialIO.o
 .debug_pubnames
                  0x00151f        0x302 build/default/production/_ext/1077454706/I2C2.o
 .debug_pubnames
                  0x001821         0x1b build/default/production/_ext/1077454706/read.o
 .debug_pubnames
                  0x00183c         0x20 build/default/production/_ext/1077454706/uart.o
 .debug_pubnames
                  0x00185c         0x1c build/default/production/_ext/1077454706/write.o
 .debug_pubnames
                  0x001878         0x83 build/default/production/_ext/1077454706/analogs.o
 .debug_pubnames
                  0x0018fb         0xa1 build/default/production/_ext/1077454706/traps.o
 .debug_pubnames
                  0x00199c         0x63 build/default/production/_ext/1077454706/osd_bit.o
 .debug_pubnames
                  0x0019ff         0x7e build/default/production/_ext/1077454706/mpu_spi.o
 .debug_pubnames
                  0x001a7d         0x71 build/default/production/_ext/1077454706/heartbeat.o
 .debug_pubnames
                  0x001aee         0xbb build/default/production/_ext/1472/behavior.o
 .debug_pubnames
                  0x001ba9        0x1c1 build/default/production/_ext/1472/cameraCntrl.o
 .debug_pubnames
                  0x001d6a         0x1b build/default/production/_ext/1472/main.o
 .debug_pubnames
                  0x001d85        0x19c build/default/production/_ext/1472/navigate.o
 .debug_pubnames
                  0x001f21         0xc8 build/default/production/_ext/1472/pitchCntrl.o
 .debug_pubnames
                  0x001fe9         0x9d build/default/production/_ext/1472/rollCntrl.o
 .debug_pubnames
                  0x002086         0x65 build/default/production/_ext/1472/servoMix.o
 .debug_pubnames
                  0x0020eb         0x87 build/default/production/_ext/1472/states.o
 .debug_pubnames
                  0x002172         0x9d build/default/production/_ext/1472/yawCntrl.o
 .debug_pubnames
                  0x00220f        0x19b build/default/production/_ext/1472/telemetry.o
 .debug_pubnames
                  0x0023aa         0xaf build/default/production/_ext/1472/servoPrepare.o
 .debug_pubnames
                  0x002459        0x35e build/default/production/_ext/1472/flightplan-logo.o
 .debug_pubnames
                  0x0027b7         0x23 build/default/production/_ext/1472/mp_osd.o
 .debug_pubnames
                  0x0027da        0x18e build/default/production/_ext/1472/altitudeCntrl.o
 .debug_pubnames
                  0x002968         0xb4 build/default/production/_ext/1472/mode_switch.o
 .debug_pubnames
                  0x002a1c        0x108 build/default/production/_ext/1472/airspeedCntrl.o
 .debug_pubnames
                  0x002b24         0x31 build/default/production/_ext/1472/altitudeCntrlVariable.o
 .debug_pubnames
                  0x002b55         0x2c build/default/production/_ext/1472/euler_angles.o
 .debug_pubnames
                  0x002b81         0x32 build/default/production/_ext/1472/config.o
 .debug_pubnames
                  0x002bb3        0x159 build/default/production/_ext/1472/barometerCntrl.o
 .debug_pubnames
                  0x002d0c         0xba build/default/production/_ext/1472/sonarCntrl.o
 .debug_pubnames
                  0x002dc6         0x7f build/default/production/_ext/1077471063/estAirspeed.o

.debug_ranges
 *(.debug_ranges)

.debug_aranges    0x000000        0x6d0
 *(.debug_aranges)
 .debug_aranges
                  0x000000         0x18 build/default/production/_ext/1077471063/estWind.o
 .debug_aranges
                  0x000018         0x18 build/default/production/_ext/1077471063/estYawDrift.o
 .debug_aranges
                  0x000030         0x18 build/default/production/_ext/1077471063/gpsParseCommon.o
 .debug_aranges
                  0x000048         0x18 build/default/production/_ext/1077471063/gpsParseSTD.o
 .debug_aranges
                  0x000060         0x18 build/default/production/_ext/1077471063/mathlibNAV.o
 .debug_aranges
                  0x000078         0x18 build/default/production/_ext/1077471063/rmat.o
 .debug_aranges
                  0x000090         0x18 build/default/production/_ext/1077471063/libDCM.o
 .debug_aranges
                  0x0000a8         0x18 build/default/production/_ext/1077471063/deadReckoning.o
 .debug_aranges
                  0x0000c0         0x18 build/default/production/_ext/1077471063/fbcl.o
 .debug_aranges
                  0x0000d8         0x18 build/default/production/_ext/1077454706/background.o
 .debug_aranges
                  0x0000f0         0x18 build/default/production/_ext/1077454706/libUDB.o
 .debug_aranges
                  0x000108         0x18 build/default/production/_ext/1077454706/servoOut.o
 .debug_aranges
                  0x000120         0x18 build/default/production/_ext/1077454706/osd.o
 .debug_aranges
                  0x000138         0x18 build/default/production/_ext/1077454706/events.o
 .debug_aranges
                  0x000150         0x18 build/default/production/_ext/1077454706/analog2digital_udb5.o
 .debug_aranges
                  0x000168         0x18 build/default/production/_ext/1077454706/mpu6000.o
 .debug_aranges
                  0x000180         0x18 build/default/production/_ext/1077454706/traps_asm.o
 .debug_aranges
                  0x000198         0x18 build/default/production/_ext/1077454706/mcu.o
 .debug_aranges
                  0x0001b0         0x18 build/default/production/_ext/1077454706/eeprom_udb4.o
 .debug_aranges
                  0x0001c8         0x18 build/default/production/_ext/1077454706/barometer.o
 .debug_aranges
                  0x0001e0         0x18 build/default/production/_ext/1077454706/magnetometer.o
 .debug_aranges
                  0x0001f8         0x18 build/default/production/_ext/1077454706/radioIn.o
 .debug_aranges
                  0x000210         0x18 build/default/production/_ext/1077454706/serialIO.o
 .debug_aranges
                  0x000228         0x18 build/default/production/_ext/1077454706/I2C2.o
 .debug_aranges
                  0x000240         0x20 build/default/production/_ext/1077454706/read.o
 .debug_aranges
                  0x000260         0x18 build/default/production/_ext/1077454706/uart.o
 .debug_aranges
                  0x000278         0x20 build/default/production/_ext/1077454706/write.o
 .debug_aranges
                  0x000298         0x18 build/default/production/_ext/1077454706/analogs.o
 .debug_aranges
                  0x0002b0         0x18 build/default/production/_ext/1077454706/traps.o
 .debug_aranges
                  0x0002c8         0x18 build/default/production/_ext/1077454706/osd_bit.o
 .debug_aranges
                  0x0002e0         0x18 build/default/production/_ext/1077454706/mpu_spi.o
 .debug_aranges
                  0x0002f8         0x18 build/default/production/_ext/1077454706/heartbeat.o
 .debug_aranges
                  0x000310         0x18 build/default/production/_ext/679848855/madd.o
 .debug_aranges
                  0x000328         0x18 build/default/production/_ext/679848855/mmul.o
 .debug_aranges
                  0x000340         0x18 build/default/production/_ext/679848855/mscl.o
 .debug_aranges
                  0x000358         0x18 build/default/production/_ext/679848855/msub.o
 .debug_aranges
                  0x000370         0x18 build/default/production/_ext/679848855/mtrp.o
 .debug_aranges
                  0x000388         0x18 build/default/production/_ext/679848855/vadd.o
 .debug_aranges
                  0x0003a0         0x18 build/default/production/_ext/679848855/vcon.o
 .debug_aranges
                  0x0003b8         0x18 build/default/production/_ext/679848855/vcopy.o
 .debug_aranges
                  0x0003d0         0x18 build/default/production/_ext/679848855/vcor.o
 .debug_aranges
                  0x0003e8         0x18 build/default/production/_ext/679848855/vdot.o
 .debug_aranges
                  0x000400         0x18 build/default/production/_ext/679848855/vmax.o
 .debug_aranges
                  0x000418         0x18 build/default/production/_ext/679848855/vmin.o
 .debug_aranges
                  0x000430         0x18 build/default/production/_ext/679848855/vmul.o
 .debug_aranges
                  0x000448         0x18 build/default/production/_ext/679848855/vneg.o
 .debug_aranges
                  0x000460         0x18 build/default/production/_ext/679848855/vpow.o
 .debug_aranges
                  0x000478         0x18 build/default/production/_ext/679848855/vscl.o
 .debug_aranges
                  0x000490         0x18 build/default/production/_ext/679848855/vsub.o
 .debug_aranges
                  0x0004a8         0x18 build/default/production/_ext/679848855/vzpad.o
 .debug_aranges
                  0x0004c0         0x18 build/default/production/_ext/1472/behavior.o
 .debug_aranges
                  0x0004d8         0x18 build/default/production/_ext/1472/cameraCntrl.o
 .debug_aranges
                  0x0004f0         0x18 build/default/production/_ext/1472/main.o
 .debug_aranges
                  0x000508         0x18 build/default/production/_ext/1472/navigate.o
 .debug_aranges
                  0x000520         0x18 build/default/production/_ext/1472/pitchCntrl.o
 .debug_aranges
                  0x000538         0x18 build/default/production/_ext/1472/rollCntrl.o
 .debug_aranges
                  0x000550         0x18 build/default/production/_ext/1472/servoMix.o
 .debug_aranges
                  0x000568         0x18 build/default/production/_ext/1472/states.o
 .debug_aranges
                  0x000580         0x18 build/default/production/_ext/1472/yawCntrl.o
 .debug_aranges
                  0x000598         0x18 build/default/production/_ext/1472/telemetry.o
 .debug_aranges
                  0x0005b0         0x18 build/default/production/_ext/1472/servoPrepare.o
 .debug_aranges
                  0x0005c8         0x18 build/default/production/_ext/1472/flightplan-logo.o
 .debug_aranges
                  0x0005e0         0x18 build/default/production/_ext/1472/mp_osd.o
 .debug_aranges
                  0x0005f8         0x18 build/default/production/_ext/1472/altitudeCntrl.o
 .debug_aranges
                  0x000610         0x18 build/default/production/_ext/1472/mode_switch.o
 .debug_aranges
                  0x000628         0x18 build/default/production/_ext/1472/airspeedCntrl.o
 .debug_aranges
                  0x000640         0x18 build/default/production/_ext/1472/altitudeCntrlVariable.o
 .debug_aranges
                  0x000658         0x18 build/default/production/_ext/1472/euler_angles.o
 .debug_aranges
                  0x000670         0x18 build/default/production/_ext/1472/config.o
 .debug_aranges
                  0x000688         0x18 build/default/production/_ext/1472/barometerCntrl.o
 .debug_aranges
                  0x0006a0         0x18 build/default/production/_ext/1472/sonarCntrl.o
 .debug_aranges
                  0x0006b8         0x18 build/default/production/_ext/1077471063/estAirspeed.o

.ivt              0x000004         0xfc
                  0x000004          0x4 LONG 0x34c DEFINED (__ReservedTrap0)?ABSOLUTE (__ReservedTrap0):ABSOLUTE (__DefaultInterrupt)
                  0x000006          0x4 LONG 0xbf96 DEFINED (__OscillatorFail)?ABSOLUTE (__OscillatorFail):ABSOLUTE (__DefaultInterrupt)
                  0x000008          0x4 LONG 0xbfc2 DEFINED (__AddressError)?ABSOLUTE (__AddressError):ABSOLUTE (__DefaultInterrupt)
                  0x00000a          0x4 LONG 0xbfe8 DEFINED (__StackError)?ABSOLUTE (__StackError):ABSOLUTE (__DefaultInterrupt)
                  0x00000c          0x4 LONG 0xc00e DEFINED (__MathError)?ABSOLUTE (__MathError):ABSOLUTE (__DefaultInterrupt)
                  0x00000e          0x4 LONG 0xc034 DEFINED (__DMACError)?ABSOLUTE (__DMACError):ABSOLUTE (__DefaultInterrupt)
                  0x000010          0x4 LONG 0x34c DEFINED (__ReservedTrap6)?ABSOLUTE (__ReservedTrap6):ABSOLUTE (__DefaultInterrupt)
                  0x000012          0x4 LONG 0x34c DEFINED (__ReservedTrap7)?ABSOLUTE (__ReservedTrap7):ABSOLUTE (__DefaultInterrupt)
                  0x000014          0x4 LONG 0x34c DEFINED (__INT0Interrupt)?ABSOLUTE (__INT0Interrupt):ABSOLUTE (__DefaultInterrupt)
                  0x000016          0x4 LONG 0xace0 DEFINED (__IC1Interrupt)?ABSOLUTE (__IC1Interrupt):ABSOLUTE (__DefaultInterrupt)
                  0x000018          0x4 LONG 0x34c DEFINED (__OC1Interrupt)?ABSOLUTE (__OC1Interrupt):ABSOLUTE (__DefaultInterrupt)
                  0x00001a          0x4 LONG 0xba2a DEFINED (__T1Interrupt)?ABSOLUTE (__T1Interrupt):ABSOLUTE (__DefaultInterrupt)
                  0x00001c          0x4 LONG 0xb01e DEFINED (__DMA0Interrupt)?ABSOLUTE (__DMA0Interrupt):ABSOLUTE (__DefaultInterrupt)
                  0x00001e          0x4 LONG 0x34c DEFINED (__IC2Interrupt)?ABSOLUTE (__IC2Interrupt):ABSOLUTE (__DefaultInterrupt)
                  0x000020          0x4 LONG 0x34c DEFINED (__OC2Interrupt)?ABSOLUTE (__OC2Interrupt):ABSOLUTE (__DefaultInterrupt)
                  0x000022          0x4 LONG 0x34c DEFINED (__T2Interrupt)?ABSOLUTE (__T2Interrupt):ABSOLUTE (__DefaultInterrupt)
                  0x000024          0x4 LONG 0x34c DEFINED (__T3Interrupt)?ABSOLUTE (__T3Interrupt):ABSOLUTE (__DefaultInterrupt)
                  0x000026          0x4 LONG 0x34c DEFINED (__SPI1ErrInterrupt)?ABSOLUTE (__SPI1ErrInterrupt):ABSOLUTE (__DefaultInterrupt)
                  0x000028          0x4 LONG 0x34c DEFINED (__SPI1Interrupt)?ABSOLUTE (__SPI1Interrupt):ABSOLUTE (__DefaultInterrupt)
                  0x00002a          0x4 LONG 0xa1e6 DEFINED (__U1RXInterrupt)?ABSOLUTE (__U1RXInterrupt):ABSOLUTE (__DefaultInterrupt)
                  0x00002c          0x4 LONG 0xa1ac DEFINED (__U1TXInterrupt)?ABSOLUTE (__U1TXInterrupt):ABSOLUTE (__DefaultInterrupt)
                  0x00002e          0x4 LONG 0x34c DEFINED (__ADC1Interrupt)?ABSOLUTE (__ADC1Interrupt):ABSOLUTE (__DefaultInterrupt)
                  0x000030          0x4 LONG 0x34c DEFINED (__DMA1Interrupt)?ABSOLUTE (__DMA1Interrupt):ABSOLUTE (__DefaultInterrupt)
                  0x000032          0x4 LONG 0x34c DEFINED (__Interrupt15)?ABSOLUTE (__Interrupt15):ABSOLUTE (__DefaultInterrupt)
                  0x000034          0x4 LONG 0x34c DEFINED (__SI2C1Interrupt)?ABSOLUTE (__SI2C1Interrupt):ABSOLUTE (__DefaultInterrupt)
                  0x000036          0x4 LONG 0x34c DEFINED (__MI2C1Interrupt)?ABSOLUTE (__MI2C1Interrupt):ABSOLUTE (__DefaultInterrupt)
                  0x000038          0x4 LONG 0x34c DEFINED (__Interrupt18)?ABSOLUTE (__Interrupt18):ABSOLUTE (__DefaultInterrupt)
                  0x00003a          0x4 LONG 0x34c DEFINED (__CNInterrupt)?ABSOLUTE (__CNInterrupt):ABSOLUTE (__DefaultInterrupt)
                  0x00003c          0x4 LONG 0x34c DEFINED (__INT1Interrupt)?ABSOLUTE (__INT1Interrupt):ABSOLUTE (__DefaultInterrupt)
                  0x00003e          0x4 LONG 0x34c DEFINED (__ADC2Interrupt)?ABSOLUTE (__ADC2Interrupt):ABSOLUTE (__DefaultInterrupt)
                  0x000040          0x4 LONG 0x34c DEFINED (__IC7Interrupt)?ABSOLUTE (__IC7Interrupt):ABSOLUTE (__DefaultInterrupt)
                  0x000042          0x4 LONG 0xac9e DEFINED (__IC8Interrupt)?ABSOLUTE (__IC8Interrupt):ABSOLUTE (__DefaultInterrupt)
                  0x000044          0x4 LONG 0x34c DEFINED (__DMA2Interrupt)?ABSOLUTE (__DMA2Interrupt):ABSOLUTE (__DefaultInterrupt)
                  0x000046          0x4 LONG 0x34c DEFINED (__OC3Interrupt)?ABSOLUTE (__OC3Interrupt):ABSOLUTE (__DefaultInterrupt)
                  0x000048          0x4 LONG 0x34c DEFINED (__OC4Interrupt)?ABSOLUTE (__OC4Interrupt):ABSOLUTE (__DefaultInterrupt)
                  0x00004a          0x4 LONG 0xbb68 DEFINED (__T4Interrupt)?ABSOLUTE (__T4Interrupt):ABSOLUTE (__DefaultInterrupt)
                  0x00004c          0x4 LONG 0xba54 DEFINED (__T5Interrupt)?ABSOLUTE (__T5Interrupt):ABSOLUTE (__DefaultInterrupt)
                  0x00004e          0x4 LONG 0x34c DEFINED (__INT2Interrupt)?ABSOLUTE (__INT2Interrupt):ABSOLUTE (__DefaultInterrupt)
                  0x000050          0x4 LONG 0xa322 DEFINED (__U2RXInterrupt)?ABSOLUTE (__U2RXInterrupt):ABSOLUTE (__DefaultInterrupt)
                  0x000052          0x4 LONG 0xa2e8 DEFINED (__U2TXInterrupt)?ABSOLUTE (__U2TXInterrupt):ABSOLUTE (__DefaultInterrupt)
                  0x000054          0x4 LONG 0x34c DEFINED (__SPI2ErrInterrupt)?ABSOLUTE (__SPI2ErrInterrupt):ABSOLUTE (__DefaultInterrupt)
                  0x000056          0x4 LONG 0xb56a DEFINED (__SPI2Interrupt)?ABSOLUTE (__SPI2Interrupt):ABSOLUTE (__DefaultInterrupt)
                  0x000058          0x4 LONG 0x34c DEFINED (__C1RxRdyInterrupt)?ABSOLUTE (__C1RxRdyInterrupt):ABSOLUTE (__DefaultInterrupt)
                  0x00005a          0x4 LONG 0xaee6 DEFINED (__C1Interrupt)?ABSOLUTE (__C1Interrupt):ABSOLUTE (__DefaultInterrupt)
                  0x00005c          0x4 LONG 0x34c DEFINED (__DMA3Interrupt)?ABSOLUTE (__DMA3Interrupt):ABSOLUTE (__DefaultInterrupt)
                  0x00005e          0x4 LONG 0x34c DEFINED (__IC3Interrupt)?ABSOLUTE (__IC3Interrupt):ABSOLUTE (__DefaultInterrupt)
                  0x000060          0x4 LONG 0x34c DEFINED (__IC4Interrupt)?ABSOLUTE (__IC4Interrupt):ABSOLUTE (__DefaultInterrupt)
                  0x000062          0x4 LONG 0x34c DEFINED (__IC5Interrupt)?ABSOLUTE (__IC5Interrupt):ABSOLUTE (__DefaultInterrupt)
                  0x000064          0x4 LONG 0x34c DEFINED (__IC6Interrupt)?ABSOLUTE (__IC6Interrupt):ABSOLUTE (__DefaultInterrupt)
                  0x000066          0x4 LONG 0x34c DEFINED (__OC5Interrupt)?ABSOLUTE (__OC5Interrupt):ABSOLUTE (__DefaultInterrupt)
                  0x000068          0x4 LONG 0x34c DEFINED (__OC6Interrupt)?ABSOLUTE (__OC6Interrupt):ABSOLUTE (__DefaultInterrupt)
                  0x00006a          0x4 LONG 0x34c DEFINED (__OC7Interrupt)?ABSOLUTE (__OC7Interrupt):ABSOLUTE (__DefaultInterrupt)
                  0x00006c          0x4 LONG 0x34c DEFINED (__OC8Interrupt)?ABSOLUTE (__OC8Interrupt):ABSOLUTE (__DefaultInterrupt)
                  0x00006e          0x4 LONG 0x34c DEFINED (__Interrupt45)?ABSOLUTE (__Interrupt45):ABSOLUTE (__DefaultInterrupt)
                  0x000070          0x4 LONG 0x34c DEFINED (__DMA4Interrupt)?ABSOLUTE (__DMA4Interrupt):ABSOLUTE (__DefaultInterrupt)
                  0x000072          0x4 LONG 0xba72 DEFINED (__T6Interrupt)?ABSOLUTE (__T6Interrupt):ABSOLUTE (__DefaultInterrupt)
                  0x000074          0x4 LONG 0xbab0 DEFINED (__T7Interrupt)?ABSOLUTE (__T7Interrupt):ABSOLUTE (__DefaultInterrupt)
                  0x000076          0x4 LONG 0x34c DEFINED (__SI2C2Interrupt)?ABSOLUTE (__SI2C2Interrupt):ABSOLUTE (__DefaultInterrupt)
                  0x000078          0x4 LONG 0x7b58 DEFINED (__MI2C2Interrupt)?ABSOLUTE (__MI2C2Interrupt):ABSOLUTE (__DefaultInterrupt)
                  0x00007a          0x4 LONG 0x34c DEFINED (__T8Interrupt)?ABSOLUTE (__T8Interrupt):ABSOLUTE (__DefaultInterrupt)
                  0x00007c          0x4 LONG 0x34c DEFINED (__T9Interrupt)?ABSOLUTE (__T9Interrupt):ABSOLUTE (__DefaultInterrupt)
                  0x00007e          0x4 LONG 0xbe40 DEFINED (__INT3Interrupt)?ABSOLUTE (__INT3Interrupt):ABSOLUTE (__DefaultInterrupt)
                  0x000080          0x4 LONG 0x34c DEFINED (__INT4Interrupt)?ABSOLUTE (__INT4Interrupt):ABSOLUTE (__DefaultInterrupt)
                  0x000082          0x4 LONG 0x34c DEFINED (__C2RxRdyInterrupt)?ABSOLUTE (__C2RxRdyInterrupt):ABSOLUTE (__DefaultInterrupt)
                  0x000084          0x4 LONG 0xae7c DEFINED (__C2Interrupt)?ABSOLUTE (__C2Interrupt):ABSOLUTE (__DefaultInterrupt)
                  0x000086          0x4 LONG 0x34c DEFINED (__Interrupt57)?ABSOLUTE (__Interrupt57):ABSOLUTE (__DefaultInterrupt)
                  0x000088          0x4 LONG 0x34c DEFINED (__Interrupt58)?ABSOLUTE (__Interrupt58):ABSOLUTE (__DefaultInterrupt)
                  0x00008a          0x4 LONG 0x34c DEFINED (__DCIErrInterrupt)?ABSOLUTE (__DCIErrInterrupt):ABSOLUTE (__DefaultInterrupt)
                  0x00008c          0x4 LONG 0x34c DEFINED (__DCIInterrupt)?ABSOLUTE (__DCIInterrupt):ABSOLUTE (__DefaultInterrupt)
                  0x00008e          0x4 LONG 0x34c DEFINED (__DMA5Interrupt)?ABSOLUTE (__DMA5Interrupt):ABSOLUTE (__DefaultInterrupt)
                  0x000090          0x4 LONG 0x34c DEFINED (__Interrupt62)?ABSOLUTE (__Interrupt62):ABSOLUTE (__DefaultInterrupt)
                  0x000092          0x4 LONG 0x34c DEFINED (__Interrupt63)?ABSOLUTE (__Interrupt63):ABSOLUTE (__DefaultInterrupt)
                  0x000094          0x4 LONG 0x34c DEFINED (__Interrupt64)?ABSOLUTE (__Interrupt64):ABSOLUTE (__DefaultInterrupt)
                  0x000096          0x4 LONG 0x34c DEFINED (__U1ErrInterrupt)?ABSOLUTE (__U1ErrInterrupt):ABSOLUTE (__DefaultInterrupt)
                  0x000098          0x4 LONG 0x34c DEFINED (__U2ErrInterrupt)?ABSOLUTE (__U2ErrInterrupt):ABSOLUTE (__DefaultInterrupt)
                  0x00009a          0x4 LONG 0x34c DEFINED (__Interrupt67)?ABSOLUTE (__Interrupt67):ABSOLUTE (__DefaultInterrupt)
                  0x00009c          0x4 LONG 0x34c DEFINED (__DMA6Interrupt)?ABSOLUTE (__DMA6Interrupt):ABSOLUTE (__DefaultInterrupt)
                  0x00009e          0x4 LONG 0x34c DEFINED (__DMA7Interrupt)?ABSOLUTE (__DMA7Interrupt):ABSOLUTE (__DefaultInterrupt)
                  0x0000a0          0x4 LONG 0x34c DEFINED (__C1TxReqInterrupt)?ABSOLUTE (__C1TxReqInterrupt):ABSOLUTE (__DefaultInterrupt)
                  0x0000a2          0x4 LONG 0x34c DEFINED (__C2TxReqInterrupt)?ABSOLUTE (__C2TxReqInterrupt):ABSOLUTE (__DefaultInterrupt)
                  0x0000a4          0x4 LONG 0x34c DEFINED (__Interrupt72)?ABSOLUTE (__Interrupt72):ABSOLUTE (__DefaultInterrupt)
                  0x0000a6          0x4 LONG 0x34c DEFINED (__Interrupt73)?ABSOLUTE (__Interrupt73):ABSOLUTE (__DefaultInterrupt)
                  0x0000a8          0x4 LONG 0x34c DEFINED (__Interrupt74)?ABSOLUTE (__Interrupt74):ABSOLUTE (__DefaultInterrupt)
                  0x0000aa          0x4 LONG 0x34c DEFINED (__Interrupt75)?ABSOLUTE (__Interrupt75):ABSOLUTE (__DefaultInterrupt)
                  0x0000ac          0x4 LONG 0x34c DEFINED (__Interrupt76)?ABSOLUTE (__Interrupt76):ABSOLUTE (__DefaultInterrupt)
                  0x0000ae          0x4 LONG 0x34c DEFINED (__Interrupt77)?ABSOLUTE (__Interrupt77):ABSOLUTE (__DefaultInterrupt)
                  0x0000b0          0x4 LONG 0x34c DEFINED (__Interrupt78)?ABSOLUTE (__Interrupt78):ABSOLUTE (__DefaultInterrupt)
                  0x0000b2          0x4 LONG 0x34c DEFINED (__Interrupt79)?ABSOLUTE (__Interrupt79):ABSOLUTE (__DefaultInterrupt)
                  0x0000b4          0x4 LONG 0x34c DEFINED (__Interrupt80)?ABSOLUTE (__Interrupt80):ABSOLUTE (__DefaultInterrupt)
                  0x0000b6          0x4 LONG 0x34c DEFINED (__Interrupt81)?ABSOLUTE (__Interrupt81):ABSOLUTE (__DefaultInterrupt)
                  0x0000b8          0x4 LONG 0x34c DEFINED (__Interrupt82)?ABSOLUTE (__Interrupt82):ABSOLUTE (__DefaultInterrupt)
                  0x0000ba          0x4 LONG 0x34c DEFINED (__Interrupt83)?ABSOLUTE (__Interrupt83):ABSOLUTE (__DefaultInterrupt)
                  0x0000bc          0x4 LONG 0x34c DEFINED (__Interrupt84)?ABSOLUTE (__Interrupt84):ABSOLUTE (__DefaultInterrupt)
                  0x0000be          0x4 LONG 0x34c DEFINED (__Interrupt85)?ABSOLUTE (__Interrupt85):ABSOLUTE (__DefaultInterrupt)
                  0x0000c0          0x4 LONG 0x34c DEFINED (__Interrupt86)?ABSOLUTE (__Interrupt86):ABSOLUTE (__DefaultInterrupt)
                  0x0000c2          0x4 LONG 0x34c DEFINED (__Interrupt87)?ABSOLUTE (__Interrupt87):ABSOLUTE (__DefaultInterrupt)
                  0x0000c4          0x4 LONG 0x34c DEFINED (__Interrupt88)?ABSOLUTE (__Interrupt88):ABSOLUTE (__DefaultInterrupt)
                  0x0000c6          0x4 LONG 0x34c DEFINED (__Interrupt89)?ABSOLUTE (__Interrupt89):ABSOLUTE (__DefaultInterrupt)
                  0x0000c8          0x4 LONG 0x34c DEFINED (__Interrupt90)?ABSOLUTE (__Interrupt90):ABSOLUTE (__DefaultInterrupt)
                  0x0000ca          0x4 LONG 0x34c DEFINED (__Interrupt91)?ABSOLUTE (__Interrupt91):ABSOLUTE (__DefaultInterrupt)
                  0x0000cc          0x4 LONG 0x34c DEFINED (__Interrupt92)?ABSOLUTE (__Interrupt92):ABSOLUTE (__DefaultInterrupt)
                  0x0000ce          0x4 LONG 0x34c DEFINED (__Interrupt93)?ABSOLUTE (__Interrupt93):ABSOLUTE (__DefaultInterrupt)
                  0x0000d0          0x4 LONG 0x34c DEFINED (__Interrupt94)?ABSOLUTE (__Interrupt94):ABSOLUTE (__DefaultInterrupt)
                  0x0000d2          0x4 LONG 0x34c DEFINED (__Interrupt95)?ABSOLUTE (__Interrupt95):ABSOLUTE (__DefaultInterrupt)
                  0x0000d4          0x4 LONG 0x34c DEFINED (__Interrupt96)?ABSOLUTE (__Interrupt96):ABSOLUTE (__DefaultInterrupt)
                  0x0000d6          0x4 LONG 0x34c DEFINED (__Interrupt97)?ABSOLUTE (__Interrupt97):ABSOLUTE (__DefaultInterrupt)
                  0x0000d8          0x4 LONG 0x34c DEFINED (__Interrupt98)?ABSOLUTE (__Interrupt98):ABSOLUTE (__DefaultInterrupt)
                  0x0000da          0x4 LONG 0x34c DEFINED (__Interrupt99)?ABSOLUTE (__Interrupt99):ABSOLUTE (__DefaultInterrupt)
                  0x0000dc          0x4 LONG 0x34c DEFINED (__Interrupt100)?ABSOLUTE (__Interrupt100):ABSOLUTE (__DefaultInterrupt)
                  0x0000de          0x4 LONG 0x34c DEFINED (__Interrupt101)?ABSOLUTE (__Interrupt101):ABSOLUTE (__DefaultInterrupt)
                  0x0000e0          0x4 LONG 0x34c DEFINED (__Interrupt102)?ABSOLUTE (__Interrupt102):ABSOLUTE (__DefaultInterrupt)
                  0x0000e2          0x4 LONG 0x34c DEFINED (__Interrupt103)?ABSOLUTE (__Interrupt103):ABSOLUTE (__DefaultInterrupt)
                  0x0000e4          0x4 LONG 0x34c DEFINED (__Interrupt104)?ABSOLUTE (__Interrupt104):ABSOLUTE (__DefaultInterrupt)
                  0x0000e6          0x4 LONG 0x34c DEFINED (__Interrupt105)?ABSOLUTE (__Interrupt105):ABSOLUTE (__DefaultInterrupt)
                  0x0000e8          0x4 LONG 0x34c DEFINED (__Interrupt106)?ABSOLUTE (__Interrupt106):ABSOLUTE (__DefaultInterrupt)
                  0x0000ea          0x4 LONG 0x34c DEFINED (__Interrupt107)?ABSOLUTE (__Interrupt107):ABSOLUTE (__DefaultInterrupt)
                  0x0000ec          0x4 LONG 0x34c DEFINED (__Interrupt108)?ABSOLUTE (__Interrupt108):ABSOLUTE (__DefaultInterrupt)
                  0x0000ee          0x4 LONG 0x34c DEFINED (__Interrupt109)?ABSOLUTE (__Interrupt109):ABSOLUTE (__DefaultInterrupt)
                  0x0000f0          0x4 LONG 0x34c DEFINED (__Interrupt110)?ABSOLUTE (__Interrupt110):ABSOLUTE (__DefaultInterrupt)
                  0x0000f2          0x4 LONG 0x34c DEFINED (__Interrupt111)?ABSOLUTE (__Interrupt111):ABSOLUTE (__DefaultInterrupt)
                  0x0000f4          0x4 LONG 0x34c DEFINED (__Interrupt112)?ABSOLUTE (__Interrupt112):ABSOLUTE (__DefaultInterrupt)
                  0x0000f6          0x4 LONG 0x34c DEFINED (__Interrupt113)?ABSOLUTE (__Interrupt113):ABSOLUTE (__DefaultInterrupt)
                  0x0000f8          0x4 LONG 0x34c DEFINED (__Interrupt114)?ABSOLUTE (__Interrupt114):ABSOLUTE (__DefaultInterrupt)
                  0x0000fa          0x4 LONG 0x34c DEFINED (__Interrupt115)?ABSOLUTE (__Interrupt115):ABSOLUTE (__DefaultInterrupt)
                  0x0000fc          0x4 LONG 0x34c DEFINED (__Interrupt116)?ABSOLUTE (__Interrupt116):ABSOLUTE (__DefaultInterrupt)
                  0x0000fe          0x4 LONG 0x34c DEFINED (__Interrupt117)?ABSOLUTE (__Interrupt117):ABSOLUTE (__DefaultInterrupt)

.aivt             0x000104         0xfc
                  0x000104          0x4 LONG 0x34c DEFINED (__AltReservedTrap0)?ABSOLUTE (__AltReservedTrap0):DEFINED (__ReservedTrap0)?ABSOLUTE (__ReservedTrap0):ABSOLUTE (__DefaultInterrupt)
                  0x000106          0x4 LONG 0xbf96 DEFINED (__AltOscillatorFail)?ABSOLUTE (__AltOscillatorFail):DEFINED (__OscillatorFail)?ABSOLUTE (__OscillatorFail):ABSOLUTE (__DefaultInterrupt)
                  0x000108          0x4 LONG 0xbfc2 DEFINED (__AltAddressError)?ABSOLUTE (__AltAddressError):DEFINED (__AddressError)?ABSOLUTE (__AddressError):ABSOLUTE (__DefaultInterrupt)
                  0x00010a          0x4 LONG 0xbfe8 DEFINED (__AltStackError)?ABSOLUTE (__AltStackError):DEFINED (__StackError)?ABSOLUTE (__StackError):ABSOLUTE (__DefaultInterrupt)
                  0x00010c          0x4 LONG 0xc00e DEFINED (__AltMathError)?ABSOLUTE (__AltMathError):DEFINED (__MathError)?ABSOLUTE (__MathError):ABSOLUTE (__DefaultInterrupt)
                  0x00010e          0x4 LONG 0xc034 DEFINED (__AltDMACError)?ABSOLUTE (__AltDMACError):DEFINED (__DMACError)?ABSOLUTE (__DMACError):ABSOLUTE (__DefaultInterrupt)
                  0x000110          0x4 LONG 0x34c DEFINED (__AltReservedTrap6)?ABSOLUTE (__AltReservedTrap6):DEFINED (__ReservedTrap6)?ABSOLUTE (__ReservedTrap6):ABSOLUTE (__DefaultInterrupt)
                  0x000112          0x4 LONG 0x34c DEFINED (__AltReservedTrap7)?ABSOLUTE (__AltReservedTrap7):DEFINED (__ReservedTrap7)?ABSOLUTE (__ReservedTrap7):ABSOLUTE (__DefaultInterrupt)
                  0x000114          0x4 LONG 0x34c DEFINED (__AltINT0Interrupt)?ABSOLUTE (__AltINT0Interrupt):DEFINED (__INT0Interrupt)?ABSOLUTE (__INT0Interrupt):ABSOLUTE (__DefaultInterrupt)
                  0x000116          0x4 LONG 0xace0 DEFINED (__AltIC1Interrupt)?ABSOLUTE (__AltIC1Interrupt):DEFINED (__IC1Interrupt)?ABSOLUTE (__IC1Interrupt):ABSOLUTE (__DefaultInterrupt)
                  0x000118          0x4 LONG 0x34c DEFINED (__AltOC1Interrupt)?ABSOLUTE (__AltOC1Interrupt):DEFINED (__OC1Interrupt)?ABSOLUTE (__OC1Interrupt):ABSOLUTE (__DefaultInterrupt)
                  0x00011a          0x4 LONG 0xba2a DEFINED (__AltT1Interrupt)?ABSOLUTE (__AltT1Interrupt):DEFINED (__T1Interrupt)?ABSOLUTE (__T1Interrupt):ABSOLUTE (__DefaultInterrupt)
                  0x00011c          0x4 LONG 0xb01e DEFINED (__AltDMA0Interrupt)?ABSOLUTE (__AltDMA0Interrupt):DEFINED (__DMA0Interrupt)?ABSOLUTE (__DMA0Interrupt):ABSOLUTE (__DefaultInterrupt)
                  0x00011e          0x4 LONG 0x34c DEFINED (__AltIC2Interrupt)?ABSOLUTE (__AltIC2Interrupt):DEFINED (__IC2Interrupt)?ABSOLUTE (__IC2Interrupt):ABSOLUTE (__DefaultInterrupt)
                  0x000120          0x4 LONG 0x34c DEFINED (__AltOC2Interrupt)?ABSOLUTE (__AltOC2Interrupt):DEFINED (__OC2Interrupt)?ABSOLUTE (__OC2Interrupt):ABSOLUTE (__DefaultInterrupt)
                  0x000122          0x4 LONG 0x34c DEFINED (__AltT2Interrupt)?ABSOLUTE (__AltT2Interrupt):DEFINED (__T2Interrupt)?ABSOLUTE (__T2Interrupt):ABSOLUTE (__DefaultInterrupt)
                  0x000124          0x4 LONG 0x34c DEFINED (__AltT3Interrupt)?ABSOLUTE (__AltT3Interrupt):DEFINED (__T3Interrupt)?ABSOLUTE (__T3Interrupt):ABSOLUTE (__DefaultInterrupt)
                  0x000126          0x4 LONG 0x34c DEFINED (__AltSPI1ErrInterrupt)?ABSOLUTE (__AltSPI1ErrInterrupt):DEFINED (__SPI1ErrInterrupt)?ABSOLUTE (__SPI1ErrInterrupt):ABSOLUTE (__DefaultInterrupt)
                  0x000128          0x4 LONG 0x34c DEFINED (__AltSPI1Interrupt)?ABSOLUTE (__AltSPI1Interrupt):DEFINED (__SPI1Interrupt)?ABSOLUTE (__SPI1Interrupt):ABSOLUTE (__DefaultInterrupt)
                  0x00012a          0x4 LONG 0xa1e6 DEFINED (__AltU1RXInterrupt)?ABSOLUTE (__AltU1RXInterrupt):DEFINED (__U1RXInterrupt)?ABSOLUTE (__U1RXInterrupt):ABSOLUTE (__DefaultInterrupt)
                  0x00012c          0x4 LONG 0xa1ac DEFINED (__AltU1TXInterrupt)?ABSOLUTE (__AltU1TXInterrupt):DEFINED (__U1TXInterrupt)?ABSOLUTE (__U1TXInterrupt):ABSOLUTE (__DefaultInterrupt)
                  0x00012e          0x4 LONG 0x34c DEFINED (__AltADC1Interrupt)?ABSOLUTE (__AltADC1Interrupt):DEFINED (__ADC1Interrupt)?ABSOLUTE (__ADC1Interrupt):ABSOLUTE (__DefaultInterrupt)
                  0x000130          0x4 LONG 0x34c DEFINED (__AltDMA1Interrupt)?ABSOLUTE (__AltDMA1Interrupt):DEFINED (__DMA1Interrupt)?ABSOLUTE (__DMA1Interrupt):ABSOLUTE (__DefaultInterrupt)
                  0x000132          0x4 LONG 0x34c DEFINED (__AltInterrupt15)?ABSOLUTE (__AltInterrupt15):DEFINED (__Interrupt15)?ABSOLUTE (__Interrupt15):ABSOLUTE (__DefaultInterrupt)
                  0x000134          0x4 LONG 0x34c DEFINED (__AltSI2C1Interrupt)?ABSOLUTE (__AltSI2C1Interrupt):DEFINED (__SI2C1Interrupt)?ABSOLUTE (__SI2C1Interrupt):ABSOLUTE (__DefaultInterrupt)
                  0x000136          0x4 LONG 0x34c DEFINED (__AltMI2C1Interrupt)?ABSOLUTE (__AltMI2C1Interrupt):DEFINED (__MI2C1Interrupt)?ABSOLUTE (__MI2C1Interrupt):ABSOLUTE (__DefaultInterrupt)
                  0x000138          0x4 LONG 0x34c DEFINED (__AltInterrupt18)?ABSOLUTE (__AltInterrupt18):DEFINED (__Interrupt18)?ABSOLUTE (__Interrupt18):ABSOLUTE (__DefaultInterrupt)
                  0x00013a          0x4 LONG 0x34c DEFINED (__AltCNInterrupt)?ABSOLUTE (__AltCNInterrupt):DEFINED (__CNInterrupt)?ABSOLUTE (__CNInterrupt):ABSOLUTE (__DefaultInterrupt)
                  0x00013c          0x4 LONG 0x34c DEFINED (__AltINT1Interrupt)?ABSOLUTE (__AltINT1Interrupt):DEFINED (__INT1Interrupt)?ABSOLUTE (__INT1Interrupt):ABSOLUTE (__DefaultInterrupt)
                  0x00013e          0x4 LONG 0x34c DEFINED (__AltADC2Interrupt)?ABSOLUTE (__AltADC2Interrupt):DEFINED (__ADC2Interrupt)?ABSOLUTE (__ADC2Interrupt):ABSOLUTE (__DefaultInterrupt)
                  0x000140          0x4 LONG 0x34c DEFINED (__AltIC7Interrupt)?ABSOLUTE (__AltIC7Interrupt):DEFINED (__IC7Interrupt)?ABSOLUTE (__IC7Interrupt):ABSOLUTE (__DefaultInterrupt)
                  0x000142          0x4 LONG 0xac9e DEFINED (__AltIC8Interrupt)?ABSOLUTE (__AltIC8Interrupt):DEFINED (__IC8Interrupt)?ABSOLUTE (__IC8Interrupt):ABSOLUTE (__DefaultInterrupt)
                  0x000144          0x4 LONG 0x34c DEFINED (__AltDMA2Interrupt)?ABSOLUTE (__AltDMA2Interrupt):DEFINED (__DMA2Interrupt)?ABSOLUTE (__DMA2Interrupt):ABSOLUTE (__DefaultInterrupt)
                  0x000146          0x4 LONG 0x34c DEFINED (__AltOC3Interrupt)?ABSOLUTE (__AltOC3Interrupt):DEFINED (__OC3Interrupt)?ABSOLUTE (__OC3Interrupt):ABSOLUTE (__DefaultInterrupt)
                  0x000148          0x4 LONG 0x34c DEFINED (__AltOC4Interrupt)?ABSOLUTE (__AltOC4Interrupt):DEFINED (__OC4Interrupt)?ABSOLUTE (__OC4Interrupt):ABSOLUTE (__DefaultInterrupt)
                  0x00014a          0x4 LONG 0xbb68 DEFINED (__AltT4Interrupt)?ABSOLUTE (__AltT4Interrupt):DEFINED (__T4Interrupt)?ABSOLUTE (__T4Interrupt):ABSOLUTE (__DefaultInterrupt)
                  0x00014c          0x4 LONG 0xba54 DEFINED (__AltT5Interrupt)?ABSOLUTE (__AltT5Interrupt):DEFINED (__T5Interrupt)?ABSOLUTE (__T5Interrupt):ABSOLUTE (__DefaultInterrupt)
                  0x00014e          0x4 LONG 0x34c DEFINED (__AltINT2Interrupt)?ABSOLUTE (__AltINT2Interrupt):DEFINED (__INT2Interrupt)?ABSOLUTE (__INT2Interrupt):ABSOLUTE (__DefaultInterrupt)
                  0x000150          0x4 LONG 0xa322 DEFINED (__AltU2RXInterrupt)?ABSOLUTE (__AltU2RXInterrupt):DEFINED (__U2RXInterrupt)?ABSOLUTE (__U2RXInterrupt):ABSOLUTE (__DefaultInterrupt)
                  0x000152          0x4 LONG 0xa2e8 DEFINED (__AltU2TXInterrupt)?ABSOLUTE (__AltU2TXInterrupt):DEFINED (__U2TXInterrupt)?ABSOLUTE (__U2TXInterrupt):ABSOLUTE (__DefaultInterrupt)
                  0x000154          0x4 LONG 0x34c DEFINED (__AltSPI2ErrInterrupt)?ABSOLUTE (__AltSPI2ErrInterrupt):DEFINED (__SPI2ErrInterrupt)?ABSOLUTE (__SPI2ErrInterrupt):ABSOLUTE (__DefaultInterrupt)
                  0x000156          0x4 LONG 0xb56a DEFINED (__AltSPI2Interrupt)?ABSOLUTE (__AltSPI2Interrupt):DEFINED (__SPI2Interrupt)?ABSOLUTE (__SPI2Interrupt):ABSOLUTE (__DefaultInterrupt)
                  0x000158          0x4 LONG 0x34c DEFINED (__AltC1RxRdyInterrupt)?ABSOLUTE (__AltC1RxRdyInterrupt):DEFINED (__C1RxRdyInterrupt)?ABSOLUTE (__C1RxRdyInterrupt):ABSOLUTE (__DefaultInterrupt)
                  0x00015a          0x4 LONG 0xaee6 DEFINED (__AltC1Interrupt)?ABSOLUTE (__AltC1Interrupt):DEFINED (__C1Interrupt)?ABSOLUTE (__C1Interrupt):ABSOLUTE (__DefaultInterrupt)
                  0x00015c          0x4 LONG 0x34c DEFINED (__AltDMA3Interrupt)?ABSOLUTE (__AltDMA3Interrupt):DEFINED (__DMA3Interrupt)?ABSOLUTE (__DMA3Interrupt):ABSOLUTE (__DefaultInterrupt)
                  0x00015e          0x4 LONG 0x34c DEFINED (__AltIC3Interrupt)?ABSOLUTE (__AltIC3Interrupt):DEFINED (__IC3Interrupt)?ABSOLUTE (__IC3Interrupt):ABSOLUTE (__DefaultInterrupt)
                  0x000160          0x4 LONG 0x34c DEFINED (__AltIC4Interrupt)?ABSOLUTE (__AltIC4Interrupt):DEFINED (__IC4Interrupt)?ABSOLUTE (__IC4Interrupt):ABSOLUTE (__DefaultInterrupt)
                  0x000162          0x4 LONG 0x34c DEFINED (__AltIC5Interrupt)?ABSOLUTE (__AltIC5Interrupt):DEFINED (__IC5Interrupt)?ABSOLUTE (__IC5Interrupt):ABSOLUTE (__DefaultInterrupt)
                  0x000164          0x4 LONG 0x34c DEFINED (__AltIC6Interrupt)?ABSOLUTE (__AltIC6Interrupt):DEFINED (__IC6Interrupt)?ABSOLUTE (__IC6Interrupt):ABSOLUTE (__DefaultInterrupt)
                  0x000166          0x4 LONG 0x34c DEFINED (__AltOC5Interrupt)?ABSOLUTE (__AltOC5Interrupt):DEFINED (__OC5Interrupt)?ABSOLUTE (__OC5Interrupt):ABSOLUTE (__DefaultInterrupt)
                  0x000168          0x4 LONG 0x34c DEFINED (__AltOC6Interrupt)?ABSOLUTE (__AltOC6Interrupt):DEFINED (__OC6Interrupt)?ABSOLUTE (__OC6Interrupt):ABSOLUTE (__DefaultInterrupt)
                  0x00016a          0x4 LONG 0x34c DEFINED (__AltOC7Interrupt)?ABSOLUTE (__AltOC7Interrupt):DEFINED (__OC7Interrupt)?ABSOLUTE (__OC7Interrupt):ABSOLUTE (__DefaultInterrupt)
                  0x00016c          0x4 LONG 0x34c DEFINED (__AltOC8Interrupt)?ABSOLUTE (__AltOC8Interrupt):DEFINED (__OC8Interrupt)?ABSOLUTE (__OC8Interrupt):ABSOLUTE (__DefaultInterrupt)
                  0x00016e          0x4 LONG 0x34c DEFINED (__AltInterrupt45)?ABSOLUTE (__AltInterrupt45):DEFINED (__Interrupt45)?ABSOLUTE (__Interrupt45):ABSOLUTE (__DefaultInterrupt)
                  0x000170          0x4 LONG 0x34c DEFINED (__AltDMA4Interrupt)?ABSOLUTE (__AltDMA4Interrupt):DEFINED (__DMA4Interrupt)?ABSOLUTE (__DMA4Interrupt):ABSOLUTE (__DefaultInterrupt)
                  0x000172          0x4 LONG 0xba72 DEFINED (__AltT6Interrupt)?ABSOLUTE (__AltT6Interrupt):DEFINED (__T6Interrupt)?ABSOLUTE (__T6Interrupt):ABSOLUTE (__DefaultInterrupt)
                  0x000174          0x4 LONG 0xbab0 DEFINED (__AltT7Interrupt)?ABSOLUTE (__AltT7Interrupt):DEFINED (__T7Interrupt)?ABSOLUTE (__T7Interrupt):ABSOLUTE (__DefaultInterrupt)
                  0x000176          0x4 LONG 0x34c DEFINED (__AltSI2C2Interrupt)?ABSOLUTE (__AltSI2C2Interrupt):DEFINED (__SI2C2Interrupt)?ABSOLUTE (__SI2C2Interrupt):ABSOLUTE (__DefaultInterrupt)
                  0x000178          0x4 LONG 0x7b58 DEFINED (__AltMI2C2Interrupt)?ABSOLUTE (__AltMI2C2Interrupt):DEFINED (__MI2C2Interrupt)?ABSOLUTE (__MI2C2Interrupt):ABSOLUTE (__DefaultInterrupt)
                  0x00017a          0x4 LONG 0x34c DEFINED (__AltT8Interrupt)?ABSOLUTE (__AltT8Interrupt):DEFINED (__T8Interrupt)?ABSOLUTE (__T8Interrupt):ABSOLUTE (__DefaultInterrupt)
                  0x00017c          0x4 LONG 0x34c DEFINED (__AltT9Interrupt)?ABSOLUTE (__AltT9Interrupt):DEFINED (__T9Interrupt)?ABSOLUTE (__T9Interrupt):ABSOLUTE (__DefaultInterrupt)
                  0x00017e          0x4 LONG 0xbe40 DEFINED (__AltINT3Interrupt)?ABSOLUTE (__AltINT3Interrupt):DEFINED (__INT3Interrupt)?ABSOLUTE (__INT3Interrupt):ABSOLUTE (__DefaultInterrupt)
                  0x000180          0x4 LONG 0x34c DEFINED (__AltINT4Interrupt)?ABSOLUTE (__AltINT4Interrupt):DEFINED (__INT4Interrupt)?ABSOLUTE (__INT4Interrupt):ABSOLUTE (__DefaultInterrupt)
                  0x000182          0x4 LONG 0x34c DEFINED (__AltC2RxRdyInterrupt)?ABSOLUTE (__AltC2RxRdyInterrupt):DEFINED (__C2RxRdyInterrupt)?ABSOLUTE (__C2RxRdyInterrupt):ABSOLUTE (__DefaultInterrupt)
                  0x000184          0x4 LONG 0xae7c DEFINED (__AltC2Interrupt)?ABSOLUTE (__AltC2Interrupt):DEFINED (__C2Interrupt)?ABSOLUTE (__C2Interrupt):ABSOLUTE (__DefaultInterrupt)
                  0x000186          0x4 LONG 0x34c DEFINED (__AltInterrupt57)?ABSOLUTE (__AltInterrupt57):DEFINED (__Interrupt57)?ABSOLUTE (__Interrupt57):ABSOLUTE (__DefaultInterrupt)
                  0x000188          0x4 LONG 0x34c DEFINED (__AltInterrupt58)?ABSOLUTE (__AltInterrupt58):DEFINED (__Interrupt58)?ABSOLUTE (__Interrupt58):ABSOLUTE (__DefaultInterrupt)
                  0x00018a          0x4 LONG 0x34c DEFINED (__AltDCIErrInterrupt)?ABSOLUTE (__AltDCIErrInterrupt):DEFINED (__DCIErrInterrupt)?ABSOLUTE (__DCIErrInterrupt):ABSOLUTE (__DefaultInterrupt)
                  0x00018c          0x4 LONG 0x34c DEFINED (__AltDCIInterrupt)?ABSOLUTE (__AltDCIInterrupt):DEFINED (__DCIInterrupt)?ABSOLUTE (__DCIInterrupt):ABSOLUTE (__DefaultInterrupt)
                  0x00018e          0x4 LONG 0x34c DEFINED (__AltDMA5Interrupt)?ABSOLUTE (__AltDMA5Interrupt):DEFINED (__DMA5Interrupt)?ABSOLUTE (__DMA5Interrupt):ABSOLUTE (__DefaultInterrupt)
                  0x000190          0x4 LONG 0x34c DEFINED (__AltInterrupt62)?ABSOLUTE (__AltInterrupt62):DEFINED (__Interrupt62)?ABSOLUTE (__Interrupt62):ABSOLUTE (__DefaultInterrupt)
                  0x000192          0x4 LONG 0x34c DEFINED (__AltInterrupt63)?ABSOLUTE (__AltInterrupt63):DEFINED (__Interrupt63)?ABSOLUTE (__Interrupt63):ABSOLUTE (__DefaultInterrupt)
                  0x000194          0x4 LONG 0x34c DEFINED (__AltInterrupt64)?ABSOLUTE (__AltInterrupt64):DEFINED (__Interrupt64)?ABSOLUTE (__Interrupt64):ABSOLUTE (__DefaultInterrupt)
                  0x000196          0x4 LONG 0x34c DEFINED (__AltU1ErrInterrupt)?ABSOLUTE (__AltU1ErrInterrupt):DEFINED (__U1ErrInterrupt)?ABSOLUTE (__U1ErrInterrupt):ABSOLUTE (__DefaultInterrupt)
                  0x000198          0x4 LONG 0x34c DEFINED (__AltU2ErrInterrupt)?ABSOLUTE (__AltU2ErrInterrupt):DEFINED (__U2ErrInterrupt)?ABSOLUTE (__U2ErrInterrupt):ABSOLUTE (__DefaultInterrupt)
                  0x00019a          0x4 LONG 0x34c DEFINED (__AltInterrupt67)?ABSOLUTE (__AltInterrupt67):DEFINED (__Interrupt67)?ABSOLUTE (__Interrupt67):ABSOLUTE (__DefaultInterrupt)
                  0x00019c          0x4 LONG 0x34c DEFINED (__AltDMA6Interrupt)?ABSOLUTE (__AltDMA6Interrupt):DEFINED (__DMA6Interrupt)?ABSOLUTE (__DMA6Interrupt):ABSOLUTE (__DefaultInterrupt)
                  0x00019e          0x4 LONG 0x34c DEFINED (__AltDMA7Interrupt)?ABSOLUTE (__AltDMA7Interrupt):DEFINED (__DMA7Interrupt)?ABSOLUTE (__DMA7Interrupt):ABSOLUTE (__DefaultInterrupt)
                  0x0001a0          0x4 LONG 0x34c DEFINED (__AltC1TxReqInterrupt)?ABSOLUTE (__AltC1TxReqInterrupt):DEFINED (__C1TxReqInterrupt)?ABSOLUTE (__C1TxReqInterrupt):ABSOLUTE (__DefaultInterrupt)
                  0x0001a2          0x4 LONG 0x34c DEFINED (__AltC2TxReqInterrupt)?ABSOLUTE (__AltC2TxReqInterrupt):DEFINED (__C2TxReqInterrupt)?ABSOLUTE (__C2TxReqInterrupt):ABSOLUTE (__DefaultInterrupt)
                  0x0001a4          0x4 LONG 0x34c DEFINED (__AltInterrupt72)?ABSOLUTE (__AltInterrupt72):DEFINED (__Interrupt72)?ABSOLUTE (__Interrupt72):ABSOLUTE (__DefaultInterrupt)
                  0x0001a6          0x4 LONG 0x34c DEFINED (__AltInterrupt73)?ABSOLUTE (__AltInterrupt73):DEFINED (__Interrupt73)?ABSOLUTE (__Interrupt73):ABSOLUTE (__DefaultInterrupt)
                  0x0001a8          0x4 LONG 0x34c DEFINED (__AltInterrupt74)?ABSOLUTE (__AltInterrupt74):DEFINED (__Interrupt74)?ABSOLUTE (__Interrupt74):ABSOLUTE (__DefaultInterrupt)
                  0x0001aa          0x4 LONG 0x34c DEFINED (__AltInterrupt75)?ABSOLUTE (__AltInterrupt75):DEFINED (__Interrupt75)?ABSOLUTE (__Interrupt75):ABSOLUTE (__DefaultInterrupt)
                  0x0001ac          0x4 LONG 0x34c DEFINED (__AltInterrupt76)?ABSOLUTE (__AltInterrupt76):DEFINED (__Interrupt76)?ABSOLUTE (__Interrupt76):ABSOLUTE (__DefaultInterrupt)
                  0x0001ae          0x4 LONG 0x34c DEFINED (__AltInterrupt77)?ABSOLUTE (__AltInterrupt77):DEFINED (__Interrupt77)?ABSOLUTE (__Interrupt77):ABSOLUTE (__DefaultInterrupt)
                  0x0001b0          0x4 LONG 0x34c DEFINED (__AltInterrupt78)?ABSOLUTE (__AltInterrupt78):DEFINED (__Interrupt78)?ABSOLUTE (__Interrupt78):ABSOLUTE (__DefaultInterrupt)
                  0x0001b2          0x4 LONG 0x34c DEFINED (__AltInterrupt79)?ABSOLUTE (__AltInterrupt79):DEFINED (__Interrupt79)?ABSOLUTE (__Interrupt79):ABSOLUTE (__DefaultInterrupt)
                  0x0001b4          0x4 LONG 0x34c DEFINED (__AltInterrupt80)?ABSOLUTE (__AltInterrupt80):DEFINED (__Interrupt80)?ABSOLUTE (__Interrupt80):ABSOLUTE (__DefaultInterrupt)
                  0x0001b6          0x4 LONG 0x34c DEFINED (__AltInterrupt81)?ABSOLUTE (__AltInterrupt81):DEFINED (__Interrupt81)?ABSOLUTE (__Interrupt81):ABSOLUTE (__DefaultInterrupt)
                  0x0001b8          0x4 LONG 0x34c DEFINED (__AltInterrupt82)?ABSOLUTE (__AltInterrupt82):DEFINED (__Interrupt82)?ABSOLUTE (__Interrupt82):ABSOLUTE (__DefaultInterrupt)
                  0x0001ba          0x4 LONG 0x34c DEFINED (__AltInterrupt83)?ABSOLUTE (__AltInterrupt83):DEFINED (__Interrupt83)?ABSOLUTE (__Interrupt83):ABSOLUTE (__DefaultInterrupt)
                  0x0001bc          0x4 LONG 0x34c DEFINED (__AltInterrupt84)?ABSOLUTE (__AltInterrupt84):DEFINED (__Interrupt84)?ABSOLUTE (__Interrupt84):ABSOLUTE (__DefaultInterrupt)
                  0x0001be          0x4 LONG 0x34c DEFINED (__AltInterrupt85)?ABSOLUTE (__AltInterrupt85):DEFINED (__Interrupt85)?ABSOLUTE (__Interrupt85):ABSOLUTE (__DefaultInterrupt)
                  0x0001c0          0x4 LONG 0x34c DEFINED (__AltInterrupt86)?ABSOLUTE (__AltInterrupt86):DEFINED (__Interrupt86)?ABSOLUTE (__Interrupt86):ABSOLUTE (__DefaultInterrupt)
                  0x0001c2          0x4 LONG 0x34c DEFINED (__AltInterrupt87)?ABSOLUTE (__AltInterrupt87):DEFINED (__Interrupt87)?ABSOLUTE (__Interrupt87):ABSOLUTE (__DefaultInterrupt)
                  0x0001c4          0x4 LONG 0x34c DEFINED (__AltInterrupt88)?ABSOLUTE (__AltInterrupt88):DEFINED (__Interrupt88)?ABSOLUTE (__Interrupt88):ABSOLUTE (__DefaultInterrupt)
                  0x0001c6          0x4 LONG 0x34c DEFINED (__AltInterrupt89)?ABSOLUTE (__AltInterrupt89):DEFINED (__Interrupt89)?ABSOLUTE (__Interrupt89):ABSOLUTE (__DefaultInterrupt)
                  0x0001c8          0x4 LONG 0x34c DEFINED (__AltInterrupt90)?ABSOLUTE (__AltInterrupt90):DEFINED (__Interrupt90)?ABSOLUTE (__Interrupt90):ABSOLUTE (__DefaultInterrupt)
                  0x0001ca          0x4 LONG 0x34c DEFINED (__AltInterrupt91)?ABSOLUTE (__AltInterrupt91):DEFINED (__Interrupt91)?ABSOLUTE (__Interrupt91):ABSOLUTE (__DefaultInterrupt)
                  0x0001cc          0x4 LONG 0x34c DEFINED (__AltInterrupt92)?ABSOLUTE (__AltInterrupt92):DEFINED (__Interrupt92)?ABSOLUTE (__Interrupt92):ABSOLUTE (__DefaultInterrupt)
                  0x0001ce          0x4 LONG 0x34c DEFINED (__AltInterrupt93)?ABSOLUTE (__AltInterrupt93):DEFINED (__Interrupt93)?ABSOLUTE (__Interrupt93):ABSOLUTE (__DefaultInterrupt)
                  0x0001d0          0x4 LONG 0x34c DEFINED (__AltInterrupt94)?ABSOLUTE (__AltInterrupt94):DEFINED (__Interrupt94)?ABSOLUTE (__Interrupt94):ABSOLUTE (__DefaultInterrupt)
                  0x0001d2          0x4 LONG 0x34c DEFINED (__AltInterrupt95)?ABSOLUTE (__AltInterrupt95):DEFINED (__Interrupt95)?ABSOLUTE (__Interrupt95):ABSOLUTE (__DefaultInterrupt)
                  0x0001d4          0x4 LONG 0x34c DEFINED (__AltInterrupt96)?ABSOLUTE (__AltInterrupt96):DEFINED (__Interrupt96)?ABSOLUTE (__Interrupt96):ABSOLUTE (__DefaultInterrupt)
                  0x0001d6          0x4 LONG 0x34c DEFINED (__AltInterrupt97)?ABSOLUTE (__AltInterrupt97):DEFINED (__Interrupt97)?ABSOLUTE (__Interrupt97):ABSOLUTE (__DefaultInterrupt)
                  0x0001d8          0x4 LONG 0x34c DEFINED (__AltInterrupt98)?ABSOLUTE (__AltInterrupt98):DEFINED (__Interrupt98)?ABSOLUTE (__Interrupt98):ABSOLUTE (__DefaultInterrupt)
                  0x0001da          0x4 LONG 0x34c DEFINED (__AltInterrupt99)?ABSOLUTE (__AltInterrupt99):DEFINED (__Interrupt99)?ABSOLUTE (__Interrupt99):ABSOLUTE (__DefaultInterrupt)
                  0x0001dc          0x4 LONG 0x34c DEFINED (__AltInterrupt100)?ABSOLUTE (__AltInterrupt100):DEFINED (__Interrupt100)?ABSOLUTE (__Interrupt100):ABSOLUTE (__DefaultInterrupt)
                  0x0001de          0x4 LONG 0x34c DEFINED (__AltInterrupt101)?ABSOLUTE (__AltInterrupt101):DEFINED (__Interrupt101)?ABSOLUTE (__Interrupt101):ABSOLUTE (__DefaultInterrupt)
                  0x0001e0          0x4 LONG 0x34c DEFINED (__AltInterrupt102)?ABSOLUTE (__AltInterrupt102):DEFINED (__Interrupt102)?ABSOLUTE (__Interrupt102):ABSOLUTE (__DefaultInterrupt)
                  0x0001e2          0x4 LONG 0x34c DEFINED (__AltInterrupt103)?ABSOLUTE (__AltInterrupt103):DEFINED (__Interrupt103)?ABSOLUTE (__Interrupt103):ABSOLUTE (__DefaultInterrupt)
                  0x0001e4          0x4 LONG 0x34c DEFINED (__AltInterrupt104)?ABSOLUTE (__AltInterrupt104):DEFINED (__Interrupt104)?ABSOLUTE (__Interrupt104):ABSOLUTE (__DefaultInterrupt)
                  0x0001e6          0x4 LONG 0x34c DEFINED (__AltInterrupt105)?ABSOLUTE (__AltInterrupt105):DEFINED (__Interrupt105)?ABSOLUTE (__Interrupt105):ABSOLUTE (__DefaultInterrupt)
                  0x0001e8          0x4 LONG 0x34c DEFINED (__AltInterrupt106)?ABSOLUTE (__AltInterrupt106):DEFINED (__Interrupt106)?ABSOLUTE (__Interrupt106):ABSOLUTE (__DefaultInterrupt)
                  0x0001ea          0x4 LONG 0x34c DEFINED (__AltInterrupt107)?ABSOLUTE (__AltInterrupt107):DEFINED (__Interrupt107)?ABSOLUTE (__Interrupt107):ABSOLUTE (__DefaultInterrupt)
                  0x0001ec          0x4 LONG 0x34c DEFINED (__AltInterrupt108)?ABSOLUTE (__AltInterrupt108):DEFINED (__Interrupt108)?ABSOLUTE (__Interrupt108):ABSOLUTE (__DefaultInterrupt)
                  0x0001ee          0x4 LONG 0x34c DEFINED (__AltInterrupt109)?ABSOLUTE (__AltInterrupt109):DEFINED (__Interrupt109)?ABSOLUTE (__Interrupt109):ABSOLUTE (__DefaultInterrupt)
                  0x0001f0          0x4 LONG 0x34c DEFINED (__AltInterrupt110)?ABSOLUTE (__AltInterrupt110):DEFINED (__Interrupt110)?ABSOLUTE (__Interrupt110):ABSOLUTE (__DefaultInterrupt)
                  0x0001f2          0x4 LONG 0x34c DEFINED (__AltInterrupt111)?ABSOLUTE (__AltInterrupt111):DEFINED (__Interrupt111)?ABSOLUTE (__Interrupt111):ABSOLUTE (__DefaultInterrupt)
                  0x0001f4          0x4 LONG 0x34c DEFINED (__AltInterrupt112)?ABSOLUTE (__AltInterrupt112):DEFINED (__Interrupt112)?ABSOLUTE (__Interrupt112):ABSOLUTE (__DefaultInterrupt)
                  0x0001f6          0x4 LONG 0x34c DEFINED (__AltInterrupt113)?ABSOLUTE (__AltInterrupt113):DEFINED (__Interrupt113)?ABSOLUTE (__Interrupt113):ABSOLUTE (__DefaultInterrupt)
                  0x0001f8          0x4 LONG 0x34c DEFINED (__AltInterrupt114)?ABSOLUTE (__AltInterrupt114):DEFINED (__Interrupt114)?ABSOLUTE (__Interrupt114):ABSOLUTE (__DefaultInterrupt)
                  0x0001fa          0x4 LONG 0x34c DEFINED (__AltInterrupt115)?ABSOLUTE (__AltInterrupt115):DEFINED (__Interrupt115)?ABSOLUTE (__Interrupt115):ABSOLUTE (__DefaultInterrupt)
                  0x0001fc          0x4 LONG 0x34c DEFINED (__AltInterrupt116)?ABSOLUTE (__AltInterrupt116):DEFINED (__Interrupt116)?ABSOLUTE (__Interrupt116):ABSOLUTE (__DefaultInterrupt)
                  0x0001fe          0x4 LONG 0x34c DEFINED (__AltInterrupt117)?ABSOLUTE (__AltInterrupt117):DEFINED (__Interrupt117)?ABSOLUTE (__Interrupt117):ABSOLUTE (__DefaultInterrupt)
                    0x0000                  WREG0 = 0x0
                    0x0000                  _WREG0 = 0x0
                    0x0002                  WREG1 = 0x2
                    0x0002                  _WREG1 = 0x2
                    0x0004                  WREG2 = 0x4
                    0x0004                  _WREG2 = 0x4
                    0x0006                  WREG3 = 0x6
                    0x0006                  _WREG3 = 0x6
                    0x0008                  WREG4 = 0x8
                    0x0008                  _WREG4 = 0x8
                    0x000a                  WREG5 = 0xa
                    0x000a                  _WREG5 = 0xa
                    0x000c                  WREG6 = 0xc
                    0x000c                  _WREG6 = 0xc
                    0x000e                  WREG7 = 0xe
                    0x000e                  _WREG7 = 0xe
                    0x0010                  WREG8 = 0x10
                    0x0010                  _WREG8 = 0x10
                    0x0012                  WREG9 = 0x12
                    0x0012                  _WREG9 = 0x12
                    0x0014                  WREG10 = 0x14
                    0x0014                  _WREG10 = 0x14
                    0x0016                  WREG11 = 0x16
                    0x0016                  _WREG11 = 0x16
                    0x0018                  WREG12 = 0x18
                    0x0018                  _WREG12 = 0x18
                    0x001a                  WREG13 = 0x1a
                    0x001a                  _WREG13 = 0x1a
                    0x001c                  WREG14 = 0x1c
                    0x001c                  _WREG14 = 0x1c
                    0x001e                  WREG15 = 0x1e
                    0x001e                  _WREG15 = 0x1e
                    0x0020                  SPLIM = 0x20
                    0x0020                  _SPLIM = 0x20
                    0x0022                  ACCAL = 0x22
                    0x0022                  _ACCAL = 0x22
                    0x0024                  ACCAH = 0x24
                    0x0024                  _ACCAH = 0x24
                    0x0026                  ACCAU = 0x26
                    0x0026                  _ACCAU = 0x26
                    0x0028                  ACCBL = 0x28
                    0x0028                  _ACCBL = 0x28
                    0x002a                  ACCBH = 0x2a
                    0x002a                  _ACCBH = 0x2a
                    0x002c                  ACCBU = 0x2c
                    0x002c                  _ACCBU = 0x2c
                    0x002e                  PCL = 0x2e
                    0x002e                  _PCL = 0x2e
                    0x0030                  PCH = 0x30
                    0x0030                  _PCH = 0x30
                    0x0032                  TBLPAG = 0x32
                    0x0032                  _TBLPAG = 0x32
                    0x0034                  PSVPAG = 0x34
                    0x0034                  _PSVPAG = 0x34
                    0x0036                  RCOUNT = 0x36
                    0x0036                  _RCOUNT = 0x36
                    0x0038                  DCOUNT = 0x38
                    0x0038                  _DCOUNT = 0x38
                    0x003a                  DOSTARTL = 0x3a
                    0x003a                  _DOSTARTL = 0x3a
                    0x003c                  DOSTARTH = 0x3c
                    0x003c                  _DOSTARTH = 0x3c
                    0x003e                  DOENDL = 0x3e
                    0x003e                  _DOENDL = 0x3e
                    0x0040                  DOENDH = 0x40
                    0x0040                  _DOENDH = 0x40
                    0x0042                  SR = 0x42
                    0x0042                  _SR = 0x42
                    0x0042                  _SRbits = 0x42
                    0x0044                  CORCON = 0x44
                    0x0044                  _CORCON = 0x44
                    0x0044                  _CORCONbits = 0x44
                    0x0046                  MODCON = 0x46
                    0x0046                  _MODCON = 0x46
                    0x0046                  _MODCONbits = 0x46
                    0x0048                  XMODSRT = 0x48
                    0x0048                  _XMODSRT = 0x48
                    0x004a                  XMODEND = 0x4a
                    0x004a                  _XMODEND = 0x4a
                    0x004c                  YMODSRT = 0x4c
                    0x004c                  _YMODSRT = 0x4c
                    0x004e                  YMODEND = 0x4e
                    0x004e                  _YMODEND = 0x4e
                    0x0050                  XBREV = 0x50
                    0x0050                  _XBREV = 0x50
                    0x0050                  _XBREVbits = 0x50
                    0x0052                  DISICNT = 0x52
                    0x0052                  _DISICNT = 0x52
                    0x0060                  CNEN1 = 0x60
                    0x0060                  _CNEN1 = 0x60
                    0x0060                  _CNEN1bits = 0x60
                    0x0062                  CNEN2 = 0x62
                    0x0062                  _CNEN2 = 0x62
                    0x0062                  _CNEN2bits = 0x62
                    0x0068                  CNPU1 = 0x68
                    0x0068                  _CNPU1 = 0x68
                    0x0068                  _CNPU1bits = 0x68
                    0x006a                  CNPU2 = 0x6a
                    0x006a                  _CNPU2 = 0x6a
                    0x006a                  _CNPU2bits = 0x6a
                    0x0080                  INTCON1 = 0x80
                    0x0080                  _INTCON1 = 0x80
                    0x0080                  _INTCON1bits = 0x80
                    0x0082                  INTCON2 = 0x82
                    0x0082                  _INTCON2 = 0x82
                    0x0082                  _INTCON2bits = 0x82
                    0x0084                  IFS0 = 0x84
                    0x0084                  _IFS0 = 0x84
                    0x0084                  _IFS0bits = 0x84
                    0x0086                  IFS1 = 0x86
                    0x0086                  _IFS1 = 0x86
                    0x0086                  _IFS1bits = 0x86
                    0x0088                  IFS2 = 0x88
                    0x0088                  _IFS2 = 0x88
                    0x0088                  _IFS2bits = 0x88
                    0x008a                  IFS3 = 0x8a
                    0x008a                  _IFS3 = 0x8a
                    0x008a                  _IFS3bits = 0x8a
                    0x008c                  IFS4 = 0x8c
                    0x008c                  _IFS4 = 0x8c
                    0x008c                  _IFS4bits = 0x8c
                    0x0094                  IEC0 = 0x94
                    0x0094                  _IEC0 = 0x94
                    0x0094                  _IEC0bits = 0x94
                    0x0096                  IEC1 = 0x96
                    0x0096                  _IEC1 = 0x96
                    0x0096                  _IEC1bits = 0x96
                    0x0098                  IEC2 = 0x98
                    0x0098                  _IEC2 = 0x98
                    0x0098                  _IEC2bits = 0x98
                    0x009a                  IEC3 = 0x9a
                    0x009a                  _IEC3 = 0x9a
                    0x009a                  _IEC3bits = 0x9a
                    0x009c                  IEC4 = 0x9c
                    0x009c                  _IEC4 = 0x9c
                    0x009c                  _IEC4bits = 0x9c
                    0x00a4                  IPC0 = 0xa4
                    0x00a4                  _IPC0 = 0xa4
                    0x00a4                  _IPC0bits = 0xa4
                    0x00a6                  IPC1 = 0xa6
                    0x00a6                  _IPC1 = 0xa6
                    0x00a6                  _IPC1bits = 0xa6
                    0x00a8                  IPC2 = 0xa8
                    0x00a8                  _IPC2 = 0xa8
                    0x00a8                  _IPC2bits = 0xa8
                    0x00aa                  IPC3 = 0xaa
                    0x00aa                  _IPC3 = 0xaa
                    0x00aa                  _IPC3bits = 0xaa
                    0x00ac                  IPC4 = 0xac
                    0x00ac                  _IPC4 = 0xac
                    0x00ac                  _IPC4bits = 0xac
                    0x00ae                  IPC5 = 0xae
                    0x00ae                  _IPC5 = 0xae
                    0x00ae                  _IPC5bits = 0xae
                    0x00b0                  IPC6 = 0xb0
                    0x00b0                  _IPC6 = 0xb0
                    0x00b0                  _IPC6bits = 0xb0
                    0x00b2                  IPC7 = 0xb2
                    0x00b2                  _IPC7 = 0xb2
                    0x00b2                  _IPC7bits = 0xb2
                    0x00b4                  IPC8 = 0xb4
                    0x00b4                  _IPC8 = 0xb4
                    0x00b4                  _IPC8bits = 0xb4
                    0x00b6                  IPC9 = 0xb6
                    0x00b6                  _IPC9 = 0xb6
                    0x00b6                  _IPC9bits = 0xb6
                    0x00b8                  IPC10 = 0xb8
                    0x00b8                  _IPC10 = 0xb8
                    0x00b8                  _IPC10bits = 0xb8
                    0x00ba                  IPC11 = 0xba
                    0x00ba                  _IPC11 = 0xba
                    0x00ba                  _IPC11bits = 0xba
                    0x00bc                  IPC12 = 0xbc
                    0x00bc                  _IPC12 = 0xbc
                    0x00bc                  _IPC12bits = 0xbc
                    0x00be                  IPC13 = 0xbe
                    0x00be                  _IPC13 = 0xbe
                    0x00be                  _IPC13bits = 0xbe
                    0x00c0                  IPC14 = 0xc0
                    0x00c0                  _IPC14 = 0xc0
                    0x00c0                  _IPC14bits = 0xc0
                    0x00c2                  IPC15 = 0xc2
                    0x00c2                  _IPC15 = 0xc2
                    0x00c2                  _IPC15bits = 0xc2
                    0x00c4                  IPC16 = 0xc4
                    0x00c4                  _IPC16 = 0xc4
                    0x00c4                  _IPC16bits = 0xc4
                    0x00c6                  IPC17 = 0xc6
                    0x00c6                  _IPC17 = 0xc6
                    0x00c6                  _IPC17bits = 0xc6
                    0x00e0                  INTTREG = 0xe0
                    0x00e0                  _INTTREG = 0xe0
                    0x00e0                  _INTTREGbits = 0xe0
                    0x0100                  TMR1 = 0x100
                    0x0100                  _TMR1 = 0x100
                    0x0102                  PR1 = 0x102
                    0x0102                  _PR1 = 0x102
                    0x0104                  T1CON = 0x104
                    0x0104                  _T1CON = 0x104
                    0x0104                  _T1CONbits = 0x104
                    0x0106                  TMR2 = 0x106
                    0x0106                  _TMR2 = 0x106
                    0x0108                  TMR3HLD = 0x108
                    0x0108                  _TMR3HLD = 0x108
                    0x010a                  TMR3 = 0x10a
                    0x010a                  _TMR3 = 0x10a
                    0x010c                  PR2 = 0x10c
                    0x010c                  _PR2 = 0x10c
                    0x010e                  PR3 = 0x10e
                    0x010e                  _PR3 = 0x10e
                    0x0110                  T2CON = 0x110
                    0x0110                  _T2CON = 0x110
                    0x0110                  _T2CONbits = 0x110
                    0x0112                  T3CON = 0x112
                    0x0112                  _T3CON = 0x112
                    0x0112                  _T3CONbits = 0x112
                    0x0114                  TMR4 = 0x114
                    0x0114                  _TMR4 = 0x114
                    0x0116                  TMR5HLD = 0x116
                    0x0116                  _TMR5HLD = 0x116
                    0x0118                  TMR5 = 0x118
                    0x0118                  _TMR5 = 0x118
                    0x011a                  PR4 = 0x11a
                    0x011a                  _PR4 = 0x11a
                    0x011c                  PR5 = 0x11c
                    0x011c                  _PR5 = 0x11c
                    0x011e                  T4CON = 0x11e
                    0x011e                  _T4CON = 0x11e
                    0x011e                  _T4CONbits = 0x11e
                    0x0120                  T5CON = 0x120
                    0x0120                  _T5CON = 0x120
                    0x0120                  _T5CONbits = 0x120
                    0x0122                  TMR6 = 0x122
                    0x0122                  _TMR6 = 0x122
                    0x0124                  TMR7HLD = 0x124
                    0x0124                  _TMR7HLD = 0x124
                    0x0126                  TMR7 = 0x126
                    0x0126                  _TMR7 = 0x126
                    0x0128                  PR6 = 0x128
                    0x0128                  _PR6 = 0x128
                    0x012a                  PR7 = 0x12a
                    0x012a                  _PR7 = 0x12a
                    0x012c                  T6CON = 0x12c
                    0x012c                  _T6CON = 0x12c
                    0x012c                  _T6CONbits = 0x12c
                    0x012e                  T7CON = 0x12e
                    0x012e                  _T7CON = 0x12e
                    0x012e                  _T7CONbits = 0x12e
                    0x0130                  TMR8 = 0x130
                    0x0130                  _TMR8 = 0x130
                    0x0132                  TMR9HLD = 0x132
                    0x0132                  _TMR9HLD = 0x132
                    0x0134                  TMR9 = 0x134
                    0x0134                  _TMR9 = 0x134
                    0x0136                  PR8 = 0x136
                    0x0136                  _PR8 = 0x136
                    0x0138                  PR9 = 0x138
                    0x0138                  _PR9 = 0x138
                    0x013a                  T8CON = 0x13a
                    0x013a                  _T8CON = 0x13a
                    0x013a                  _T8CONbits = 0x13a
                    0x013c                  T9CON = 0x13c
                    0x013c                  _T9CON = 0x13c
                    0x013c                  _T9CONbits = 0x13c
                    0x0140                  IC1BUF = 0x140
                    0x0140                  _IC1BUF = 0x140
                    0x0142                  IC1CON = 0x142
                    0x0142                  _IC1CON = 0x142
                    0x0142                  _IC1CONbits = 0x142
                    0x0144                  IC2BUF = 0x144
                    0x0144                  _IC2BUF = 0x144
                    0x0146                  IC2CON = 0x146
                    0x0146                  _IC2CON = 0x146
                    0x0146                  _IC2CONbits = 0x146
                    0x0148                  IC3BUF = 0x148
                    0x0148                  _IC3BUF = 0x148
                    0x014a                  IC3CON = 0x14a
                    0x014a                  _IC3CON = 0x14a
                    0x014a                  _IC3CONbits = 0x14a
                    0x014c                  IC4BUF = 0x14c
                    0x014c                  _IC4BUF = 0x14c
                    0x014e                  IC4CON = 0x14e
                    0x014e                  _IC4CON = 0x14e
                    0x014e                  _IC4CONbits = 0x14e
                    0x0150                  IC5BUF = 0x150
                    0x0150                  _IC5BUF = 0x150
                    0x0152                  IC5CON = 0x152
                    0x0152                  _IC5CON = 0x152
                    0x0152                  _IC5CONbits = 0x152
                    0x0154                  IC6BUF = 0x154
                    0x0154                  _IC6BUF = 0x154
                    0x0156                  IC6CON = 0x156
                    0x0156                  _IC6CON = 0x156
                    0x0156                  _IC6CONbits = 0x156
                    0x0158                  IC7BUF = 0x158
                    0x0158                  _IC7BUF = 0x158
                    0x015a                  IC7CON = 0x15a
                    0x015a                  _IC7CON = 0x15a
                    0x015a                  _IC7CONbits = 0x15a
                    0x015c                  IC8BUF = 0x15c
                    0x015c                  _IC8BUF = 0x15c
                    0x015e                  IC8CON = 0x15e
                    0x015e                  _IC8CON = 0x15e
                    0x015e                  _IC8CONbits = 0x15e
                    0x0180                  OC1RS = 0x180
                    0x0180                  _OC1RS = 0x180
                    0x0182                  OC1R = 0x182
                    0x0182                  _OC1R = 0x182
                    0x0184                  OC1CON = 0x184
                    0x0184                  _OC1CON = 0x184
                    0x0184                  _OC1CONbits = 0x184
                    0x0186                  OC2RS = 0x186
                    0x0186                  _OC2RS = 0x186
                    0x0188                  OC2R = 0x188
                    0x0188                  _OC2R = 0x188
                    0x018a                  OC2CON = 0x18a
                    0x018a                  _OC2CON = 0x18a
                    0x018a                  _OC2CONbits = 0x18a
                    0x018c                  OC3RS = 0x18c
                    0x018c                  _OC3RS = 0x18c
                    0x018e                  OC3R = 0x18e
                    0x018e                  _OC3R = 0x18e
                    0x0190                  OC3CON = 0x190
                    0x0190                  _OC3CON = 0x190
                    0x0190                  _OC3CONbits = 0x190
                    0x0192                  OC4RS = 0x192
                    0x0192                  _OC4RS = 0x192
                    0x0194                  OC4R = 0x194
                    0x0194                  _OC4R = 0x194
                    0x0196                  OC4CON = 0x196
                    0x0196                  _OC4CON = 0x196
                    0x0196                  _OC4CONbits = 0x196
                    0x0198                  OC5RS = 0x198
                    0x0198                  _OC5RS = 0x198
                    0x019a                  OC5R = 0x19a
                    0x019a                  _OC5R = 0x19a
                    0x019c                  OC5CON = 0x19c
                    0x019c                  _OC5CON = 0x19c
                    0x019c                  _OC5CONbits = 0x19c
                    0x019e                  OC6RS = 0x19e
                    0x019e                  _OC6RS = 0x19e
                    0x01a0                  OC6R = 0x1a0
                    0x01a0                  _OC6R = 0x1a0
                    0x01a2                  OC6CON = 0x1a2
                    0x01a2                  _OC6CON = 0x1a2
                    0x01a2                  _OC6CONbits = 0x1a2
                    0x01a4                  OC7RS = 0x1a4
                    0x01a4                  _OC7RS = 0x1a4
                    0x01a6                  OC7R = 0x1a6
                    0x01a6                  _OC7R = 0x1a6
                    0x01a8                  OC7CON = 0x1a8
                    0x01a8                  _OC7CON = 0x1a8
                    0x01a8                  _OC7CONbits = 0x1a8
                    0x01aa                  OC8RS = 0x1aa
                    0x01aa                  _OC8RS = 0x1aa
                    0x01ac                  OC8R = 0x1ac
                    0x01ac                  _OC8R = 0x1ac
                    0x01ae                  OC8CON = 0x1ae
                    0x01ae                  _OC8CON = 0x1ae
                    0x01ae                  _OC8CONbits = 0x1ae
                    0x0200                  I2C1RCV = 0x200
                    0x0200                  _I2C1RCV = 0x200
                    0x0200                  I2CRCV = 0x200
                    0x0200                  _I2CRCV = 0x200
                    0x0202                  I2C1TRN = 0x202
                    0x0202                  _I2C1TRN = 0x202
                    0x0202                  I2CTRN = 0x202
                    0x0202                  _I2CTRN = 0x202
                    0x0204                  I2C1BRG = 0x204
                    0x0204                  _I2C1BRG = 0x204
                    0x0206                  I2C1CON = 0x206
                    0x0206                  _I2C1CON = 0x206
                    0x0206                  _I2C1CONbits = 0x206
                    0x0206                  I2CCON = 0x206
                    0x0206                  _I2CCON = 0x206
                    0x0206                  _I2CCONbits = 0x206
                    0x0208                  I2C1STAT = 0x208
                    0x0208                  _I2C1STAT = 0x208
                    0x0208                  _I2C1STATbits = 0x208
                    0x0208                  I2CSTAT = 0x208
                    0x0208                  _I2CSTAT = 0x208
                    0x0208                  _I2CSTATbits = 0x208
                    0x020a                  I2C1ADD = 0x20a
                    0x020a                  _I2C1ADD = 0x20a
                    0x020a                  I2CADD = 0x20a
                    0x020a                  _I2CADD = 0x20a
                    0x020c                  I2C1MSK = 0x20c
                    0x020c                  _I2C1MSK = 0x20c
                    0x0210                  I2C2RCV = 0x210
                    0x0210                  _I2C2RCV = 0x210
                    0x0212                  I2C2TRN = 0x212
                    0x0212                  _I2C2TRN = 0x212
                    0x0214                  I2C2BRG = 0x214
                    0x0214                  _I2C2BRG = 0x214
                    0x0216                  I2C2CON = 0x216
                    0x0216                  _I2C2CON = 0x216
                    0x0216                  _I2C2CONbits = 0x216
                    0x0218                  I2C2STAT = 0x218
                    0x0218                  _I2C2STAT = 0x218
                    0x0218                  _I2C2STATbits = 0x218
                    0x021a                  I2C2ADD = 0x21a
                    0x021a                  _I2C2ADD = 0x21a
                    0x021c                  I2C2MSK = 0x21c
                    0x021c                  _I2C2MSK = 0x21c
                    0x0220                  U1MODE = 0x220
                    0x0220                  _U1MODE = 0x220
                    0x0220                  _U1MODEbits = 0x220
                    0x0222                  U1STA = 0x222
                    0x0222                  _U1STA = 0x222
                    0x0222                  _U1STAbits = 0x222
                    0x0224                  U1TXREG = 0x224
                    0x0224                  _U1TXREG = 0x224
                    0x0224                  _U1TXREGbits = 0x224
                    0x0226                  U1RXREG = 0x226
                    0x0226                  _U1RXREG = 0x226
                    0x0226                  _U1RXREGbits = 0x226
                    0x0228                  U1BRG = 0x228
                    0x0228                  _U1BRG = 0x228
                    0x0230                  U2MODE = 0x230
                    0x0230                  _U2MODE = 0x230
                    0x0230                  _U2MODEbits = 0x230
                    0x0232                  U2STA = 0x232
                    0x0232                  _U2STA = 0x232
                    0x0232                  _U2STAbits = 0x232
                    0x0234                  U2TXREG = 0x234
                    0x0234                  _U2TXREG = 0x234
                    0x0234                  _U2TXREGbits = 0x234
                    0x0236                  U2RXREG = 0x236
                    0x0236                  _U2RXREG = 0x236
                    0x0236                  _U2RXREGbits = 0x236
                    0x0238                  U2BRG = 0x238
                    0x0238                  _U2BRG = 0x238
                    0x0240                  SPI1STAT = 0x240
                    0x0240                  _SPI1STAT = 0x240
                    0x0240                  _SPI1STATbits = 0x240
                    0x0242                  SPI1CON1 = 0x242
                    0x0242                  _SPI1CON1 = 0x242
                    0x0242                  _SPI1CON1bits = 0x242
                    0x0244                  SPI1CON2 = 0x244
                    0x0244                  _SPI1CON2 = 0x244
                    0x0244                  _SPI1CON2bits = 0x244
                    0x0248                  SPI1BUF = 0x248
                    0x0248                  _SPI1BUF = 0x248
                    0x0260                  SPI2STAT = 0x260
                    0x0260                  _SPI2STAT = 0x260
                    0x0260                  _SPI2STATbits = 0x260
                    0x0262                  SPI2CON1 = 0x262
                    0x0262                  _SPI2CON1 = 0x262
                    0x0262                  _SPI2CON1bits = 0x262
                    0x0264                  SPI2CON2 = 0x264
                    0x0264                  _SPI2CON2 = 0x264
                    0x0264                  _SPI2CON2bits = 0x264
                    0x0268                  SPI2BUF = 0x268
                    0x0268                  _SPI2BUF = 0x268
                    0x0280                  DCICON1 = 0x280
                    0x0280                  _DCICON1 = 0x280
                    0x0280                  _DCICON1bits = 0x280
                    0x0282                  DCICON2 = 0x282
                    0x0282                  _DCICON2 = 0x282
                    0x0282                  _DCICON2bits = 0x282
                    0x0284                  DCICON3 = 0x284
                    0x0284                  _DCICON3 = 0x284
                    0x0284                  _DCICON3bits = 0x284
                    0x0286                  DCISTAT = 0x286
                    0x0286                  _DCISTAT = 0x286
                    0x0286                  _DCISTATbits = 0x286
                    0x0288                  TSCON = 0x288
                    0x0288                  _TSCON = 0x288
                    0x0288                  _TSCONbits = 0x288
                    0x028c                  RSCON = 0x28c
                    0x028c                  _RSCON = 0x28c
                    0x028c                  _RSCONbits = 0x28c
                    0x0290                  RXBUF0 = 0x290
                    0x0290                  _RXBUF0 = 0x290
                    0x0292                  RXBUF1 = 0x292
                    0x0292                  _RXBUF1 = 0x292
                    0x0294                  RXBUF2 = 0x294
                    0x0294                  _RXBUF2 = 0x294
                    0x0296                  RXBUF3 = 0x296
                    0x0296                  _RXBUF3 = 0x296
                    0x0298                  TXBUF0 = 0x298
                    0x0298                  _TXBUF0 = 0x298
                    0x029a                  TXBUF1 = 0x29a
                    0x029a                  _TXBUF1 = 0x29a
                    0x029c                  TXBUF2 = 0x29c
                    0x029c                  _TXBUF2 = 0x29c
                    0x029e                  TXBUF3 = 0x29e
                    0x029e                  _TXBUF3 = 0x29e
                    0x02c0                  TRISA = 0x2c0
                    0x02c0                  _TRISA = 0x2c0
                    0x02c0                  _TRISAbits = 0x2c0
                    0x02c2                  PORTA = 0x2c2
                    0x02c2                  _PORTA = 0x2c2
                    0x02c2                  _PORTAbits = 0x2c2
                    0x02c4                  LATA = 0x2c4
                    0x02c4                  _LATA = 0x2c4
                    0x02c4                  _LATAbits = 0x2c4
                    0x02c6                  TRISB = 0x2c6
                    0x02c6                  _TRISB = 0x2c6
                    0x02c6                  _TRISBbits = 0x2c6
                    0x02c8                  PORTB = 0x2c8
                    0x02c8                  _PORTB = 0x2c8
                    0x02c8                  _PORTBbits = 0x2c8
                    0x02ca                  LATB = 0x2ca
                    0x02ca                  _LATB = 0x2ca
                    0x02ca                  _LATBbits = 0x2ca
                    0x02cc                  TRISC = 0x2cc
                    0x02cc                  _TRISC = 0x2cc
                    0x02cc                  _TRISCbits = 0x2cc
                    0x02ce                  PORTC = 0x2ce
                    0x02ce                  _PORTC = 0x2ce
                    0x02ce                  _PORTCbits = 0x2ce
                    0x02d0                  LATC = 0x2d0
                    0x02d0                  _LATC = 0x2d0
                    0x02d0                  _LATCbits = 0x2d0
                    0x02d2                  TRISD = 0x2d2
                    0x02d2                  _TRISD = 0x2d2
                    0x02d2                  _TRISDbits = 0x2d2
                    0x02d4                  PORTD = 0x2d4
                    0x02d4                  _PORTD = 0x2d4
                    0x02d4                  _PORTDbits = 0x2d4
                    0x02d6                  LATD = 0x2d6
                    0x02d6                  _LATD = 0x2d6
                    0x02d6                  _LATDbits = 0x2d6
                    0x02d8                  TRISE = 0x2d8
                    0x02d8                  _TRISE = 0x2d8
                    0x02d8                  _TRISEbits = 0x2d8
                    0x02da                  PORTE = 0x2da
                    0x02da                  _PORTE = 0x2da
                    0x02da                  _PORTEbits = 0x2da
                    0x02dc                  LATE = 0x2dc
                    0x02dc                  _LATE = 0x2dc
                    0x02dc                  _LATEbits = 0x2dc
                    0x02de                  TRISF = 0x2de
                    0x02de                  _TRISF = 0x2de
                    0x02de                  _TRISFbits = 0x2de
                    0x02e0                  PORTF = 0x2e0
                    0x02e0                  _PORTF = 0x2e0
                    0x02e0                  _PORTFbits = 0x2e0
                    0x02e2                  LATF = 0x2e2
                    0x02e2                  _LATF = 0x2e2
                    0x02e2                  _LATFbits = 0x2e2
                    0x02e4                  TRISG = 0x2e4
                    0x02e4                  _TRISG = 0x2e4
                    0x02e4                  _TRISGbits = 0x2e4
                    0x02e6                  PORTG = 0x2e6
                    0x02e6                  _PORTG = 0x2e6
                    0x02e6                  _PORTGbits = 0x2e6
                    0x02e8                  LATG = 0x2e8
                    0x02e8                  _LATG = 0x2e8
                    0x02e8                  _LATGbits = 0x2e8
                    0x0300                  ADC1BUF0 = 0x300
                    0x0300                  _ADC1BUF0 = 0x300
                    0x0300                  ADCBUF0 = 0x300
                    0x0300                  _ADCBUF0 = 0x300
                    0x0320                  AD1CON1 = 0x320
                    0x0320                  _AD1CON1 = 0x320
                    0x0320                  _AD1CON1bits = 0x320
                    0x0322                  AD1CON2 = 0x322
                    0x0322                  _AD1CON2 = 0x322
                    0x0322                  _AD1CON2bits = 0x322
                    0x0324                  AD1CON3 = 0x324
                    0x0324                  _AD1CON3 = 0x324
                    0x0324                  _AD1CON3bits = 0x324
                    0x0326                  AD1CHS123 = 0x326
                    0x0326                  _AD1CHS123 = 0x326
                    0x0326                  _AD1CHS123bits = 0x326
                    0x0328                  AD1CHS0 = 0x328
                    0x0328                  _AD1CHS0 = 0x328
                    0x0328                  _AD1CHS0bits = 0x328
                    0x032a                  AD1PCFGH = 0x32a
                    0x032a                  _AD1PCFGH = 0x32a
                    0x032a                  _AD1PCFGHbits = 0x32a
                    0x032c                  AD1PCFGL = 0x32c
                    0x032c                  _AD1PCFGL = 0x32c
                    0x032c                  _AD1PCFGLbits = 0x32c
                    0x032c                  ADPCFG = 0x32c
                    0x032c                  _ADPCFG = 0x32c
                    0x032c                  _ADPCFGbits = 0x32c
                    0x032e                  AD1CSSH = 0x32e
                    0x032e                  _AD1CSSH = 0x32e
                    0x032e                  _AD1CSSHbits = 0x32e
                    0x0330                  AD1CSSL = 0x330
                    0x0330                  _AD1CSSL = 0x330
                    0x0330                  _AD1CSSLbits = 0x330
                    0x0332                  AD1CON4 = 0x332
                    0x0332                  _AD1CON4 = 0x332
                    0x0332                  _AD1CON4bits = 0x332
                    0x0340                  ADC2BUF0 = 0x340
                    0x0340                  _ADC2BUF0 = 0x340
                    0x0360                  AD2CON1 = 0x360
                    0x0360                  _AD2CON1 = 0x360
                    0x0360                  _AD2CON1bits = 0x360
                    0x0362                  AD2CON2 = 0x362
                    0x0362                  _AD2CON2 = 0x362
                    0x0362                  _AD2CON2bits = 0x362
                    0x0364                  AD2CON3 = 0x364
                    0x0364                  _AD2CON3 = 0x364
                    0x0364                  _AD2CON3bits = 0x364
                    0x0366                  AD2CHS123 = 0x366
                    0x0366                  _AD2CHS123 = 0x366
                    0x0366                  _AD2CHS123bits = 0x366
                    0x0368                  AD2CHS0 = 0x368
                    0x0368                  _AD2CHS0 = 0x368
                    0x0368                  _AD2CHS0bits = 0x368
                    0x036c                  AD2PCFGL = 0x36c
                    0x036c                  _AD2PCFGL = 0x36c
                    0x036c                  _AD2PCFGLbits = 0x36c
                    0x0370                  AD2CSSL = 0x370
                    0x0370                  _AD2CSSL = 0x370
                    0x0370                  _AD2CSSLbits = 0x370
                    0x0372                  AD2CON4 = 0x372
                    0x0372                  _AD2CON4 = 0x372
                    0x0372                  _AD2CON4bits = 0x372
                    0x0380                  DMA0CON = 0x380
                    0x0380                  _DMA0CON = 0x380
                    0x0380                  _DMA0CONbits = 0x380
                    0x0382                  DMA0REQ = 0x382
                    0x0382                  _DMA0REQ = 0x382
                    0x0382                  _DMA0REQbits = 0x382
                    0x0384                  DMA0STA = 0x384
                    0x0384                  _DMA0STA = 0x384
                    0x0386                  DMA0STB = 0x386
                    0x0386                  _DMA0STB = 0x386
                    0x0388                  DMA0PAD = 0x388
                    0x0388                  _DMA0PAD = 0x388
                    0x038a                  DMA0CNT = 0x38a
                    0x038a                  _DMA0CNT = 0x38a
                    0x038c                  DMA1CON = 0x38c
                    0x038c                  _DMA1CON = 0x38c
                    0x038c                  _DMA1CONbits = 0x38c
                    0x038e                  DMA1REQ = 0x38e
                    0x038e                  _DMA1REQ = 0x38e
                    0x038e                  _DMA1REQbits = 0x38e
                    0x0390                  DMA1STA = 0x390
                    0x0390                  _DMA1STA = 0x390
                    0x0392                  DMA1STB = 0x392
                    0x0392                  _DMA1STB = 0x392
                    0x0394                  DMA1PAD = 0x394
                    0x0394                  _DMA1PAD = 0x394
                    0x0396                  DMA1CNT = 0x396
                    0x0396                  _DMA1CNT = 0x396
                    0x0398                  DMA2CON = 0x398
                    0x0398                  _DMA2CON = 0x398
                    0x0398                  _DMA2CONbits = 0x398
                    0x039a                  DMA2REQ = 0x39a
                    0x039a                  _DMA2REQ = 0x39a
                    0x039a                  _DMA2REQbits = 0x39a
                    0x039c                  DMA2STA = 0x39c
                    0x039c                  _DMA2STA = 0x39c
                    0x039e                  DMA2STB = 0x39e
                    0x039e                  _DMA2STB = 0x39e
                    0x03a0                  DMA2PAD = 0x3a0
                    0x03a0                  _DMA2PAD = 0x3a0
                    0x03a2                  DMA2CNT = 0x3a2
                    0x03a2                  _DMA2CNT = 0x3a2
                    0x03a4                  DMA3CON = 0x3a4
                    0x03a4                  _DMA3CON = 0x3a4
                    0x03a4                  _DMA3CONbits = 0x3a4
                    0x03a6                  DMA3REQ = 0x3a6
                    0x03a6                  _DMA3REQ = 0x3a6
                    0x03a6                  _DMA3REQbits = 0x3a6
                    0x03a8                  DMA3STA = 0x3a8
                    0x03a8                  _DMA3STA = 0x3a8
                    0x03aa                  DMA3STB = 0x3aa
                    0x03aa                  _DMA3STB = 0x3aa
                    0x03ac                  DMA3PAD = 0x3ac
                    0x03ac                  _DMA3PAD = 0x3ac
                    0x03ae                  DMA3CNT = 0x3ae
                    0x03ae                  _DMA3CNT = 0x3ae
                    0x03b0                  DMA4CON = 0x3b0
                    0x03b0                  _DMA4CON = 0x3b0
                    0x03b0                  _DMA4CONbits = 0x3b0
                    0x03b2                  DMA4REQ = 0x3b2
                    0x03b2                  _DMA4REQ = 0x3b2
                    0x03b2                  _DMA4REQbits = 0x3b2
                    0x03b4                  DMA4STA = 0x3b4
                    0x03b4                  _DMA4STA = 0x3b4
                    0x03b6                  DMA4STB = 0x3b6
                    0x03b6                  _DMA4STB = 0x3b6
                    0x03b8                  DMA4PAD = 0x3b8
                    0x03b8                  _DMA4PAD = 0x3b8
                    0x03ba                  DMA4CNT = 0x3ba
                    0x03ba                  _DMA4CNT = 0x3ba
                    0x03bc                  DMA5CON = 0x3bc
                    0x03bc                  _DMA5CON = 0x3bc
                    0x03bc                  _DMA5CONbits = 0x3bc
                    0x03be                  DMA5REQ = 0x3be
                    0x03be                  _DMA5REQ = 0x3be
                    0x03be                  _DMA5REQbits = 0x3be
                    0x03c0                  DMA5STA = 0x3c0
                    0x03c0                  _DMA5STA = 0x3c0
                    0x03c2                  DMA5STB = 0x3c2
                    0x03c2                  _DMA5STB = 0x3c2
                    0x03c4                  DMA5PAD = 0x3c4
                    0x03c4                  _DMA5PAD = 0x3c4
                    0x03c6                  DMA5CNT = 0x3c6
                    0x03c6                  _DMA5CNT = 0x3c6
                    0x03c8                  DMA6CON = 0x3c8
                    0x03c8                  _DMA6CON = 0x3c8
                    0x03c8                  _DMA6CONbits = 0x3c8
                    0x03ca                  DMA6REQ = 0x3ca
                    0x03ca                  _DMA6REQ = 0x3ca
                    0x03ca                  _DMA6REQbits = 0x3ca
                    0x03cc                  DMA6STA = 0x3cc
                    0x03cc                  _DMA6STA = 0x3cc
                    0x03ce                  DMA6STB = 0x3ce
                    0x03ce                  _DMA6STB = 0x3ce
                    0x03d0                  DMA6PAD = 0x3d0
                    0x03d0                  _DMA6PAD = 0x3d0
                    0x03d2                  DMA6CNT = 0x3d2
                    0x03d2                  _DMA6CNT = 0x3d2
                    0x03d4                  DMA7CON = 0x3d4
                    0x03d4                  _DMA7CON = 0x3d4
                    0x03d4                  _DMA7CONbits = 0x3d4
                    0x03d6                  DMA7REQ = 0x3d6
                    0x03d6                  _DMA7REQ = 0x3d6
                    0x03d6                  _DMA7REQbits = 0x3d6
                    0x03d8                  DMA7STA = 0x3d8
                    0x03d8                  _DMA7STA = 0x3d8
                    0x03da                  DMA7STB = 0x3da
                    0x03da                  _DMA7STB = 0x3da
                    0x03dc                  DMA7PAD = 0x3dc
                    0x03dc                  _DMA7PAD = 0x3dc
                    0x03de                  DMA7CNT = 0x3de
                    0x03de                  _DMA7CNT = 0x3de
                    0x03e0                  DMACS0 = 0x3e0
                    0x03e0                  _DMACS0 = 0x3e0
                    0x03e0                  _DMACS0bits = 0x3e0
                    0x03e2                  DMACS1 = 0x3e2
                    0x03e2                  _DMACS1 = 0x3e2
                    0x03e2                  _DMACS1bits = 0x3e2
                    0x03e4                  DSADR = 0x3e4
                    0x03e4                  _DSADR = 0x3e4
                    0x0400                  C1CTRL1 = 0x400
                    0x0400                  _C1CTRL1 = 0x400
                    0x0400                  _C1CTRL1bits = 0x400
                    0x0402                  C1CTRL2 = 0x402
                    0x0402                  _C1CTRL2 = 0x402
                    0x0402                  _C1CTRL2bits = 0x402
                    0x0404                  C1VEC = 0x404
                    0x0404                  _C1VEC = 0x404
                    0x0404                  _C1VECbits = 0x404
                    0x0406                  C1FCTRL = 0x406
                    0x0406                  _C1FCTRL = 0x406
                    0x0406                  _C1FCTRLbits = 0x406
                    0x0408                  C1FIFO = 0x408
                    0x0408                  _C1FIFO = 0x408
                    0x0408                  _C1FIFObits = 0x408
                    0x040a                  C1INTF = 0x40a
                    0x040a                  _C1INTF = 0x40a
                    0x040a                  _C1INTFbits = 0x40a
                    0x040c                  C1INTE = 0x40c
                    0x040c                  _C1INTE = 0x40c
                    0x040c                  _C1INTEbits = 0x40c
                    0x040e                  C1EC = 0x40e
                    0x040e                  _C1EC = 0x40e
                    0x040e                  _C1ECbits = 0x40e
                    0x040e                  C1RERRCNT = 0x40e
                    0x040e                  _C1RERRCNT = 0x40e
                    0x040f                  C1TERRCNT = 0x40f
                    0x040f                  _C1TERRCNT = 0x40f
                    0x0410                  C1CFG1 = 0x410
                    0x0410                  _C1CFG1 = 0x410
                    0x0410                  _C1CFG1bits = 0x410
                    0x0412                  C1CFG2 = 0x412
                    0x0412                  _C1CFG2 = 0x412
                    0x0412                  _C1CFG2bits = 0x412
                    0x0414                  C1FEN1 = 0x414
                    0x0414                  _C1FEN1 = 0x414
                    0x0414                  _C1FEN1bits = 0x414
                    0x0418                  C1FMSKSEL1 = 0x418
                    0x0418                  _C1FMSKSEL1 = 0x418
                    0x0418                  _C1FMSKSEL1bits = 0x418
                    0x041a                  C1FMSKSEL2 = 0x41a
                    0x041a                  _C1FMSKSEL2 = 0x41a
                    0x041a                  _C1FMSKSEL2bits = 0x41a
                    0x0420                  C1BUFPNT1 = 0x420
                    0x0420                  _C1BUFPNT1 = 0x420
                    0x0420                  _C1BUFPNT1bits = 0x420
                    0x0420                  C1RXFUL1 = 0x420
                    0x0420                  _C1RXFUL1 = 0x420
                    0x0420                  _C1RXFUL1bits = 0x420
                    0x0422                  C1BUFPNT2 = 0x422
                    0x0422                  _C1BUFPNT2 = 0x422
                    0x0422                  _C1BUFPNT2bits = 0x422
                    0x0422                  C1RXFUL2 = 0x422
                    0x0422                  _C1RXFUL2 = 0x422
                    0x0422                  _C1RXFUL2bits = 0x422
                    0x0424                  C1BUFPNT3 = 0x424
                    0x0424                  _C1BUFPNT3 = 0x424
                    0x0424                  _C1BUFPNT3bits = 0x424
                    0x0426                  C1BUFPNT4 = 0x426
                    0x0426                  _C1BUFPNT4 = 0x426
                    0x0426                  _C1BUFPNT4bits = 0x426
                    0x0428                  C1RXOVF1 = 0x428
                    0x0428                  _C1RXOVF1 = 0x428
                    0x0428                  _C1RXOVF1bits = 0x428
                    0x042a                  C1RXOVF2 = 0x42a
                    0x042a                  _C1RXOVF2 = 0x42a
                    0x042a                  _C1RXOVF2bits = 0x42a
                    0x0430                  C1RXM0SID = 0x430
                    0x0430                  _C1RXM0SID = 0x430
                    0x0430                  _C1RXM0SIDbits = 0x430
                    0x0430                  C1TR01CON = 0x430
                    0x0430                  _C1TR01CON = 0x430
                    0x0430                  _C1TR01CONbits = 0x430
                    0x0432                  C1RXM0EID = 0x432
                    0x0432                  _C1RXM0EID = 0x432
                    0x0432                  _C1RXM0EIDbits = 0x432
                    0x0432                  C1TR23CON = 0x432
                    0x0432                  _C1TR23CON = 0x432
                    0x0432                  _C1TR23CONbits = 0x432
                    0x0434                  C1RXM1SID = 0x434
                    0x0434                  _C1RXM1SID = 0x434
                    0x0434                  _C1RXM1SIDbits = 0x434
                    0x0434                  C1TR45CON = 0x434
                    0x0434                  _C1TR45CON = 0x434
                    0x0434                  _C1TR45CONbits = 0x434
                    0x0436                  C1RXM1EID = 0x436
                    0x0436                  _C1RXM1EID = 0x436
                    0x0436                  _C1RXM1EIDbits = 0x436
                    0x0436                  C1TR67CON = 0x436
                    0x0436                  _C1TR67CON = 0x436
                    0x0436                  _C1TR67CONbits = 0x436
                    0x0438                  C1RXM2SID = 0x438
                    0x0438                  _C1RXM2SID = 0x438
                    0x0438                  _C1RXM2SIDbits = 0x438
                    0x043a                  C1RXM2EID = 0x43a
                    0x043a                  _C1RXM2EID = 0x43a
                    0x043a                  _C1RXM2EIDbits = 0x43a
                    0x0440                  C1RXD = 0x440
                    0x0440                  _C1RXD = 0x440
                    0x0440                  C1RXF0SID = 0x440
                    0x0440                  _C1RXF0SID = 0x440
                    0x0440                  _C1RXF0SIDbits = 0x440
                    0x0442                  C1RXF0EID = 0x442
                    0x0442                  _C1RXF0EID = 0x442
                    0x0442                  _C1RXF0EIDbits = 0x442
                    0x0442                  C1TXD = 0x442
                    0x0442                  _C1TXD = 0x442
                    0x0444                  C1RXF1SID = 0x444
                    0x0444                  _C1RXF1SID = 0x444
                    0x0444                  _C1RXF1SIDbits = 0x444
                    0x0446                  C1RXF1EID = 0x446
                    0x0446                  _C1RXF1EID = 0x446
                    0x0446                  _C1RXF1EIDbits = 0x446
                    0x0448                  C1RXF2SID = 0x448
                    0x0448                  _C1RXF2SID = 0x448
                    0x0448                  _C1RXF2SIDbits = 0x448
                    0x044a                  C1RXF2EID = 0x44a
                    0x044a                  _C1RXF2EID = 0x44a
                    0x044a                  _C1RXF2EIDbits = 0x44a
                    0x044c                  C1RXF3SID = 0x44c
                    0x044c                  _C1RXF3SID = 0x44c
                    0x044c                  _C1RXF3SIDbits = 0x44c
                    0x044e                  C1RXF3EID = 0x44e
                    0x044e                  _C1RXF3EID = 0x44e
                    0x044e                  _C1RXF3EIDbits = 0x44e
                    0x0450                  C1RXF4SID = 0x450
                    0x0450                  _C1RXF4SID = 0x450
                    0x0450                  _C1RXF4SIDbits = 0x450
                    0x0452                  C1RXF4EID = 0x452
                    0x0452                  _C1RXF4EID = 0x452
                    0x0452                  _C1RXF4EIDbits = 0x452
                    0x0454                  C1RXF5SID = 0x454
                    0x0454                  _C1RXF5SID = 0x454
                    0x0454                  _C1RXF5SIDbits = 0x454
                    0x0456                  C1RXF5EID = 0x456
                    0x0456                  _C1RXF5EID = 0x456
                    0x0456                  _C1RXF5EIDbits = 0x456
                    0x0458                  C1RXF6SID = 0x458
                    0x0458                  _C1RXF6SID = 0x458
                    0x0458                  _C1RXF6SIDbits = 0x458
                    0x045a                  C1RXF6EID = 0x45a
                    0x045a                  _C1RXF6EID = 0x45a
                    0x045a                  _C1RXF6EIDbits = 0x45a
                    0x045c                  C1RXF7SID = 0x45c
                    0x045c                  _C1RXF7SID = 0x45c
                    0x045c                  _C1RXF7SIDbits = 0x45c
                    0x045e                  C1RXF7EID = 0x45e
                    0x045e                  _C1RXF7EID = 0x45e
                    0x045e                  _C1RXF7EIDbits = 0x45e
                    0x0460                  C1RXF8SID = 0x460
                    0x0460                  _C1RXF8SID = 0x460
                    0x0460                  _C1RXF8SIDbits = 0x460
                    0x0462                  C1RXF8EID = 0x462
                    0x0462                  _C1RXF8EID = 0x462
                    0x0462                  _C1RXF8EIDbits = 0x462
                    0x0464                  C1RXF9SID = 0x464
                    0x0464                  _C1RXF9SID = 0x464
                    0x0464                  _C1RXF9SIDbits = 0x464
                    0x0466                  C1RXF9EID = 0x466
                    0x0466                  _C1RXF9EID = 0x466
                    0x0466                  _C1RXF9EIDbits = 0x466
                    0x0468                  C1RXF10SID = 0x468
                    0x0468                  _C1RXF10SID = 0x468
                    0x0468                  _C1RXF10SIDbits = 0x468
                    0x046a                  C1RXF10EID = 0x46a
                    0x046a                  _C1RXF10EID = 0x46a
                    0x046a                  _C1RXF10EIDbits = 0x46a
                    0x046c                  C1RXF11SID = 0x46c
                    0x046c                  _C1RXF11SID = 0x46c
                    0x046c                  _C1RXF11SIDbits = 0x46c
                    0x046e                  C1RXF11EID = 0x46e
                    0x046e                  _C1RXF11EID = 0x46e
                    0x046e                  _C1RXF11EIDbits = 0x46e
                    0x0470                  C1RXF12SID = 0x470
                    0x0470                  _C1RXF12SID = 0x470
                    0x0470                  _C1RXF12SIDbits = 0x470
                    0x0472                  C1RXF12EID = 0x472
                    0x0472                  _C1RXF12EID = 0x472
                    0x0472                  _C1RXF12EIDbits = 0x472
                    0x0474                  C1RXF13SID = 0x474
                    0x0474                  _C1RXF13SID = 0x474
                    0x0474                  _C1RXF13SIDbits = 0x474
                    0x0476                  C1RXF13EID = 0x476
                    0x0476                  _C1RXF13EID = 0x476
                    0x0476                  _C1RXF13EIDbits = 0x476
                    0x0478                  C1RXF14SID = 0x478
                    0x0478                  _C1RXF14SID = 0x478
                    0x0478                  _C1RXF14SIDbits = 0x478
                    0x047a                  C1RXF14EID = 0x47a
                    0x047a                  _C1RXF14EID = 0x47a
                    0x047a                  _C1RXF14EIDbits = 0x47a
                    0x047c                  C1RXF15SID = 0x47c
                    0x047c                  _C1RXF15SID = 0x47c
                    0x047c                  _C1RXF15SIDbits = 0x47c
                    0x047e                  C1RXF15EID = 0x47e
                    0x047e                  _C1RXF15EID = 0x47e
                    0x047e                  _C1RXF15EIDbits = 0x47e
                    0x0500                  C2CTRL1 = 0x500
                    0x0500                  _C2CTRL1 = 0x500
                    0x0500                  _C2CTRL1bits = 0x500
                    0x0502                  C2CTRL2 = 0x502
                    0x0502                  _C2CTRL2 = 0x502
                    0x0502                  _C2CTRL2bits = 0x502
                    0x0504                  C2VEC = 0x504
                    0x0504                  _C2VEC = 0x504
                    0x0504                  _C2VECbits = 0x504
                    0x0506                  C2FCTRL = 0x506
                    0x0506                  _C2FCTRL = 0x506
                    0x0506                  _C2FCTRLbits = 0x506
                    0x0508                  C2FIFO = 0x508
                    0x0508                  _C2FIFO = 0x508
                    0x0508                  _C2FIFObits = 0x508
                    0x050a                  C2INTF = 0x50a
                    0x050a                  _C2INTF = 0x50a
                    0x050a                  _C2INTFbits = 0x50a
                    0x050c                  C2INTE = 0x50c
                    0x050c                  _C2INTE = 0x50c
                    0x050c                  _C2INTEbits = 0x50c
                    0x050e                  C2EC = 0x50e
                    0x050e                  _C2EC = 0x50e
                    0x050e                  _C2ECbits = 0x50e
                    0x050e                  C2RERRCNT = 0x50e
                    0x050e                  _C2RERRCNT = 0x50e
                    0x050f                  C2TERRCNT = 0x50f
                    0x050f                  _C2TERRCNT = 0x50f
                    0x0510                  C2CFG1 = 0x510
                    0x0510                  _C2CFG1 = 0x510
                    0x0510                  _C2CFG1bits = 0x510
                    0x0512                  C2CFG2 = 0x512
                    0x0512                  _C2CFG2 = 0x512
                    0x0512                  _C2CFG2bits = 0x512
                    0x0514                  C2FEN1 = 0x514
                    0x0514                  _C2FEN1 = 0x514
                    0x0514                  _C2FEN1bits = 0x514
                    0x0518                  C2FMSKSEL1 = 0x518
                    0x0518                  _C2FMSKSEL1 = 0x518
                    0x0518                  _C2FMSKSEL1bits = 0x518
                    0x051a                  C2FMSKSEL2 = 0x51a
                    0x051a                  _C2FMSKSEL2 = 0x51a
                    0x051a                  _C2FMSKSEL2bits = 0x51a
                    0x0520                  C2BUFPNT1 = 0x520
                    0x0520                  _C2BUFPNT1 = 0x520
                    0x0520                  _C2BUFPNT1bits = 0x520
                    0x0520                  C2RXFUL1 = 0x520
                    0x0520                  _C2RXFUL1 = 0x520
                    0x0520                  _C2RXFUL1bits = 0x520
                    0x0522                  C2BUFPNT2 = 0x522
                    0x0522                  _C2BUFPNT2 = 0x522
                    0x0522                  _C2BUFPNT2bits = 0x522
                    0x0522                  C2RXFUL2 = 0x522
                    0x0522                  _C2RXFUL2 = 0x522
                    0x0522                  _C2RXFUL2bits = 0x522
                    0x0524                  C2BUFPNT3 = 0x524
                    0x0524                  _C2BUFPNT3 = 0x524
                    0x0524                  _C2BUFPNT3bits = 0x524
                    0x0526                  C2BUFPNT4 = 0x526
                    0x0526                  _C2BUFPNT4 = 0x526
                    0x0526                  _C2BUFPNT4bits = 0x526
                    0x0528                  C2RXOVF1 = 0x528
                    0x0528                  _C2RXOVF1 = 0x528
                    0x0528                  _C2RXOVF1bits = 0x528
                    0x052a                  C2RXOVF2 = 0x52a
                    0x052a                  _C2RXOVF2 = 0x52a
                    0x052a                  _C2RXOVF2bits = 0x52a
                    0x0530                  C2RXM0SID = 0x530
                    0x0530                  _C2RXM0SID = 0x530
                    0x0530                  _C2RXM0SIDbits = 0x530
                    0x0530                  C2TR01CON = 0x530
                    0x0530                  _C2TR01CON = 0x530
                    0x0530                  _C2TR01CONbits = 0x530
                    0x0532                  C2RXM0EID = 0x532
                    0x0532                  _C2RXM0EID = 0x532
                    0x0532                  _C2RXM0EIDbits = 0x532
                    0x0532                  C2TR23CON = 0x532
                    0x0532                  _C2TR23CON = 0x532
                    0x0532                  _C2TR23CONbits = 0x532
                    0x0534                  C2RXM1SID = 0x534
                    0x0534                  _C2RXM1SID = 0x534
                    0x0534                  _C2RXM1SIDbits = 0x534
                    0x0534                  C2TR45CON = 0x534
                    0x0534                  _C2TR45CON = 0x534
                    0x0534                  _C2TR45CONbits = 0x534
                    0x0536                  C2RXM1EID = 0x536
                    0x0536                  _C2RXM1EID = 0x536
                    0x0536                  _C2RXM1EIDbits = 0x536
                    0x0536                  C2TR67CON = 0x536
                    0x0536                  _C2TR67CON = 0x536
                    0x0536                  _C2TR67CONbits = 0x536
                    0x0538                  C2RXM2SID = 0x538
                    0x0538                  _C2RXM2SID = 0x538
                    0x0538                  _C2RXM2SIDbits = 0x538
                    0x053a                  C2RXM2EID = 0x53a
                    0x053a                  _C2RXM2EID = 0x53a
                    0x053a                  _C2RXM2EIDbits = 0x53a
                    0x0540                  C2RXD = 0x540
                    0x0540                  _C2RXD = 0x540
                    0x0540                  C2RXF0SID = 0x540
                    0x0540                  _C2RXF0SID = 0x540
                    0x0540                  _C2RXF0SIDbits = 0x540
                    0x0542                  C2RXF0EID = 0x542
                    0x0542                  _C2RXF0EID = 0x542
                    0x0542                  _C2RXF0EIDbits = 0x542
                    0x0542                  C2TXD = 0x542
                    0x0542                  _C2TXD = 0x542
                    0x0544                  C2RXF1SID = 0x544
                    0x0544                  _C2RXF1SID = 0x544
                    0x0544                  _C2RXF1SIDbits = 0x544
                    0x0546                  C2RXF1EID = 0x546
                    0x0546                  _C2RXF1EID = 0x546
                    0x0546                  _C2RXF1EIDbits = 0x546
                    0x0548                  C2RXF2SID = 0x548
                    0x0548                  _C2RXF2SID = 0x548
                    0x0548                  _C2RXF2SIDbits = 0x548
                    0x054a                  C2RXF2EID = 0x54a
                    0x054a                  _C2RXF2EID = 0x54a
                    0x054a                  _C2RXF2EIDbits = 0x54a
                    0x054c                  C2RXF3SID = 0x54c
                    0x054c                  _C2RXF3SID = 0x54c
                    0x054c                  _C2RXF3SIDbits = 0x54c
                    0x054e                  C2RXF3EID = 0x54e
                    0x054e                  _C2RXF3EID = 0x54e
                    0x054e                  _C2RXF3EIDbits = 0x54e
                    0x0550                  C2RXF4SID = 0x550
                    0x0550                  _C2RXF4SID = 0x550
                    0x0550                  _C2RXF4SIDbits = 0x550
                    0x0552                  C2RXF4EID = 0x552
                    0x0552                  _C2RXF4EID = 0x552
                    0x0552                  _C2RXF4EIDbits = 0x552
                    0x0554                  C2RXF5SID = 0x554
                    0x0554                  _C2RXF5SID = 0x554
                    0x0554                  _C2RXF5SIDbits = 0x554
                    0x0556                  C2RXF5EID = 0x556
                    0x0556                  _C2RXF5EID = 0x556
                    0x0556                  _C2RXF5EIDbits = 0x556
                    0x0558                  C2RXF6SID = 0x558
                    0x0558                  _C2RXF6SID = 0x558
                    0x0558                  _C2RXF6SIDbits = 0x558
                    0x055a                  C2RXF6EID = 0x55a
                    0x055a                  _C2RXF6EID = 0x55a
                    0x055a                  _C2RXF6EIDbits = 0x55a
                    0x055c                  C2RXF7SID = 0x55c
                    0x055c                  _C2RXF7SID = 0x55c
                    0x055c                  _C2RXF7SIDbits = 0x55c
                    0x055e                  C2RXF7EID = 0x55e
                    0x055e                  _C2RXF7EID = 0x55e
                    0x055e                  _C2RXF7EIDbits = 0x55e
                    0x0560                  C2RXF8SID = 0x560
                    0x0560                  _C2RXF8SID = 0x560
                    0x0560                  _C2RXF8SIDbits = 0x560
                    0x0562                  C2RXF8EID = 0x562
                    0x0562                  _C2RXF8EID = 0x562
                    0x0562                  _C2RXF8EIDbits = 0x562
                    0x0564                  C2RXF9SID = 0x564
                    0x0564                  _C2RXF9SID = 0x564
                    0x0564                  _C2RXF9SIDbits = 0x564
                    0x0566                  C2RXF9EID = 0x566
                    0x0566                  _C2RXF9EID = 0x566
                    0x0566                  _C2RXF9EIDbits = 0x566
                    0x0568                  C2RXF10SID = 0x568
                    0x0568                  _C2RXF10SID = 0x568
                    0x0568                  _C2RXF10SIDbits = 0x568
                    0x056a                  C2RXF10EID = 0x56a
                    0x056a                  _C2RXF10EID = 0x56a
                    0x056a                  _C2RXF10EIDbits = 0x56a
                    0x056c                  C2RXF11SID = 0x56c
                    0x056c                  _C2RXF11SID = 0x56c
                    0x056c                  _C2RXF11SIDbits = 0x56c
                    0x056e                  C2RXF11EID = 0x56e
                    0x056e                  _C2RXF11EID = 0x56e
                    0x056e                  _C2RXF11EIDbits = 0x56e
                    0x0570                  C2RXF12SID = 0x570
                    0x0570                  _C2RXF12SID = 0x570
                    0x0570                  _C2RXF12SIDbits = 0x570
                    0x0572                  C2RXF12EID = 0x572
                    0x0572                  _C2RXF12EID = 0x572
                    0x0572                  _C2RXF12EIDbits = 0x572
                    0x0574                  C2RXF13SID = 0x574
                    0x0574                  _C2RXF13SID = 0x574
                    0x0574                  _C2RXF13SIDbits = 0x574
                    0x0576                  C2RXF13EID = 0x576
                    0x0576                  _C2RXF13EID = 0x576
                    0x0576                  _C2RXF13EIDbits = 0x576
                    0x0578                  C2RXF14SID = 0x578
                    0x0578                  _C2RXF14SID = 0x578
                    0x0578                  _C2RXF14SIDbits = 0x578
                    0x057a                  C2RXF14EID = 0x57a
                    0x057a                  _C2RXF14EID = 0x57a
                    0x057a                  _C2RXF14EIDbits = 0x57a
                    0x057c                  C2RXF15SID = 0x57c
                    0x057c                  _C2RXF15SID = 0x57c
                    0x057c                  _C2RXF15SIDbits = 0x57c
                    0x057e                  C2RXF15EID = 0x57e
                    0x057e                  _C2RXF15EID = 0x57e
                    0x057e                  _C2RXF15EIDbits = 0x57e
                    0x06c0                  ODCA = 0x6c0
                    0x06c0                  _ODCA = 0x6c0
                    0x06c0                  _ODCAbits = 0x6c0
                    0x06d2                  ODCD = 0x6d2
                    0x06d2                  _ODCD = 0x6d2
                    0x06d2                  _ODCDbits = 0x6d2
                    0x06de                  ODCF = 0x6de
                    0x06de                  _ODCF = 0x6de
                    0x06de                  _ODCFbits = 0x6de
                    0x06e4                  ODCG = 0x6e4
                    0x06e4                  _ODCG = 0x6e4
                    0x06e4                  _ODCGbits = 0x6e4
                    0x0740                  RCON = 0x740
                    0x0740                  _RCON = 0x740
                    0x0740                  _RCONbits = 0x740
                    0x0742                  OSCCON = 0x742
                    0x0742                  _OSCCON = 0x742
                    0x0742                  _OSCCONbits = 0x742
                    0x0742                  OSCCONL = 0x742
                    0x0742                  _OSCCONL = 0x742
                    0x0743                  OSCCONH = 0x743
                    0x0743                  _OSCCONH = 0x743
                    0x0744                  CLKDIV = 0x744
                    0x0744                  _CLKDIV = 0x744
                    0x0744                  _CLKDIVbits = 0x744
                    0x0746                  PLLFBD = 0x746
                    0x0746                  _PLLFBD = 0x746
                    0x0746                  _PLLFBDbits = 0x746
                    0x0748                  OSCTUN = 0x748
                    0x0748                  _OSCTUN = 0x748
                    0x0748                  _OSCTUNbits = 0x748
                    0x0750                  BSRAM = 0x750
                    0x0750                  _BSRAM = 0x750
                    0x0750                  _BSRAMbits = 0x750
                    0x0752                  SSRAM = 0x752
                    0x0752                  _SSRAM = 0x752
                    0x0752                  _SSRAMbits = 0x752
                    0x0760                  NVMCON = 0x760
                    0x0760                  _NVMCON = 0x760
                    0x0760                  _NVMCONbits = 0x760
                    0x0766                  NVMKEY = 0x766
                    0x0766                  _NVMKEY = 0x766
                    0x0770                  PMD1 = 0x770
                    0x0770                  _PMD1 = 0x770
                    0x0770                  _PMD1bits = 0x770
                    0x0772                  PMD2 = 0x772
                    0x0772                  _PMD2 = 0x772
                    0x0772                  _PMD2bits = 0x772
                    0x0774                  PMD3 = 0x774
                    0x0774                  _PMD3 = 0x774
                    0x0774                  _PMD3bits = 0x774
                    0x0022                  ACCA = 0x22
                    0x0022                  _ACCA = 0x22
                    0x0028                  ACCB = 0x28
                    0x0028                  _ACCB = 0x28
                    0x0440                  CAN1 = 0x440
                    0x0440                  _CAN1 = 0x440
                    0x0540                  CAN2 = 0x540
                    0x0540                  _CAN2 = 0x540
                    0x0140                  IC1 = 0x140
                    0x0140                  _IC1 = 0x140
                    0x0144                  IC2 = 0x144
                    0x0144                  _IC2 = 0x144
                    0x0148                  IC3 = 0x148
                    0x0148                  _IC3 = 0x148
                    0x014c                  IC4 = 0x14c
                    0x014c                  _IC4 = 0x14c
                    0x0150                  IC5 = 0x150
                    0x0150                  _IC5 = 0x150
                    0x0154                  IC6 = 0x154
                    0x0154                  _IC6 = 0x154
                    0x0158                  IC7 = 0x158
                    0x0158                  _IC7 = 0x158
                    0x015c                  IC8 = 0x15c
                    0x015c                  _IC8 = 0x15c
                    0x0180                  OC1 = 0x180
                    0x0180                  _OC1 = 0x180
                    0x0186                  OC2 = 0x186
                    0x0186                  _OC2 = 0x186
                    0x018c                  OC3 = 0x18c
                    0x018c                  _OC3 = 0x18c
                    0x0192                  OC4 = 0x192
                    0x0192                  _OC4 = 0x192
                    0x0198                  OC5 = 0x198
                    0x0198                  _OC5 = 0x198
                    0x019e                  OC6 = 0x19e
                    0x019e                  _OC6 = 0x19e
                    0x01a4                  OC7 = 0x1a4
                    0x01a4                  _OC7 = 0x1a4
                    0x01aa                  OC8 = 0x1aa
                    0x01aa                  _OC8 = 0x1aa
                    0x0240                  SPI1 = 0x240
                    0x0240                  _SPI1 = 0x240
                    0x0260                  SPI2 = 0x260
                    0x0260                  _SPI2 = 0x260
                    0x0220                  UART1 = 0x220
                    0x0220                  _UART1 = 0x220
                    0x0230                  UART2 = 0x230
                    0x0230                  _UART2 = 0x230
START GROUP
LOAD c:/program files (x86)/microchip/xc16/v1.10/bin/bin/../../lib\liblega-pic30-elf.a
LOAD c:/program files (x86)/microchip/xc16/v1.10/bin/bin/../../lib\libm-elf.a
LOAD c:/program files (x86)/microchip/xc16/v1.10/bin/bin/../../lib\liblega-c-elf.a
END GROUP
OUTPUT(dist/default/production/MatrixPilot-udb5.X.production.elf elf32-pic30)
LOAD FGS
LOAD jump_table
LOAD default_isr
LOAD heap
LOAD data_init

.debug_pubtypes
                  0x0006d0       0x27fc
 .debug_pubtypes
                  0x0006d0         0xa5 build/default/production/_ext/1077471063/estWind.o
 .debug_pubtypes
                  0x000775         0x81 build/default/production/_ext/1077471063/estYawDrift.o
 .debug_pubtypes
                  0x0007f6         0xef build/default/production/_ext/1077471063/gpsParseCommon.o
 .debug_pubtypes
                  0x0008e5         0x88 build/default/production/_ext/1077471063/gpsParseSTD.o
 .debug_pubtypes
                  0x00096d         0x12 build/default/production/_ext/1077471063/gpsParseUBX.o
 .debug_pubtypes
                  0x00097f         0x70 build/default/production/_ext/1077471063/mathlibNAV.o
 .debug_pubtypes
                  0x0009ef         0xc9 build/default/production/_ext/1077471063/rmat.o
 .debug_pubtypes
                  0x000ab8         0xb0 build/default/production/_ext/1077471063/libDCM.o
 .debug_pubtypes
                  0x000b68         0xed build/default/production/_ext/1077471063/deadReckoning.o
 .debug_pubtypes
                  0x000c55         0x12 build/default/production/_ext/1077471063/gpsParseMTEK.o
 .debug_pubtypes
                  0x000c67         0x12 build/default/production/_ext/1077471063/gpsParseNMEA.o
 .debug_pubtypes
                  0x000c79        0x1ed build/default/production/_ext/1077454706/background.o
 .debug_pubtypes
                  0x000e66         0xac build/default/production/_ext/1077454706/libUDB.o
 .debug_pubtypes
                  0x000f12         0x12 build/default/production/_ext/1077454706/analog2digital_udb4.o
 .debug_pubtypes
                  0x000f24        0x143 build/default/production/_ext/1077454706/servoOut.o
 .debug_pubtypes
                  0x001067         0x4d build/default/production/_ext/1077454706/osd.o
 .debug_pubtypes
                  0x0010b4         0x12 build/default/production/_ext/1077454706/24LC256.o
 .debug_pubtypes
                  0x0010c6        0x146 build/default/production/_ext/1077454706/events.o
 .debug_pubtypes
                  0x00120c        0x252 build/default/production/_ext/1077454706/analog2digital_udb5.o
 .debug_pubtypes
                  0x00145e        0x117 build/default/production/_ext/1077454706/mpu6000.o
 .debug_pubtypes
                  0x001575         0xf2 build/default/production/_ext/1077454706/mcu.o
 .debug_pubtypes
                  0x001667         0x69 build/default/production/_ext/1077454706/eeprom_udb4.o
 .debug_pubtypes
                  0x0016d0         0x90 build/default/production/_ext/1077454706/barometer.o
 .debug_pubtypes
                  0x001760         0x45 build/default/production/_ext/1077454706/magnetometer.o
 .debug_pubtypes
                  0x0017a5        0x202 build/default/production/_ext/1077454706/radioIn.o
 .debug_pubtypes
                  0x0019a7        0x1ac build/default/production/_ext/1077454706/serialIO.o
 .debug_pubtypes
                  0x001b53         0x12 build/default/production/_ext/1077454706/I2C1.o
 .debug_pubtypes
                  0x001b65        0x153 build/default/production/_ext/1077454706/I2C2.o
 .debug_pubtypes
                  0x001cb8         0x92 build/default/production/_ext/1077454706/read.o
 .debug_pubtypes
                  0x001d4a         0x12 build/default/production/_ext/1077454706/uart.o
 .debug_pubtypes
                  0x001d5c         0x92 build/default/production/_ext/1077454706/write.o
 .debug_pubtypes
                  0x001dee         0x12 build/default/production/_ext/1077454706/analog2digital_auav3.o
 .debug_pubtypes
                  0x001e00         0x4a build/default/production/_ext/1077454706/analogs.o
 .debug_pubtypes
                  0x001e4a         0x4f build/default/production/_ext/1077454706/traps.o
 .debug_pubtypes
                  0x001e99         0x65 build/default/production/_ext/1077454706/osd_bit.o
 .debug_pubtypes
                  0x001efe         0x12 build/default/production/_ext/1077454706/osd_spi.o
 .debug_pubtypes
                  0x001f10        0x10e build/default/production/_ext/1077454706/mpu_spi.o
 .debug_pubtypes
                  0x00201e         0x8f build/default/production/_ext/1077454706/heartbeat.o
 .debug_pubtypes
                  0x0020ad         0x12 build/default/production/_ext/1077454706/sonarIn.o
 .debug_pubtypes
                  0x0020bf         0x12 build/default/production/_ext/1472/config_tests.o
 .debug_pubtypes
                  0x0020d1         0x9f build/default/production/_ext/1472/behavior.o
 .debug_pubtypes
                  0x002170         0x4b build/default/production/_ext/1472/cameraCntrl.o
 .debug_pubtypes
                  0x0021bb         0x12 build/default/production/_ext/1472/main.o
 .debug_pubtypes
                  0x0021cd        0x10a build/default/production/_ext/1472/navigate.o
 .debug_pubtypes
                  0x0022d7         0xd4 build/default/production/_ext/1472/pitchCntrl.o
 .debug_pubtypes
                  0x0023ab         0xa5 build/default/production/_ext/1472/rollCntrl.o
 .debug_pubtypes
                  0x002450         0x8d build/default/production/_ext/1472/servoMix.o
 .debug_pubtypes
                  0x0024dd         0xe0 build/default/production/_ext/1472/states.o
 .debug_pubtypes
                  0x0025bd         0xd4 build/default/production/_ext/1472/yawCntrl.o
 .debug_pubtypes
                  0x002691        0x14a build/default/production/_ext/1472/telemetry.o
 .debug_pubtypes
                  0x0027db         0x4f build/default/production/_ext/1472/servoPrepare.o
 .debug_pubtypes
                  0x00282a         0x12 build/default/production/_ext/1472/flightplan-waypoints.o
 .debug_pubtypes
                  0x00283c        0x165 build/default/production/_ext/1472/flightplan-logo.o
 .debug_pubtypes
                  0x0029a1        0x11d build/default/production/_ext/1472/mp_osd.o
 .debug_pubtypes
                  0x002abe         0xf7 build/default/production/_ext/1472/altitudeCntrl.o
 .debug_pubtypes
                  0x002bb5         0x12 build/default/production/_ext/1472/MAVLink.o
 .debug_pubtypes
                  0x002bc7         0x81 build/default/production/_ext/1472/mode_switch.o
 .debug_pubtypes
                  0x002c48         0x12 build/default/production/_ext/1472/data_services.o
 .debug_pubtypes
                  0x002c5a         0x12 build/default/production/_ext/1472/data_storage.o
 .debug_pubtypes
                  0x002c6c         0x12 build/default/production/_ext/1472/nv_memory_table.o
 .debug_pubtypes
                  0x002c7e         0x12 build/default/production/_ext/1472/parameter_table.o
 .debug_pubtypes
                  0x002c90         0x2d build/default/production/_ext/1472/airspeedCntrl.o
 .debug_pubtypes
                  0x002cbd         0x12 build/default/production/_ext/1472/altitudeCntrlVariable.o
 .debug_pubtypes
                  0x002ccf         0x49 build/default/production/_ext/1472/euler_angles.o
 .debug_pubtypes
                  0x002d18         0x12 build/default/production/_ext/1472/fly_by_datalink.o
 .debug_pubtypes
                  0x002d2a         0x12 build/default/production/_ext/1472/console.o
 .debug_pubtypes
                  0x002d3c         0x12 build/default/production/_ext/1472/config.o
 .debug_pubtypes
                  0x002d4e         0x12 build/default/production/_ext/1472/MAVFlexiFunctions.o
 .debug_pubtypes
                  0x002d60         0x12 build/default/production/_ext/1472/MAVMission.o
 .debug_pubtypes
                  0x002d72         0x12 build/default/production/_ext/1472/MAVParams.o
 .debug_pubtypes
                  0x002d84         0x12 build/default/production/_ext/1472/MAVUDBExtra.o
 .debug_pubtypes
                  0x002d96         0x5e build/default/production/_ext/1472/barometerCntrl.o
 .debug_pubtypes
                  0x002df4         0xc6 build/default/production/_ext/1472/sonarCntrl.o
 .debug_pubtypes
                  0x002eba         0x12 build/default/production/_ext/1077471063/estAirspeed.o

__c30_signature
                  0x002ecc        0x3b4
 __c30_signature
                  0x002ecc          0x6 build/default/production/_ext/1077471063/estWind.o
 __c30_signature
                  0x002ed2          0x6 build/default/production/_ext/1077471063/estYawDrift.o
 __c30_signature
                  0x002ed8          0x6 build/default/production/_ext/1077471063/gpsParseCommon.o
 __c30_signature
                  0x002ede          0x6 build/default/production/_ext/1077471063/gpsParseSTD.o
 __c30_signature
                  0x002ee4          0x6 build/default/production/_ext/1077471063/gpsParseUBX.o
 __c30_signature
                  0x002eea          0x6 build/default/production/_ext/1077471063/mathlibNAV.o
 __c30_signature
                  0x002ef0          0x6 build/default/production/_ext/1077471063/rmat.o
 __c30_signature
                  0x002ef6          0x6 build/default/production/_ext/1077471063/libDCM.o
 __c30_signature
                  0x002efc          0x6 build/default/production/_ext/1077471063/deadReckoning.o
 __c30_signature
                  0x002f02          0x6 build/default/production/_ext/1077471063/gpsParseMTEK.o
 __c30_signature
                  0x002f08          0x6 build/default/production/_ext/1077471063/gpsParseNMEA.o
 __c30_signature
                  0x002f0e          0x6 build/default/production/_ext/1077454706/background.o
 __c30_signature
                  0x002f14          0x6 build/default/production/_ext/1077454706/libUDB.o
 __c30_signature
                  0x002f1a          0x6 build/default/production/_ext/1077454706/analog2digital_udb4.o
 __c30_signature
                  0x002f20          0x6 build/default/production/_ext/1077454706/servoOut.o
 __c30_signature
                  0x002f26          0x6 build/default/production/_ext/1077454706/osd.o
 __c30_signature
                  0x002f2c          0x6 build/default/production/_ext/1077454706/24LC256.o
 __c30_signature
                  0x002f32          0x6 build/default/production/_ext/1077454706/events.o
 __c30_signature
                  0x002f38          0x6 build/default/production/_ext/1077454706/analog2digital_udb5.o
 __c30_signature
                  0x002f3e          0x6 build/default/production/_ext/1077454706/mpu6000.o
 __c30_signature
                  0x002f44          0x6 build/default/production/_ext/1077454706/mcu.o
 __c30_signature
                  0x002f4a          0x6 build/default/production/_ext/1077454706/eeprom_udb4.o
 __c30_signature
                  0x002f50          0x6 build/default/production/_ext/1077454706/barometer.o
 __c30_signature
                  0x002f56          0x6 build/default/production/_ext/1077454706/magnetometer.o
 __c30_signature
                  0x002f5c          0x6 build/default/production/_ext/1077454706/radioIn.o
 __c30_signature
                  0x002f62          0x6 build/default/production/_ext/1077454706/serialIO.o
 __c30_signature
                  0x002f68          0x6 build/default/production/_ext/1077454706/I2C1.o
 __c30_signature
                  0x002f6e          0x6 build/default/production/_ext/1077454706/I2C2.o
 __c30_signature
                  0x002f74          0x6 build/default/production/_ext/1077454706/read.o
 __c30_signature
                  0x002f7a          0x6 build/default/production/_ext/1077454706/uart.o
 __c30_signature
                  0x002f80          0x6 build/default/production/_ext/1077454706/write.o
 __c30_signature
                  0x002f86          0x6 build/default/production/_ext/1077454706/analog2digital_auav3.o
 __c30_signature
                  0x002f8c          0x6 build/default/production/_ext/1077454706/analogs.o
 __c30_signature
                  0x002f92          0x6 build/default/production/_ext/1077454706/traps.o
 __c30_signature
                  0x002f98          0x6 build/default/production/_ext/1077454706/osd_bit.o
 __c30_signature
                  0x002f9e          0x6 build/default/production/_ext/1077454706/osd_spi.o
 __c30_signature
                  0x002fa4          0x6 build/default/production/_ext/1077454706/mpu_spi.o
 __c30_signature
                  0x002faa          0x6 build/default/production/_ext/1077454706/heartbeat.o
 __c30_signature
                  0x002fb0          0x6 build/default/production/_ext/1077454706/sonarIn.o
 __c30_signature
                  0x002fb6          0x6 build/default/production/_ext/1472/config_tests.o
 __c30_signature
                  0x002fbc          0x6 build/default/production/_ext/1472/behavior.o
 __c30_signature
                  0x002fc2          0x6 build/default/production/_ext/1472/cameraCntrl.o
 __c30_signature
                  0x002fc8          0x6 build/default/production/_ext/1472/main.o
 __c30_signature
                  0x002fce          0x6 build/default/production/_ext/1472/navigate.o
 __c30_signature
                  0x002fd4          0x6 build/default/production/_ext/1472/pitchCntrl.o
 __c30_signature
                  0x002fda          0x6 build/default/production/_ext/1472/rollCntrl.o
 __c30_signature
                  0x002fe0          0x6 build/default/production/_ext/1472/servoMix.o
 __c30_signature
                  0x002fe6          0x6 build/default/production/_ext/1472/states.o
 __c30_signature
                  0x002fec          0x6 build/default/production/_ext/1472/yawCntrl.o
 __c30_signature
                  0x002ff2          0x6 build/default/production/_ext/1472/telemetry.o
 __c30_signature
                  0x002ff8          0x6 build/default/production/_ext/1472/servoPrepare.o
 __c30_signature
                  0x002ffe          0x6 build/default/production/_ext/1472/flightplan-waypoints.o
 __c30_signature
                  0x003004          0x6 build/default/production/_ext/1472/flightplan-logo.o
 __c30_signature
                  0x00300a          0x6 build/default/production/_ext/1472/mp_osd.o
 __c30_signature
                  0x003010          0x6 build/default/production/_ext/1472/altitudeCntrl.o
 __c30_signature
                  0x003016          0x6 build/default/production/_ext/1472/MAVLink.o
 __c30_signature
                  0x00301c          0x6 build/default/production/_ext/1472/mode_switch.o
 __c30_signature
                  0x003022          0x6 build/default/production/_ext/1472/data_services.o
 __c30_signature
                  0x003028          0x6 build/default/production/_ext/1472/data_storage.o
 __c30_signature
                  0x00302e          0x6 build/default/production/_ext/1472/nv_memory_table.o
 __c30_signature
                  0x003034          0x6 build/default/production/_ext/1472/parameter_table.o
 __c30_signature
                  0x00303a          0x6 build/default/production/_ext/1472/airspeedCntrl.o
 __c30_signature
                  0x003040          0x6 build/default/production/_ext/1472/altitudeCntrlVariable.o
 __c30_signature
                  0x003046          0x6 build/default/production/_ext/1472/euler_angles.o
 __c30_signature
                  0x00304c          0x6 build/default/production/_ext/1472/fly_by_datalink.o
 __c30_signature
                  0x003052          0x6 build/default/production/_ext/1472/console.o
 __c30_signature
                  0x003058          0x6 build/default/production/_ext/1472/config.o
 __c30_signature
                  0x00305e          0x6 build/default/production/_ext/1472/MAVFlexiFunctions.o
 __c30_signature
                  0x003064          0x6 build/default/production/_ext/1472/MAVMission.o
 __c30_signature
                  0x00306a          0x6 build/default/production/_ext/1472/MAVParams.o
 __c30_signature
                  0x003070          0x6 build/default/production/_ext/1472/MAVUDBExtra.o
 __c30_signature
                  0x003076          0x6 build/default/production/_ext/1472/barometerCntrl.o
 __c30_signature
                  0x00307c          0x6 build/default/production/_ext/1472/sonarCntrl.o
 __c30_signature
                  0x003082          0x6 build/default/production/_ext/1077471063/estAirspeed.o
 __c30_signature
                  0x003088          0x6 c:/program files (x86)/microchip/xc16/v1.10/bin/bin/../../lib/dsPIC33F\libp33FJ256GP710A-elf.a(CloseSPI2.o)
 __c30_signature
                  0x00308e          0x6 c:/program files (x86)/microchip/xc16/v1.10/bin/bin/../../lib/dsPIC33F\libp33FJ256GP710A-elf.a(ConfigIntSPI2.o)
 __c30_signature
                  0x003094          0x6 c:/program files (x86)/microchip/xc16/v1.10/bin/bin/../../lib/dsPIC33F\libp33FJ256GP710A-elf.a(OpenSPI2.o)
 __c30_signature
                  0x00309a          0x6 c:/program files (x86)/microchip/xc16/v1.10/bin/bin/../../lib\liblega-pic30-elf.a(crt0_standard.o)
 __c30_signature
                  0x0030a0          0x6 c:/program files (x86)/microchip/xc16/v1.10/bin/bin/../../lib\liblega-pic30-elf.a(data_init_standard.o)
 __c30_signature
                  0x0030a6          0x6 c:/program files (x86)/microchip/xc16/v1.10/bin/bin/../../lib\liblega-pic30-elf.a(c30_uart.Leo)
 __c30_signature
                  0x0030ac          0x6 c:/program files (x86)/microchip/xc16/v1.10/bin/bin/../../lib\liblega-pic30-elf.a(delay32.Leo)
 __c30_signature
                  0x0030b2          0x6 c:/program files (x86)/microchip/xc16/v1.10/bin/bin/../../lib\libm-elf.a(addsf3.eo)
 __c30_signature
                  0x0030b8          0x6 c:/program files (x86)/microchip/xc16/v1.10/bin/bin/../../lib\libm-elf.a(divsf3.eo)
 __c30_signature
                  0x0030be          0x6 c:/program files (x86)/microchip/xc16/v1.10/bin/bin/../../lib\libm-elf.a(divsi3.eo)
 __c30_signature
                  0x0030c4          0x6 c:/program files (x86)/microchip/xc16/v1.10/bin/bin/../../lib\libm-elf.a(expf.eo)
 __c30_signature
                  0x0030ca          0x6 c:/program files (x86)/microchip/xc16/v1.10/bin/bin/../../lib\libm-elf.a(feqltle.eo)
 __c30_signature
                  0x0030d0          0x6 c:/program files (x86)/microchip/xc16/v1.10/bin/bin/../../lib\libm-elf.a(fgtge.eo)
 __c30_signature
                  0x0030d6          0x6 c:/program files (x86)/microchip/xc16/v1.10/bin/bin/../../lib\libm-elf.a(fixsfsi.eo)
 __c30_signature
                  0x0030dc          0x6 c:/program files (x86)/microchip/xc16/v1.10/bin/bin/../../lib\libm-elf.a(fixunssfsi.eo)
 __c30_signature
                  0x0030e2          0x6 c:/program files (x86)/microchip/xc16/v1.10/bin/bin/../../lib\libm-elf.a(floatsisf.eo)
 __c30_signature
                  0x0030e8          0x6 c:/program files (x86)/microchip/xc16/v1.10/bin/bin/../../lib\libm-elf.a(floatunsisf.eo)
 __c30_signature
                  0x0030ee          0x6 c:/program files (x86)/microchip/xc16/v1.10/bin/bin/../../lib\libm-elf.a(fpack.eo)
 __c30_signature
                  0x0030f4          0x6 c:/program files (x86)/microchip/xc16/v1.10/bin/bin/../../lib\libm-elf.a(funpack.eo)
 __c30_signature
                  0x0030fa          0x6 c:/program files (x86)/microchip/xc16/v1.10/bin/bin/../../lib\libm-elf.a(funpack2.eo)
 __c30_signature
                  0x003100          0x6 c:/program files (x86)/microchip/xc16/v1.10/bin/bin/../../lib\libm-elf.a(futil.eo)
 __c30_signature
                  0x003106          0x6 c:/program files (x86)/microchip/xc16/v1.10/bin/bin/../../lib\libm-elf.a(ldexpf.eo)
 __c30_signature
                  0x00310c          0x6 c:/program files (x86)/microchip/xc16/v1.10/bin/bin/../../lib\libm-elf.a(logf.eo)
 __c30_signature
                  0x003112          0x6 c:/program files (x86)/microchip/xc16/v1.10/bin/bin/../../lib\libm-elf.a(modsi3.eo)
 __c30_signature
                  0x003118          0x6 c:/program files (x86)/microchip/xc16/v1.10/bin/bin/../../lib\libm-elf.a(mulsf3.eo)
 __c30_signature
                  0x00311e          0x6 c:/program files (x86)/microchip/xc16/v1.10/bin/bin/../../lib\libm-elf.a(powf.eo)
 __c30_signature
                  0x003124          0x6 c:/program files (x86)/microchip/xc16/v1.10/bin/bin/../../lib\libm-elf.a(sqrtf.eo)
 __c30_signature
                  0x00312a          0x6 c:/program files (x86)/microchip/xc16/v1.10/bin/bin/../../lib\libm-elf.a(udivsi3.eo)
 __c30_signature
                  0x003130          0x6 c:/program files (x86)/microchip/xc16/v1.10/bin/bin/../../lib\libm-elf.a(umodsi3.eo)
 __c30_signature
                  0x003136          0x6 c:/program files (x86)/microchip/xc16/v1.10/bin/bin/../../lib\libm-elf.a(divmoddi3.eo)
 __c30_signature
                  0x00313c          0x6 c:/program files (x86)/microchip/xc16/v1.10/bin/bin/../../lib\libm-elf.a(_frexpf.eo)
 __c30_signature
                  0x003142          0x6 c:/program files (x86)/microchip/xc16/v1.10/bin/bin/../../lib\libm-elf.a(errno.eo)
 __c30_signature
                  0x003148          0x6 c:/program files (x86)/microchip/xc16/v1.10/bin/bin/../../lib\libm-elf.a(fchop.eo)
 __c30_signature
                  0x00314e          0x6 c:/program files (x86)/microchip/xc16/v1.10/bin/bin/../../lib\libm-elf.a(fcompare.eo)
 __c30_signature
                  0x003154          0x6 c:/program files (x86)/microchip/xc16/v1.10/bin/bin/../../lib\liblega-c-elf.a(strlen.XXeo)
 __c30_signature
                  0x00315a          0x6 c:/program files (x86)/microchip/xc16/v1.10/bin/bin/../../lib\liblega-c-elf.a(vsnprint.XXeo)
 __c30_signature
                  0x003160          0x6 c:/program files (x86)/microchip/xc16/v1.10/bin/bin/../../lib\liblega-c-elf.a(xprintf.XXeo)
 __c30_signature
                  0x003166          0x6 c:/program files (x86)/microchip/xc16/v1.10/bin/bin/../../lib\liblega-c-elf.a(xputfld.XXeo)
 __c30_signature
                  0x00316c          0x6 c:/program files (x86)/microchip/xc16/v1.10/bin/bin/../../lib\liblega-c-elf.a(strchr.XXelo)
 __c30_signature
                  0x003172          0x6 c:/program files (x86)/microchip/xc16/v1.10/bin/bin/../../lib\liblega-c-elf.a(xvacopy.XXelo)
 __c30_signature
                  0x003178          0x6 c:/program files (x86)/microchip/xc16/v1.10/bin/bin/../../lib\liblega-c-elf.a(printf_cdnopuxX.XXeo)
 __c30_signature
                  0x00317e          0x6 c:/program files (x86)/microchip/xc16/v1.10/bin/bin/../../lib\liblega-c-elf.a(xprintf_cdnopuxX.XXeo)
 __c30_signature
                  0x003184          0x6 c:/program files (x86)/microchip/xc16/v1.10/bin/bin/../../lib\liblega-c-elf.a(xputfld_cdnopuxX.XXeo)
 __c30_signature
                  0x00318a          0x6 c:/program files (x86)/microchip/xc16/v1.10/bin/bin/../../lib\liblega-c-elf.a(fwrite.XXeo)
 __c30_signature
                  0x003190          0x6 c:/program files (x86)/microchip/xc16/v1.10/bin/bin/../../lib\liblega-c-elf.a(memchr.XXeo)
 __c30_signature
                  0x003196          0x6 c:/program files (x86)/microchip/xc16/v1.10/bin/bin/../../lib\liblega-c-elf.a(memcpy.XXeo)
 __c30_signature
                  0x00319c          0x6 c:/program files (x86)/microchip/xc16/v1.10/bin/bin/../../lib\liblega-c-elf.a(xfiles.XXeo)
 __c30_signature
                  0x0031a2          0x6 c:/program files (x86)/microchip/xc16/v1.10/bin/bin/../../lib\liblega-c-elf.a(xfwprep.XXeo)
 __c30_signature
                  0x0031a8          0x6 c:/program files (x86)/microchip/xc16/v1.10/bin/bin/../../lib\liblega-c-elf.a(xldtob.XXeo)
 __c30_signature
                  0x0031ae          0x6 c:/program files (x86)/microchip/xc16/v1.10/bin/bin/../../lib\liblega-c-elf.a(xldunsca.XXeo)
 __c30_signature
                  0x0031b4          0x6 c:/program files (x86)/microchip/xc16/v1.10/bin/bin/../../lib\liblega-c-elf.a(xlitob.XXeo)
 __c30_signature
                  0x0031ba          0x6 c:/program files (x86)/microchip/xc16/v1.10/bin/bin/../../lib\liblega-c-elf.a(xputtxt.XXeo)
 __c30_signature
                  0x0031c0          0x6 c:/program files (x86)/microchip/xc16/v1.10/bin/bin/../../lib\liblega-c-elf.a(fclose.XXelo)
 __c30_signature
                  0x0031c6          0x6 c:/program files (x86)/microchip/xc16/v1.10/bin/bin/../../lib\liblega-c-elf.a(fflush.XXelo)
 __c30_signature
                  0x0031cc          0x6 c:/program files (x86)/microchip/xc16/v1.10/bin/bin/../../lib\liblega-c-elf.a(ldiv.XXelo)
 __c30_signature
                  0x0031d2          0x6 c:/program files (x86)/microchip/xc16/v1.10/bin/bin/../../lib\liblega-c-elf.a(xatexit.XXelo)
 __c30_signature
                  0x0031d8          0x6 c:/program files (x86)/microchip/xc16/v1.10/bin/bin/../../lib\liblega-c-elf.a(xdnorm.XXelo)
 __c30_signature
                  0x0031de          0x6 c:/program files (x86)/microchip/xc16/v1.10/bin/bin/../../lib\liblega-c-elf.a(xldscale.XXelo)
 __c30_signature
                  0x0031e4          0x6 c:/program files (x86)/microchip/xc16/v1.10/bin/bin/../../lib\liblega-c-elf.a(free.XXeo)
 __c30_signature
                  0x0031ea          0x6 c:/program files (x86)/microchip/xc16/v1.10/bin/bin/../../lib\liblega-c-elf.a(malloc.XXeo)
 __c30_signature
                  0x0031f0          0x6 c:/program files (x86)/microchip/xc16/v1.10/bin/bin/../../lib\liblega-c-elf.a(xgenld.XXeo)
 __c30_signature
                  0x0031f6          0x6 c:/program files (x86)/microchip/xc16/v1.10/bin/bin/../../lib\liblega-c-elf.a(xgetmem.XXeo)
 __c30_signature
                  0x0031fc          0x6 c:/program files (x86)/microchip/xc16/v1.10/bin/bin/../../lib\liblega-c-elf.a(div.XXelo)
 __c30_signature
                  0x003202          0x6 c:/program files (x86)/microchip/xc16/v1.10/bin/bin/../../lib\liblega-pic30-elf.a(close.Leo)
 __c30_signature
                  0x003208          0x6 c:/program files (x86)/microchip/xc16/v1.10/bin/bin/../../lib\liblega-pic30-elf.a(remove.Leo)
 __c30_signature
                  0x00320e          0x6 c:/program files (x86)/microchip/xc16/v1.10/bin/bin/../../lib\liblega-pic30-elf.a(sbrk.Leo)
 __c30_signature
                  0x003214          0x6 c:/program files (x86)/microchip/xc16/v1.10/bin/bin/../../lib\liblega-pic30-elf.a(brk.Lelo)
 __c30_signature
                  0x00321a          0x6 c:/program files (x86)/microchip/xc16/v1.10/bin/bin/../../lib\libm-elf.a(deqltle.eo)
 __c30_signature
                  0x003220          0x6 c:/program files (x86)/microchip/xc16/v1.10/bin/bin/../../lib\libm-elf.a(dgtge.eo)
 __c30_signature
                  0x003226          0x6 c:/program files (x86)/microchip/xc16/v1.10/bin/bin/../../lib\libm-elf.a(divdf3.eo)
 __c30_signature
                  0x00322c          0x6 c:/program files (x86)/microchip/xc16/v1.10/bin/bin/../../lib\libm-elf.a(dpack.eo)
 __c30_signature
                  0x003232          0x6 c:/program files (x86)/microchip/xc16/v1.10/bin/bin/../../lib\libm-elf.a(dunpack2.eo)
 __c30_signature
                  0x003238          0x6 c:/program files (x86)/microchip/xc16/v1.10/bin/bin/../../lib\libm-elf.a(extendsfdf.eo)
 __c30_signature
                  0x00323e          0x6 c:/program files (x86)/microchip/xc16/v1.10/bin/bin/../../lib\libm-elf.a(fixdfsi.eo)
 __c30_signature
                  0x003244          0x6 c:/program files (x86)/microchip/xc16/v1.10/bin/bin/../../lib\libm-elf.a(floatsidf.eo)
 __c30_signature
                  0x00324a          0x6 c:/program files (x86)/microchip/xc16/v1.10/bin/bin/../../lib\libm-elf.a(muldf3.eo)
 __c30_signature
                  0x003250          0x6 c:/program files (x86)/microchip/xc16/v1.10/bin/bin/../../lib\libm-elf.a(subdf3.eo)
 __c30_signature
                  0x003256          0x6 c:/program files (x86)/microchip/xc16/v1.10/bin/bin/../../lib\libm-elf.a(mulsi3.eo)
 __c30_signature
                  0x00325c          0x6 c:/program files (x86)/microchip/xc16/v1.10/bin/bin/../../lib\libm-elf.a(adddf3.eo)
 __c30_signature
                  0x003262          0x6 c:/program files (x86)/microchip/xc16/v1.10/bin/bin/../../lib\libm-elf.a(dcompare.eo)
 __c30_signature
                  0x003268          0x6 c:/program files (x86)/microchip/xc16/v1.10/bin/bin/../../lib\libm-elf.a(dpropagateNaN.eo)
 __c30_signature
                  0x00326e          0x6 c:/program files (x86)/microchip/xc16/v1.10/bin/bin/../../lib\libm-elf.a(dtype.eo)
 __c30_signature
                  0x003274          0x6 c:/program files (x86)/microchip/xc16/v1.10/bin/bin/../../lib\libm-elf.a(dunpack.eo)
 __c30_signature
                  0x00327a          0x6 c:/program files (x86)/microchip/xc16/v1.10/bin/bin/../../lib\libm-elf.a(floatdidf.eo)

_02F6A42053382129
                    0x7fc0          0xc
 _02F6A42053382129
                    0x7fc0          0xc build/default/production/_ext/1077454706/analog2digital_udb5.o
                    0x7fc0                  _BufferB

_02F6A30053382129
                    0x7fe0          0xc
 _02F6A30053382129
                    0x7fe0          0xc build/default/production/_ext/1077454706/analog2digital_udb5.o
                    0x7fe0                  _BufferA

.nbss               0x0800        0x126
 .nbss              0x0800        0x126 build/default/production/_ext/1472/telemetry.o
                    0x0800                  _voltage_temp
                    0x0802                  _fp_high_byte
                    0x0803                  _fp_checksum
                    0x0804                  _serial_buffer

.ndata              0x0926         0x60
 .ndata             0x0926         0x60 build/default/production/_ext/1077471063/rmat.o
                    0x0926                  _ggain
                    0x092c                  _spin_rate
                    0x092e                  _spin_axis
                    0x0934                  _rmat
                    0x0958                  _omegagyro
                    0x095e                  _accelEarth
                    0x0964                  _omegaAccum
                    0x096a                  _gplane
                    0x0970                  _dirovergndHGPS
                    0x0976                  _dirovergndHRmat
                    0x097c                  _magAlignment

.nbss               0x0986        0x208
 .nbss              0x0986         0x60 build/default/production/_ext/1077454706/events.o
                    0x0986                  _events
 .nbss              0x09e6         0x5c build/default/production/_ext/1077471063/rmat.o
                    0x0a1c                  _magFieldEarth
                    0x0a22                  _rmatPrevious
                    0x0a34                  _magFieldEarthNormalizedPrevious
                    0x0a3a                  _magFieldBodyMagnitudePrevious
                    0x0a3c                  _magFieldBodyPrevious
 .nbss              0x0a42         0x58 build/default/production/_ext/1077454706/mpu6000.o
                    0x0a42                  _mpu_data
                    0x0a52                  _udb_xaccel
                    0x0a5c                  _udb_yaccel
                    0x0a66                  _udb_zaccel
                    0x0a70                  _udb_xrate
                    0x0a7a                  _udb_yrate
                    0x0a84                  _udb_zrate
                    0x0a8e                  _mpu_temp
                    0x0a98                  _vref_adj
 .nbss              0x0a9a         0x54 build/default/production/_ext/1077471063/gpsParseCommon.o
                    0x0a9a                  _lat_origin
                    0x0a9e                  _lon_origin
                    0x0aa2                  _alt_origin
                    0x0aa6                  _lat_gps
                    0x0aaa                  _lon_gps
                    0x0aae                  _alt_sl_gps
                    0x0ab2                  _week_no
                    0x0ab4                  _sog_gps
                    0x0ab6                  _cog_gps
                    0x0ab8                  _climb_gps
                    0x0aba                  _as_sim
                    0x0abc                  _tow
                    0x0ac0                  _hdop
                    0x0ac1                  _svs
                    0x0ac2                  _gps_data_age
                    0x0ac4                  _lat_gps_
                    0x0ac8                  _lon_gps_
                    0x0acc                  _alt_sl_gps_
                    0x0ad0                  _tow_
                    0x0ad4                  _hdop_
                    0x0ad6                  _actual_dir
                    0x0ad7                  _calculated_heading
                    0x0ae4                  _date_gps_
                    0x0ae8                  _time_gps_
 .nbss              0x0aee         0x50 build/default/production/_ext/1472/flightplan-logo.o
                    0x0aee                  _absoluteXLong
                    0x0af2                  _logo_inject_instr
                    0x0af6                  _logoStack
                    0x0b26                  _turtleLocations
                    0x0b3a                  _currentTurtle
                    0x0b3c                  _penState
 .nbss              0x0b3e         0x50 build/default/production/_ext/1472/barometerCntrl.o

.ndata              0x0b8e         0x38
 .ndata             0x0b8e         0x38 build/default/production/_ext/1077471063/deadReckoning.o
                    0x0b8e                  _dead_reckon_clock
                    0x0b90                  _IMUvelocityx
                    0x0b94                  _IMUvelocityy
                    0x0b98                  _IMUvelocityz
                    0x0b9c                  _forward_ground_speed
                    0x0b9e                  _IMUlocationx
                    0x0ba2                  _IMUlocationy
                    0x0ba6                  _IMUlocationz
                    0x0baa                  _IMUintegralAccelerationx
                    0x0bae                  _IMUintegralAccelerationy
                    0x0bb2                  _IMUintegralAccelerationz
                    0x0bb6                  _air_speed_3DIMU
                    0x0bb8                  _total_energy
                    0x0bba                  _locationErrorEarth
                    0x0bc0                  _velocityErrorEarth

.nbss               0x0bc6         0x68
 .nbss              0x0bc6         0x34 build/default/production/_ext/1077454706/analog2digital_udb5.o
                    0x0bc6                  _udb_analogInputs
                    0x0bda                  _udb_vcc
                    0x0be4                  _udb_5v
                    0x0bee                  _udb_vref
                    0x0bf8                  _sample_count
 .nbss              0x0bfa         0x34 build/default/production/_ext/1077454706/I2C2.o
                    0x0bfa                  _i2c2_queue

.ndata              0x0c2e         0x30
 .ndata             0x0c2e         0x30 build/default/production/_ext/1077454706/magnetometer.o
                    0x0c2e                  _hmc5883read_index
                    0x0c2f                  _hmc5883write_index
                    0x0c30                  _enableMagRead
                    0x0c33                  _enableMagCalibration
                    0x0c36                  _resetMagnetometer
                    0x0c3a                  _udb_magOffset
                    0x0c40                  _udb_staticMagOffset
                    0x0c46                  _magGain
                    0x0c4c                  _rawMagCalib
                    0x0c52                  _I2interrupts
                    0x0c54                  _magMessage
                    0x0c56                  _magCalibPause
                    0x0c58                  _previousMagFieldRaw

.nbss               0x0c5e         0x58
 .nbss              0x0c5e         0x30 build/default/production/_ext/1077454706/radioIn.o
                    0x0c5e                  _udb_pwIn
                    0x0c70                  _udb_pwTrim
                    0x0c86                  _udb_pwm_sonar
 .nbss              0x0c8e         0x28 build/default/production/_ext/1077454706/barometer.o

.ndata              0x0cb6         0x58
 .ndata             0x0cb6         0x1e build/default/production/_ext/1077471063/gpsParseCommon.o
                    0x0cb6                  _GPSlocation
                    0x0cbc                  _GPSvelocity
                    0x0cc2                  _cos_lat
                    0x0cc4                  _gps_out_buffer
                    0x0cc6                  _gps_out_buffer_length
                    0x0cc8                  _gps_out_index
                    0x0cca                  _ground_velocity_magnitudeXY
                    0x0ccc                  _forward_acceleration
                    0x0cce                  _air_speed_magnitudeXY
                    0x0cd0                  _air_speed_3DGPS
 .ndata             0x0cd4         0x1e build/default/production/_ext/1472/flightplan-logo.o
                    0x0cd4                  _instructionIndex
                    0x0cd6                  _waypointIndex
                    0x0cd8                  _absoluteHighWord
                    0x0cda                  _currentInstructionSet
                    0x0cdc                  _numInstructionsInCurrentSet
                    0x0cde                  _instructionsProcessed
                    0x0ce0                  _logo_inject_pos
                    0x0ce2                  _interruptIndex
                    0x0ce4                  _interruptStackBase
                    0x0ce6                  _logoStackIndex
                    0x0ce8                  _lastGoal
                    0x0cee                  _turtleAngles
 .ndata             0x0cf2         0x1c build/default/production/_ext/1077454706/I2C2.o
                    0x0cf2                  _pI2C2_callback
                    0x0cf4                  _I2C2ERROR
                    0x0cf6                  _I2C2MAXS
                    0x0cf8                  _I2C2MAXQ
                    0x0cfa                  _I2C2_Busy
                    0x0cfc                  _I2C2_state
                    0x0cfe                  _I2C2_CommandByte
                    0x0d00                  _I2C2_tx_data_size
                    0x0d02                  _I2C2_rx_data_size
                    0x0d04                  _I2C2_command_data_size
                    0x0d06                  _pI2C2Buffer
                    0x0d08                  _pI2C2commandBuffer
                    0x0d0a                  _I2C2_service_handle
                    0x0d0c                  _I2C2_ERROR

.nbss               0x0d0e         0x7c
 .nbss              0x0d0e         0x1a build/default/production/_ext/1472/navigate.o
                    0x0d0e                  _yawkpail
                    0x0d10                  _yawkprud
                    0x0d12                  _goal
                    0x0d22                  _desired_bearing_over_ground
                    0x0d24                  _desired_bearing_over_ground_vector
 .nbss              0x0d28         0x16 build/default/production/_ext/1472/altitudeCntrl.o
                    0x0d28                  _desiredHeight
                    0x0d2a                  _height_target_min
                    0x0d2c                  _height_target_max
                    0x0d2e                  _height_margin
                    0x0d30                  _alt_hold_throttle_min
                    0x0d32                  _alt_hold_throttle_max
                    0x0d34                  _alt_hold_pitch_min
                    0x0d36                  _alt_hold_pitch_max
                    0x0d38                  _alt_hold_pitch_high
                    0x0d3a                  _rtl_pitch_down
                    0x0d3c                  _desiredSpeed
 .nbss              0x0d3e         0x14 build/default/production/_ext/1077471063/gpsParseSTD.o
                    0x0d3e                  _payloadlength
                    0x0d40                  _un
                    0x0d41                  _svs_
                    0x0d42                  _nav_valid_
                    0x0d44                  _nav_type_
                    0x0d46                  _sog_gps_
                    0x0d48                  _climb_gps_
                    0x0d4a                  _week_no_
                    0x0d4c                  _cog_gps_
                    0x0d4e                  _checksum_
                    0x0d50                  _calculated_checksum
 .nbss              0x0d52         0x14 build/default/production/_ext/1077454706/magnetometer.o
                    0x0d52                  _udb_magFieldBody
                    0x0d58                  _magreg
                    0x0d5e                  _magFieldRaw
                    0x0d64                  _mrindex
 .nbss              0x0d66         0x12 build/default/production/_ext/1472/pitchCntrl.o
                    0x0d66                  _pitchgain
                    0x0d68                  _pitchkd
                    0x0d6a                  _hoverpitchgain
                    0x0d6c                  _hoverpitchkd
                    0x0d6e                  _rudderElevMixGain
                    0x0d70                  _rollElevMixGain
                    0x0d72                  _pitchrate
                    0x0d74                  _navElevMix
                    0x0d76                  _elevInput
 .nbss              0x0d78         0x12 build/default/production/_ext/1472/airspeedCntrl.o
                    0x0d78                  _minimum_groundspeed
                    0x0d7a                  _minimum_airspeed
                    0x0d7c                  _maximum_airspeed
                    0x0d7e                  _cruise_airspeed
                    0x0d80                  _airspeed_pitch_adjust_rate
                    0x0d82                  _airspeed_pitch_ki_limit
                    0x0d84                  _airspeed_pitch_ki
                    0x0d86                  _airspeed_pitch_min_aspd
                    0x0d88                  _airspeed_pitch_max_aspd

.ndata              0x0d8a         0x10
 .ndata             0x0d8a         0x10 build/default/production/_ext/1472/cameraCntrl.o
                    0x0d8a                  _cam_pitch_servo_pwm_delta
                    0x0d8c                  _cam_yaw_servo_pwm_delta
                    0x0d8e                  _view_location
                    0x0d94                  _camera_view

.nbss               0x0d9a         0x26
 .nbss              0x0d9a          0xe build/default/production/_ext/1077454706/servoOut.o
                    0x0d9a                  _udb_pwOut
                    0x0da6                  _outputNum
 .nbss              0x0da8          0xc build/default/production/_ext/1077471063/estWind.o
 .nbss              0x0db4          0xc build/default/production/_ext/1077454706/analogs.o
                    0x0db4                  _battery_current
                    0x0db8                  _battery_mAh_used
                    0x0dbc                  _battery_voltage

.ndata              0x0dc0          0xc
 .ndata             0x0dc0          0xc build/default/production/_ext/1472/altitudeCntrl.o
                    0x0dc0                  _throttleFiltered
                    0x0dc4                  _speed_height
                    0x0dc8                  _pitchAltitudeAdjust
                    0x0dca                  _filterManual

.nbss               0x0dcc         0x14
 .nbss              0x0dcc          0xa build/default/production/_ext/1077454706/mpu_spi.o
 .nbss              0x0dd6          0xa build/default/production/_ext/1472/behavior.o
                    0x0dd6                  _current_orientation
                    0x0dd8                  _desired_behavior

.ndata              0x0de0          0xa
 .ndata             0x0de0          0xa build/default/production/_ext/1472/navigate.o
                    0x0de0                  _togoal
                    0x0de4                  _tofinish_line
                    0x0de6                  _progress_to_goal
                    0x0de8                  _desired_dir
                    0x0de9                  _extended_range

.nbss               0x0dea          0xa
 .nbss              0x0dea          0xa build/default/production/_ext/1472/rollCntrl.o
                    0x0dea                  _yawkdail
                    0x0dec                  _rollkp
                    0x0dee                  _rollkd
                    0x0df0                  _hoverrollkp
                    0x0df2                  _hoverrollkd

.ndata              0x0df4          0xa
 .ndata             0x0df4          0xa build/default/production/_ext/1472/states.o
                    0x0df4                  _waggle
                    0x0df6                  _counter

.nbss               0x0dfe          0xa
 .nbss              0x0dfe          0xa build/default/production/_ext/1472/yawCntrl.o
                    0x0dfe                  _yawkdrud
                    0x0e00                  _rollkprud
                    0x0e02                  _rollkdrud
                    0x0e04                  _hoveryawkp
                    0x0e06                  _hoveryawkd

.ndata              0x0e08          0xa
 .ndata             0x0e08          0xa build/default/production/_ext/1472/telemetry.o
                    0x0e08                  _voltage_milis
                    0x0e0a                  _sio_parse
                    0x0e0c                  _sb_index
                    0x0e0e                  _end_index

.nbss               0x0e12          0xa
 .nbss              0x0e12          0xa build/default/production/_ext/1472/servoPrepare.o
                    0x0e12                  _pitch_control
                    0x0e14                  _roll_control
                    0x0e16                  _yaw_control
                    0x0e18                  _throttle_control
                    0x0e1a                  _wind_gain

.ndata              0x0e1c          0xa
 .ndata             0x0e1c          0xa build/default/production/_ext/1472/barometerCntrl.o
                    0x0e1c                  _il_pressure
                    0x0e20                  _il_temperature
                    0x0e22                  _il_aslaltitude

.nbss               0x0e26          0x8
 .nbss              0x0e26          0x8 build/default/production/_ext/1077454706/background.o

.ndata              0x0e2e          0x8
 .ndata             0x0e2e          0x8 build/default/production/_ext/1077454706/barometer.o
                    0x0e34                  _barometer_callback

.nbss               0x0e36          0x8
 .nbss              0x0e36          0x8 build/default/production/_ext/1472/mp_osd.o

.ndata              0x0e3e          0xe
 .ndata             0x0e3e          0x8 build/default/production/_ext/1472/sonarCntrl.o
                    0x0e3e                  _sonar_aglaltitude
                    0x0e40                  _sonar_rawaglaltitude
                    0x0e42                  _cos_sonarproll
 .ndata             0x0e46          0x6 build/default/production/_ext/1077471063/estWind.o
                    0x0e46                  _estimatedWind

.nbss               0x0e4c          0x6
 .nbss              0x0e4c          0x6 build/default/production/_ext/1472/states.o
                    0x0e4c                  _flags

.ndata              0x0e52          0x4
 .ndata             0x0e52          0x4 build/default/production/_ext/1077471063/gpsParseSTD.o
                    0x0e52                  _msg_parse
                    0x0e54                  _store_index

.nbss               0x0e56          0x4
 .nbss              0x0e56          0x4 build/default/production/_ext/1077454706/libUDB.o
                    0x0e56                  _udb_flags

.ndata              0x0e5a          0x4
 .ndata             0x0e5a          0x4 build/default/production/_ext/1077454706/mpu6000.o
                    0x0e5a                  _mpuCnt
                    0x0e5c                  _mpuDAV

_02E222A05338212b
                    0x0e5e          0x4
 _02E222A05338212b
                    0x0e5e          0x4 build/default/production/_ext/1077454706/mcu.o
                    0x0e5e                  _trap_source

.ndata              0x0e62          0x8
 .ndata             0x0e62          0x4 build/default/production/_ext/1077454706/traps.o
                    0x0e62                  _dmaErrFlag
                    0x0e64                  _dmaPWErrLoc
 .ndata             0x0e66          0x4 build/default/production/_ext/1077454706/heartbeat.o
                    0x0e66                  _one_hertz_flag
                    0x0e68                  _udb_heartbeat_counter

.nbss               0x0e6a          0xa
 .nbss              0x0e6a          0x4 build/default/production/_ext/1472/mode_switch.o
 .nbss              0x0e6e          0x4 build/default/production/_ext/1472/sonarCntrl.o
 .nbss              0x0e72          0x2 build/default/production/_ext/1077471063/libDCM.o
                    0x0e72                  _dcm_flags

.ndata              0x0e74          0x6
 .ndata             0x0e74          0x2 build/default/production/_ext/1077454706/events.o
                    0x0e74                  _event_init_done
 .ndata             0x0e76          0x2 build/default/production/_ext/1077454706/analog2digital_udb5.o
                    0x0e76                  _DmaBuffer
 .ndata             0x0e78          0x2 build/default/production/_ext/1077454706/mcu.o
                    0x0e78                  _defaultCorcon

_02E221805338212b
                    0x0e7a          0x2
 _02E221805338212b
                    0x0e7a          0x2 build/default/production/_ext/1077454706/mcu.o
                    0x0e7a                  _trap_flags

_02E223005338212b
                    0x0e7c          0x2
 _02E223005338212b
                    0x0e7c          0x2 build/default/production/_ext/1077454706/mcu.o
                    0x0e7c                  _osc_fail_count

.ndata              0x0e7e          0x4
 .ndata             0x0e7e          0x2 build/default/production/_ext/1077454706/eeprom_udb4.o
                    0x0e7e                  _eeprom_control
 .ndata             0x0e80          0x2 build/default/production/_ext/1077454706/radioIn.o
                    0x0e80                  _ppm_ch

.nbss               0x0e82          0x2
 .nbss              0x0e82          0x2 build/default/production/_ext/1077454706/traps.o
                    0x0e82                  _dmaRWErrLoc

.ndata              0x0e84          0x2
 .ndata             0x0e84          0x2 build/default/production/_ext/1077454706/mpu_spi.o

.nbss               0x0e86          0x2
 .nbss              0x0e86          0x2 c:/program files (x86)/microchip/xc16/v1.10/bin/bin/../../lib\libm-elf.a(errno.eo)
                    0x0e86                  _errno

.data._Stdin        0x0e88         0x88
 .data._Stdin       0x0e88         0x88 c:/program files (x86)/microchip/xc16/v1.10/bin/bin/../../lib\liblega-c-elf.a(xfiles.XXeo)
                    0x0e88                  __Stdin
                    0x0eb0                  __Stdout
                    0x0ed8                  __Stderr
                    0x0f00                  __Files

.data.pows          0x0f10         0x48
 .data.pows         0x0f10         0x48 c:/program files (x86)/microchip/xc16/v1.10/bin/bin/../../lib\liblega-c-elf.a(xldtob.XXeo)

.data               0x0f58         0x32
 .data              0x0f58         0x32 c:/program files (x86)/microchip/xc16/v1.10/bin/bin/../../lib\liblega-c-elf.a(xldtob.XXeo)

.data.udigs         0x0f8a         0x22
 .data.udigs        0x0f8a         0x22 c:/program files (x86)/microchip/xc16/v1.10/bin/bin/../../lib\liblega-c-elf.a(xlitob.XXeo)

.data               0x0fac         0x1a
 .data              0x0fac         0x1a c:/program files (x86)/microchip/xc16/v1.10/bin/bin/../../lib\liblega-c-elf.a(xprintf_cdnopuxX.XXeo)

.data.fbit          0x7fcc         0x12
 .data.fbit         0x7fcc         0x12 c:/program files (x86)/microchip/xc16/v1.10/bin/bin/../../lib\liblega-c-elf.a(xprintf.XXeo)

.data               0x7fec          0x8
 .data              0x7fec          0x8 c:/program files (x86)/microchip/xc16/v1.10/bin/bin/../../lib\liblega-c-elf.a(xprintf.XXeo)

.bss                0x7ff4          0x6
 .bss               0x7ff4          0x6 build/default/production/_ext/1077454706/traps_asm.o
                    0x7ff4                  _JmpStckPtr
                    0x7ff6                  _JmpAddrLow
                    0x7ff8                  _JmpAddrHgh

.data._Aldata       0x7ffa          0x6
 .data._Aldata      0x7ffa          0x6 c:/program files (x86)/microchip/xc16/v1.10/bin/bin/../../lib\liblega-c-elf.a(malloc.XXeo)
                    0x7ffa                  __Aldata
                    0x7ffe                  __Size_block

.data.__C30_UART
                    0x7fde          0x2
 .data.__C30_UART
                    0x7fde          0x2 c:/program files (x86)/microchip/xc16/v1.10/bin/bin/../../lib\liblega-pic30-elf.a(c30_uart.Leo)
                    0x7fde                  ___C30_UART

.bss                0x0fc6          0x2
 .bss               0x0fc6          0x2 c:/program files (x86)/microchip/xc16/v1.10/bin/bin/../../lib\liblega-c-elf.a(fclose.XXelo)

.data               0x0fc8          0x2
 .data              0x0fc8          0x2 c:/program files (x86)/microchip/xc16/v1.10/bin/bin/../../lib\liblega-c-elf.a(xgenld.XXeo)

.bss                0x0fca          0x2
 .bss               0x0fca          0x2 c:/program files (x86)/microchip/xc16/v1.10/bin/bin/../../lib\liblega-pic30-elf.a(brk.Lelo)
                    0x0fca                  ___curbrk

.heap               0x0fcc        0x100
 .heap              0x0fcc        0x100 heap

.const              0xb29e        0xf4a load address 0x00329e  
 .const             0xb29e        0x880 build/default/production/_ext/1472/flightplan-logo.o
                    0xb29e                  _instructions
                    0xbaf6                  _rtlInstructions
 .const             0xbb1e        0x4c2 build/default/production/_ext/1472/telemetry.o
 .const             0xbfe0         0xe0 build/default/production/_ext/1077471063/gpsParseSTD.o
                    0xbfe0                  _bin_mode
                    0xbffc                  _mode
                    0xc006                  _mode_length
                    0xc008                  _msg41parse
 .const             0xc0c0         0x82 build/default/production/_ext/1077471063/mathlibNAV.o
                    0xc0c0                  _sintab
 .const             0xc142         0x48 build/default/production/_ext/1472/mp_osd.o
 .const             0xc18a         0x34 build/default/production/_ext/1077454706/mpu6000.o
 .const             0xc1be         0x12 build/default/production/_ext/1472/cameraCntrl.o
                    0xc1be                  _pitch_servo_high_ratio
                    0xc1c0                  _yaw_servo_high_ratio
                    0xc1c2                  _tan_pitch_in_stabilized_mode
                    0xc1c4                  _pitch_offset_centred_pwm
                    0xc1c6                  _yaw_offset_centred_pwm
                    0xc1c8                  _pitch_servo_pwm_max
                    0xc1ca                  _pitch_servo_pwm_min
                    0xc1cc                  _yaw_servo_pwm_max
                    0xc1ce                  _yaw_servo_pwm_min
 .const             0xc1d0          0xc build/default/production/_ext/1077471063/gpsParseCommon.o
                    0xc1d0                  _days_in_month
 .const             0xc1dc          0x6 build/default/production/_ext/1472/servoMix.o
                    0xc1dc                  _aileronbgain
                    0xc1de                  _elevatorbgain
                    0xc1e0                  _rudderbgain
 .const             0xc1e2          0x6 build/default/production/_ext/1472/barometerCntrl.o

.text             0x0041e8       0x4796
 .text            0x0041e8        0xff0 build/default/production/_ext/1472/flightplan-logo.o
                  0x0041e8                  _init_flightplan
                  0x0042bc                  _use_fixed_origin
                  0x0042c4                  _get_fixed_origin
                  0x00432a                  _logo_goal_has_moved
                  0x004350                  _update_goal_from
                  0x0043c4                  _run_flightplan
                  0x00449a                  _find_start_of_subroutine
                  0x0044f4                  _find_end_of_current_if_block
                  0x0045ca                  _get_current_stack_parameter_frame_index
                  0x0045f4                  _get_current_angle
                  0x00462c                  _get_angle_to_point
                  0x00468a                  _logo_value_for_identifier
                  0x004812                  _process_one_instruction
                  0x0050ae                  _process_instructions
                  0x005116                  _flightplan_live_begin
                  0x00512a                  _flightplan_live_received_byte
                  0x0051b8                  _flightplan_live_commit
 .text            0x0051d8        0xca4 build/default/production/_ext/1077471063/rmat.o
                  0x0051d8                  _yaw_drift_reset
                  0x0051ea                  _dcm_init_rmat
                  0x0053a2                  _udb_callback_read_sensors
                  0x005c80                  _udb_magnetometer_callback
                  0x005e5a                  _dcm_run_imu_step
 .text            0x005e7c        0x794 build/default/production/_ext/1472/mp_osd.o
                  0x00651a                  _osd_run_step
 .text            0x006610        0x73c build/default/production/_ext/1077471063/mathlibNAV.o
                  0x006610                  _sine
                  0x00666c                  _arcsine
                  0x00670c                  _cosine
                  0x00671a                  _rotate_2D_vector_by_vector
                  0x006788                  _rotate_2D_long_vector_by_vector
                  0x0067e6                  _rotate_2D_vector_by_angle
                  0x006802                  _rotate
                  0x00686c                  _rect_to_polar
                  0x006920                  _rect_to_polar16
                  0x0069fa                  _sqrt_int
                  0x006a64                  _sqrt_long
                  0x006b06                  _vector2_mag
                  0x006b26                  _vector3_mag
                  0x006b52                  _vector2_normalize
                  0x006bb4                  _vector3_normalize
                  0x006c3e                  _long_scale
                  0x006ccc                  _find_first_bit_int16
                  0x006cf6                  _find_first_bit_int32
 .text            0x006d4c        0x6ac build/default/production/_ext/1077454706/osd.o
                  0x006d4c                  _osd_reset
                  0x006d62                  _osd_init
                  0x006d6e                  _osd_spi_write_location
                  0x006d90                  _osd_spi_write_string
                  0x006db6                  _osd_spi_write_vertical_string_at_location
                  0x006df2                  _osd_spi_erase_chars
                  0x006e18                  _osd_spi_write_number
 .text            0x0073f8        0x670 build/default/production/_ext/1472/telemetry.o
                  0x0073f8                  _init_serial
                  0x007406                  _udb_serial_callback_received_byte
                  0x007414                  _sio_newMsg
                  0x007448                  _sio_voltage_high
                  0x00745c                  _sio_voltage_low
                  0x007476                  _hex_char_val
                  0x0074ac                  _sio_fp_data
                  0x007502                  _sio_fp_checksum
                  0x007546                  _serial_output
                  0x007586                  _udb_serial_callback_get_byte_to_send
                  0x0075b0                  _restart_telemetry
                  0x0075ba                  _serial_output_8hz
 .text            0x007a68        0x57c build/default/production/_ext/1077454706/I2C2.o
                  0x007a68                  _I2C2_init
                  0x007b0a                  _I2C2_reset
                  0x007b32                  _I2C2_trigger_service
                  0x007b3e                  _serviceI2C2
                  0x007b58                  __MI2C2Interrupt
                  0x007b82                  _I2C2_CheckAvailable
                  0x007bb4                  _I2C2_Normal
                  0x007bce                  _I2C2_serve_queue
                  0x007caa                  _I2C2_Write
                  0x007d62                  _I2C2_Read
                  0x007e1a                  _I2C2_checkACK
                  0x007e50                  _I2C2_startWrite
                  0x007e60                  _I2C2_writeCommand
                  0x007e74                  _I2C2_writeCommandData
                  0x007ec2                  _I2C2_writeData
                  0x007f02                  _I2C2_writeStop
                  0x007f0e                  _I2C2_doneWrite
                  0x007f26                  _I2C2_readStart
                  0x007f36                  _I2C2_readCommand
                  0x007f48                  _I2C2_recen
                  0x007f64                  _I2C2_rerecen
                  0x007f70                  _I2C2_recstore
                  0x007f9e                  _I2C2_stopRead
                  0x007faa                  _I2C2_idle
                  0x007fb0                  _I2C2_doneRead
                  0x007fc8                  _I2C2_Failed
 .text            0x007fe4        0x4d0 build/default/production/_ext/1077454706/barometer.o
                  0x007fe4                  _rxBarometer
                  0x0080f0                  _ReadBarCalib_callback
                  0x0083f8                  _ReadBarTemp_callback
                  0x008438                  _ReadBarPres_callback
 .text            0x0084b4        0x4ca build/default/production/_ext/1077471063/gpsParseCommon.o
                  0x0084b4                  _get_gps_date
                  0x0084be                  _get_gps_time
                  0x0084c8                  _gps_init
                  0x0084d2                  _gpsoutbin
                  0x0084f0                  _gpsoutline
                  0x008508                  _udb_gps_callback_get_byte_to_send
                  0x008534                  _udb_gps_callback_received_byte
                  0x008542                  _gps_nav_capable_check_set
                  0x008574                  _gps_parse_common
                  0x008580                  build/default/production/_ext/1077471063/gpsParseCommon.o:_udb_background_callback_triggered
                  0x008788                  _calculate_week_num
                  0x008886                  _calculate_time_of_week

.dinit            0x00897e        0x3d2
 .dinit           0x00897e        0x3d2 data_init

.text             0x008d50       0x3a38
 .text            0x008d50        0x3c4 build/default/production/_ext/1472/altitudeCntrl.o
                  0x008d50                  _init_altitudeCntrl
                  0x008d86                  _altitudeCntrl
                  0x008df8                  _setTargetAltitude
 .text            0x009114        0x3ba build/default/production/_ext/1472/navigate.o
                  0x009114                  _init_navigation
                  0x009164                  _dcm_callback_gps_location_updated
                  0x009176                  _set_goal
                  0x0091e0                  _update_goal_alt
                  0x0091ec                  _process_flightplan
                  0x00920e                  _compute_bearing_to_goal
                  0x009390                  _wind_gain_adjustment
                  0x009398                  _determine_navigation_deflection
 .text            0x0094ce        0x38a build/default/production/_ext/1472/barometerCntrl.o
                  0x0094ce                  _get_barometer_pres_rtf
                  0x0094d8                  _get_barometer_temp_rtf
                  0x0094e0                  _get_barometer_aslalt_est
                  0x0094ea                  _barometerCalibrate
                  0x0095b4                  _udb_barometer_callback
                  0x009648                  _estBarometerAltitude
                  0x0096c4                  _calcBarASLAlt
                  0x0096ec                  _calcSHABarASLAlt
                  0x009772                  _calcSMABarASLAlt
                  0x0097cc                  _calcNScBarASLAlt
                  0x009818                  _initFlags
                  0x00982a                  _estBarAltOffset
 .text            0x009858        0x31e build/default/production/_ext/1472/states.o
                  0x009858                  _init_states
                  0x009872                  _udb_callback_radio_did_turn_off
                  0x00987a                  _udb_heartbeat_40hz_callback
                  0x0099b4                  build/default/production/_ext/1472/states.o:_startS
                  0x0099bc                  build/default/production/_ext/1472/states.o:_calibrateS
                  0x0099fa                  build/default/production/_ext/1472/states.o:_acquiringS
                  0x009a6a                  build/default/production/_ext/1472/states.o:_manualS
                  0x009aae                  build/default/production/_ext/1472/states.o:_stabilizedS
                  0x009aee                  build/default/production/_ext/1472/states.o:_waypointS
                  0x009b34                  build/default/production/_ext/1472/states.o:_returnS
 .text            0x009b76        0x2f0 build/default/production/_ext/1077471063/deadReckoning.o
                  0x009b76                  _dead_reckon
 .text            0x009e66        0x282 build/default/production/_ext/1077471063/estWind.o
                  0x009e66                  _estimateWind
 .text            0x00a0e8        0x276 build/default/production/_ext/1077454706/serialIO.o
                  0x00a0e8                  _udb_init_GPS
                  0x00a148                  _udb_gps_set_rate
                  0x00a172                  _udb_gps_check_rate
                  0x00a1a4                  _udb_gps_start_sending_data
                  0x00a1ac                  __U1TXInterrupt
                  0x00a1e6                  __U1RXInterrupt
                  0x00a222                  _udb_init_USART
                  0x00a284                  _udb_serial_set_rate
                  0x00a2ae                  _udb_serial_check_rate
                  0x00a2e0                  _udb_serial_start_sending_data
                  0x00a2e8                  __U2TXInterrupt
                  0x00a322                  __U2RXInterrupt
 .text            0x00a35e        0x25a build/default/production/_ext/1077454706/magnetometer.o
                  0x00a35e                  _rxMagnetometer
                  0x00a448                  _I2C_doneReadMagData
 .text            0x00a5b8        0x1f4 build/default/production/_ext/1077454706/eeprom_udb4.o
                  0x00a5b8                  _udb_eeprom_init
                  0x00a5c2                  _bstart
                  0x00a5d6                  _bstop
                  0x00a5ea                  _bit_out
                  0x00a614                  _bit_in
                  0x00a648                  _byte_out
                  0x00a672                  _byte_in
                  0x00a69c                  _ACK_Poll
                  0x00a6b6                  _eeprom_ByteWrite
                  0x00a6dc                  _eeprom_PageWrite
                  0x00a71c                  _eeprom_ByteRead
                  0x00a74e                  _eeprom_SequentialRead
 .text            0x00a7ac        0x1f4 build/default/production/_ext/1472/pitchCntrl.o
                  0x00a7ac                  _init_pitchCntrl
                  0x00a7ca                  _pitchCntrl
 .text            0x00a9a0        0x1f4 build/default/production/_ext/1472/servoMix.o
                  0x00a9a0                  _servoMix
                  0x00aaf0                  _cameraServoMix
 .text            0x00ab94        0x1e0 build/default/production/_ext/1077454706/radioIn.o
                  0x00ab94                  _udb_servo_record_trims
                  0x00abbc                  _udb_init_capture
                  0x00ac1a                  _radioIn_failsafe_check
                  0x00ac4c                  _radioIn_failsafe_reset
                  0x00ac56                  _get_sonar_value
                  0x00ac5e                  _get_sonar_count
                  0x00ac66                  _udb_init_sonar
                  0x00ac9e                  __IC8Interrupt
                  0x00ace0                  __IC1Interrupt
 .text            0x00ad74        0x1dc build/default/production/_ext/1077454706/events.o
                  0x00ad74                  _register_event
                  0x00ad82                  _register_event_p
                  0x00adce                  _trigger_event
                  0x00ae1c                  _init_events
                  0x00ae7c                  __C2Interrupt
                  0x00aee6                  __C1Interrupt
 .text            0x00af50        0x1d2 build/default/production/_ext/1077454706/analog2digital_udb5.o
                  0x00af50                  _udb_init_ADC
                  0x00b01e                  __DMA0Interrupt
 .text            0x00b122        0x1cc build/default/production/_ext/1077471063/gpsParseSTD.o
                  0x00b122                  _gps_nav_valid
                  0x00b132                  _gps_startup_sequence
                  0x00b178                  build/default/production/_ext/1077471063/gpsParseSTD.o:_msg_B3
                  0x00b18c                  build/default/production/_ext/1077471063/gpsParseSTD.o:_msg_A0
                  0x00b1aa                  build/default/production/_ext/1077471063/gpsParseSTD.o:_msg_A2
                  0x00b1ba                  build/default/production/_ext/1077471063/gpsParseSTD.o:_msg_PL1
                  0x00b1d0                  build/default/production/_ext/1077471063/gpsParseSTD.o:_msg_PL2
                  0x00b20a                  build/default/production/_ext/1077471063/gpsParseSTD.o:_msg_MSG41
                  0x00b252                  build/default/production/_ext/1077471063/gpsParseSTD.o:_msg_MSGU
                  0x00b27a                  build/default/production/_ext/1077471063/gpsParseSTD.o:_msg_B0
                  0x00b2aa                  _gps_commit_data
                  0x00b2e8                  _init_gps_std
 .text            0x00b2ee        0x1c2 build/default/production/_ext/1077471063/libDCM.o
                  0x00b2ee                  _dcm_init
                  0x00b2fe                  _dcm_run_init_step
                  0x00b32c                  _runI2CQueuedSensors
                  0x00b34c                  _udb_heartbeat_callback
                  0x00b374                  _dcm_calibrate
                  0x00b388                  _dcm_set_origin_location
                  0x00b3c8                  _dcm_absolute_to_relative
                  0x00b42a                  _dcm_rel2abs
 .text            0x00b4b0        0x1a2 build/default/production/_ext/1077454706/mpu_spi.o
                  0x00b4b0                  _initMPUSPI_master16
                  0x00b4f4                  _writeMPUSPIreg16
                  0x00b52c                  build/default/production/_ext/1077454706/mpu_spi.o:_no_call_back
                  0x00b532                  _readMPUSPI_burst16n
                  0x00b56a                  __SPI2Interrupt
                  0x00b616                  _readMPUSPIreg16
 .text            0x00b652        0x192 build/default/production/_ext/1472/yawCntrl.o
                  0x00b652                  _init_yawCntrl
                  0x00b66c                  _yawCntrl
                  0x00b686                  _normalYawCntrl
                  0x00b786                  _hoverYawCntrl
 .text            0x00b7e4        0x190 build/default/production/_ext/1472/behavior.o
                  0x00b7e4                  _init_behavior
                  0x00b7f6                  _setBehavior
                  0x00b81c                  _canStabilizeInverted
                  0x00b852                  _canStabilizeHover
                  0x00b85a                  _updateBehavior
                  0x00b91c                  _updateTriggerAction
 .text            0x00b974        0x17a build/default/production/_ext/1077454706/background.o
                  0x00b974                  _udb_cpu_load
                  0x00b986                  _init_heartbeat
                  0x00b9e0                  _cpu_load_calc
                  0x00ba1c                  _udb_init_clock
                  0x00ba2a                  __T1Interrupt
                  0x00ba54                  __T5Interrupt
                  0x00ba72                  __T6Interrupt
                  0x00baa2                  _udb_background_trigger_pulse
                  0x00bab0                  __T7Interrupt
                  0x00bae0                  _udb_background_trigger
 .text            0x00baee        0x174 build/default/production/_ext/1077454706/servoOut.o
                  0x00baee                  _udb_init_pwm
                  0x00bb36                  _udb_set_action_state
                  0x00bb52                  _start_pwm_outputs
                  0x00bb68                  __T4Interrupt
 .text            0x00bc62        0x11e build/default/production/_ext/1472/rollCntrl.o
                  0x00bc62                  _init_rollCntrl
                  0x00bc7c                  _rollCntrl
                  0x00bc96                  _normalRollCntrl
                  0x00bd30                  _hoverRollCntrl
 .text            0x00bd80        0x118 build/default/production/_ext/1077454706/mpu6000.o
                  0x00bd80                  _MPU6000_init16
                  0x00be02                  _process_MPU_data
                  0x00be28                  _MPU6000_read
                  0x00be40                  __INT3Interrupt
                  0x00be68                  _MPU6000_print
 .text            0x00be98         0xe4 build/default/production/_ext/1472/servoPrepare.o
                  0x00be98                  _init_servoPrepare
                  0x00befa                  _dcm_heartbeat_callback
                  0x00bf62                  _manualPassthrough
 .text            0x00bf7c         0xde build/default/production/_ext/1077454706/traps.o
                  0x00bf7c                  _restart
                  0x00bf96                  __OscillatorFail
                  0x00bfc2                  __AddressError
                  0x00bfe8                  __StackError
                  0x00c00e                  __MathError
                  0x00c034                  __DMACError
 .text            0x00c05a         0xbe build/default/production/_ext/1077471063/estAirspeed.o
                  0x00c05a                  _get_air_density
                  0x00c082                  _calc_indicated_airspeed
                  0x00c0ae                  _calc_true_airspeed_from_indicated
                  0x00c0dc                  _calc_true_airspeed
 .text            0x00c118         0xbc build/default/production/_ext/1472/mode_switch.o
                  0x00c118                  _flight_mode_switch_manual
                  0x00c126                  _flight_mode_switch_stabilize
                  0x00c134                  _flight_mode_switch_waypoints
                  0x00c142                  _flight_mode_switch_2pos_poll
                  0x00c148                  _flight_mode_switch_check_set
 .text            0x00c1d4         0xb8 build/default/production/_ext/1077454706/heartbeat.o
                  0x00c1d4                  _heartbeat_chk
                  0x00c200                  _heartbeat_cnt
                  0x00c208                  _heartbeat
                  0x00c24c                  build/default/production/_ext/1077454706/heartbeat.o:_pulse
 .text            0x00c28c         0xac build/default/production/_ext/1472/sonarCntrl.o
                  0x00c28c                  _get_sonar_rawaglaltitude
                  0x00c294                  _get_sonar_aglaltitude
                  0x00c29c                  _get_cos_sonarproll
                  0x00c2a6                  _calSonarAGLAltitude
 .text            0x00c338         0x9e build/default/production/_ext/1077454706/libUDB.o
                  0x00c338                  _udb_init
                  0x00c37e                  _udb_run
                  0x00c386                  _udb_a2d_record_offsets
                  0x00c3a8                  _udb_servo_pulsesat
 .text            0x00c3d6         0x94 build/default/production/_ext/1077454706/osd_bit.o
                  0x00c3d6                  _osd_spi_init
                  0x00c3e8                  _spi_write_raw_byte
                  0x00c428                  _osd_spi_write_byte
                  0x00c446                  _osd_spi_write
 .text            0x00c46a         0x90 build/default/production/_ext/1472/cameraCntrl.o
                  0x00c46a                  _cam_pitchServoLimit
                  0x00c494                  _cam_yawServoLimit
                  0x00c4be                  _set_camera_view
                  0x00c4d6                  _compute_camera_view
                  0x00c4f4                  _cameraCntrl
 .text            0x00c4fa         0x84 build/default/production/_ext/1077471063/estYawDrift.o
                  0x00c4fa                  _magnetometer_callback_newdata
                  0x00c502                  _dcm_enable_yaw_drift_correction
                  0x00c524                  _estYawDrift
 .text            0x00c57e         0x84 build/default/production/_ext/1077454706/mcu.o
                  0x00c57e                  _get_reset_flags
                  0x00c59c                  _configureDigitalIO
                  0x00c5a8                  _init_leds
                  0x00c5be                  _mcu_init
 .text            0x00c602         0x82 build/default/production/_ext/1077454706/analogs.o
                  0x00c602                  _init_analogs
                  0x00c61a                  _calculate_analog_sensor_values
 .text            0x00c684         0x42 build/default/production/_ext/1472/euler_angles.o
                  0x00c684                  _get_geo_heading_angle
 .text            0x00c6c6         0x40 build/default/production/_ext/1077454706/traps_asm.o
                  0x00c6c6                  _SP_start
                  0x00c6ca                  _SP_limit
                  0x00c6ce                  _SP_current
                  0x00c6d2                  _getErrLoc
                  0x00c6e8                  _setjmp
                  0x00c6fe                  _gentrap
 .text            0x00c706         0x30 build/default/production/_ext/1472/main.o
                  0x00c706                  _main
 .text            0x00c736         0x2a build/default/production/_ext/1472/airspeedCntrl.o
                  0x00c736                  _init_airspeedCntrl
 .text            0x00c760         0x28 build/default/production/_ext/1472/config.o
                  0x00c760                  _init_config
                  0x00c782                  _save_config

.init.delay32     0x00c788         0x1c
 .init.delay32    0x00c788         0x1c c:/program files (x86)/microchip/xc16/v1.10/bin/bin/../../lib\liblega-pic30-elf.a(delay32.Leo)
                  0x00c788                  ___delay32

.text             0x00c7a4          0xc
 .text            0x00c7a4          0x6 build/default/production/_ext/1077454706/uart.o
                  0x00c7a4                  _init_uart
 .text            0x00c7aa          0x6 build/default/production/_ext/1472/altitudeCntrlVariable.o
                  0x00c7aa                  _init_altitudeCntrlVariable
