Microchip Technology Inc, vv1_11 (A) 

Tool Name:
  c:\program files (x86)\microchip\xc16\v1.11\bin\bin\..\bin/elf-ld.exe

Command:
  -p33FJ256GP710A \
  -o \
  dist/default/production/MPMTricopter.X.production.elf \
  -Lc:/program files (x86)/microchip/xc16/v1.11/bin/bin/.. \
  -Lc:/program files (x86)/microchip/xc16/v1.11/bin/bin/../../lib \
  -Lc:/program files (x86)/microchip/xc16/v1.11/bin/bin/../../lib/PIC24E \
  -Lc:/program files (x86)/microchip/xc16/v1.11/bin/bin/../../support/PIC24E/gld \
  -Lc:/program files (x86)/microchip/xc16/v1.11/bin/bin/../../lib/PIC24F \
  -Lc:/program files (x86)/microchip/xc16/v1.11/bin/bin/../../support/PIC24F/gld \
  -Lc:/program files (x86)/microchip/xc16/v1.11/bin/bin/../../lib/PIC24H \
  -Lc:/program files (x86)/microchip/xc16/v1.11/bin/bin/../../support/PIC24H/gld \
  -Lc:/program files (x86)/microchip/xc16/v1.11/bin/bin/../../lib/dsPIC30F \
  -Lc:/program files (x86)/microchip/xc16/v1.11/bin/bin/../../support/dsPIC30F/gld \
  -Lc:/program files (x86)/microchip/xc16/v1.11/bin/bin/../../lib/dsPIC33E \
  -Lc:/program files (x86)/microchip/xc16/v1.11/bin/bin/../../support/dsPIC33E/gld \
  -Lc:/program files (x86)/microchip/xc16/v1.11/bin/bin/../../lib/dsPIC33F \
  -Lc:/program files (x86)/microchip/xc16/v1.11/bin/bin/../../support/dsPIC33F/gld \
  build/default/production/_ext/1018724808/deadReckoning.o \
  build/default/production/_ext/1018724808/estWind.o \
  build/default/production/_ext/1018724808/estYawDrift.o \
  build/default/production/_ext/1018724808/gpsParseCommon.o \
  build/default/production/_ext/1018724808/gpsParseMTEK.o \
  build/default/production/_ext/1018724808/gpsParseSTD.o \
  build/default/production/_ext/1018724808/gpsParseUBX.o \
  build/default/production/_ext/1018724808/libDCM.o \
  build/default/production/_ext/1018724808/mathlibNAV.o \
  build/default/production/_ext/1018724808/rmat.o \
  build/default/production/_ext/1018724808/rmat_obj.o \
  build/default/production/_ext/1018724808/gpsParseNMEA.o \
  build/default/production/_ext/1018708451/traps_udb4_asm.o \
  build/default/production/_ext/1018708451/background.o \
  build/default/production/_ext/1018708451/eeprom_udb4.o \
  build/default/production/_ext/1018708451/events.o \
  build/default/production/_ext/1018708451/filters.o \
  build/default/production/_ext/1018708451/I2C_udb4.o \
  build/default/production/_ext/1018708451/libUDB.o \
  build/default/production/_ext/1018708451/magneto_udb4.o \
  build/default/production/_ext/1018708451/mpu6000.o \
  build/default/production/_ext/1018708451/osd.o \
  build/default/production/_ext/1018708451/radioIn_udb4.o \
  build/default/production/_ext/1018708451/spiUtils.o \
  build/default/production/_ext/1018708451/24xxEEPROM.o \
  build/default/production/_ext/682965384/data_services.o \
  build/default/production/_ext/682965384/data_storage.o \
  build/default/production/_ext/682965384/euler_angles.o \
  build/default/production/_ext/682965384/MAVLink.o \
  build/default/production/_ext/682965384/nv_memory_table.o \
  build/default/production/_ext/682965384/parameter_table.o \
  build/default/production/_ext/682965384/states.o \
  build/default/production/_ext/682965384/mode_switch.o \
  build/default/production/_ext/682965384/airspeedCntrl.o \
  build/default/production/_ext/682965384/altitudeCntrl.o \
  build/default/production/_ext/682965384/altitudeCntrlVariable.o \
  build/default/production/_ext/682965384/behavior.o \
  build/default/production/_ext/682965384/cameraCntrl.o \
  build/default/production/_ext/682965384/config_tests.o \
  build/default/production/_ext/682965384/flightplan-logo.o \
  build/default/production/_ext/682965384/flightplan-waypoints.o \
  build/default/production/_ext/682965384/mp_osd.o \
  build/default/production/_ext/682965384/navigate.o \
  build/default/production/_ext/682965384/pitchCntrl.o \
  build/default/production/_ext/682965384/rollCntrl.o \
  build/default/production/_ext/682965384/servoMix.o \
  build/default/production/_ext/682965384/servoPrepare.o \
  build/default/production/_ext/682965384/yawCntrl.o \
  build/default/production/main.o \
  build/default/production/motorCntrl.o \
  build/default/production/telemetry.o \
  build/default/production/servoOut.o \
  build/default/production/serialIO_udb4.o \
  build/default/production/_ext/1018708451/analog2digital_udb4.o \
  --defsym=__MPLAB_BUILD=1 \
  -Tp33FJ256GP710A.gld.00 \
  --heap=0 \
  --check-sections \
  --data-init \
  --pack-data \
  --handles \
  --isr \
  --no-gc-sections \
  --fill-upper=0 \
  --stackguard=16 \
  --library=dsp \
  --library=q \
  --no-force-link \
  --smart-io \
  -Map=dist/default/production/MatrixPilotQuad-udb4.X.production.map \
  -start-group \
  --library=lega-pic30-elf \
  --library=m-elf \
  --library=lega-c-elf \
  -end-group \

Archive member included because of file (symbol)

c:/program files (x86)/microchip/xc16/v1.11/bin/bin/../../lib/dsPIC33F\libp33FJ256GP710A-elf.a(CloseSPI1.o)
                              build/default/production/_ext/1018708451/spiUtils.o (_CloseSPI1)
c:/program files (x86)/microchip/xc16/v1.11/bin/bin/../../lib/dsPIC33F\libp33FJ256GP710A-elf.a(ConfigIntSPI1.o)
                              build/default/production/_ext/1018708451/spiUtils.o (_ConfigIntSPI1)
c:/program files (x86)/microchip/xc16/v1.11/bin/bin/../../lib/dsPIC33F\libp33FJ256GP710A-elf.a(OpenSPI1.o)
                              build/default/production/_ext/1018708451/spiUtils.o (_OpenSPI1)
c:/program files (x86)/microchip/xc16/v1.11/bin/bin/../../lib\libdsp-elf.a(vscl.obj)
                              build/default/production/_ext/1018724808/rmat.o (_VectorScale)
c:/program files (x86)/microchip/xc16/v1.11/bin/bin/../../lib\libdsp-elf.a(vadd.obj)
                              build/default/production/_ext/1018724808/rmat.o (_VectorAdd)
c:/program files (x86)/microchip/xc16/v1.11/bin/bin/../../lib\libdsp-elf.a(vmul.obj)
                              build/default/production/_ext/1018724808/rmat.o (_VectorMultiply)
c:/program files (x86)/microchip/xc16/v1.11/bin/bin/../../lib\libdsp-elf.a(vdot.obj)
                              build/default/production/_ext/1018724808/rmat.o (_VectorDotProduct)
c:/program files (x86)/microchip/xc16/v1.11/bin/bin/../../lib\libdsp-elf.a(vpow.obj)
                              build/default/production/_ext/1018724808/rmat.o (_VectorPower)
c:/program files (x86)/microchip/xc16/v1.11/bin/bin/../../lib\libdsp-elf.a(madd.obj)
                              build/default/production/_ext/1018724808/rmat.o (_MatrixAdd)
c:/program files (x86)/microchip/xc16/v1.11/bin/bin/../../lib\libdsp-elf.a(mmul.obj)
                              build/default/production/_ext/1018724808/rmat.o (_MatrixMultiply)
c:/program files (x86)/microchip/xc16/v1.11/bin/bin/../../lib\liblega-pic30-elf.a(crt0_standard.o)
                              (__resetPRI)
c:/program files (x86)/microchip/xc16/v1.11/bin/bin/../../lib\liblega-pic30-elf.a(data_init_standard.o)
                              c:/program files (x86)/microchip/xc16/v1.11/bin/bin/../../lib\liblega-pic30-elf.a(crt0_standard.o) (__data_init_standard)
c:/program files (x86)/microchip/xc16/v1.11/bin/bin/../../lib\liblega-pic30-elf.a(delay32.Leo)
                              build/default/production/_ext/1018708451/mpu6000.o (___delay32)
c:/program files (x86)/microchip/xc16/v1.11/bin/bin/../../lib\libm-elf.a(divsf3.eo)
                              build/default/production/telemetry.o (___divsf3)
c:/program files (x86)/microchip/xc16/v1.11/bin/bin/../../lib\libm-elf.a(divsi3.eo)
                              build/default/production/_ext/1018724808/libDCM.o (___divsi3)
c:/program files (x86)/microchip/xc16/v1.11/bin/bin/../../lib\libm-elf.a(fgtge.eo)
                              build/default/production/_ext/1018724808/rmat.o (___gtsf2)
c:/program files (x86)/microchip/xc16/v1.11/bin/bin/../../lib\libm-elf.a(fixsfsi.eo)
                              build/default/production/_ext/1018724808/gpsParseCommon.o (_(float, int, long long, short, float, short, int))
c:/program files (x86)/microchip/xc16/v1.11/bin/bin/../../lib\libm-elf.a(floatsisf.eo)
                              build/default/production/_ext/1018724808/gpsParseCommon.o (___floatsisf)
c:/program files (x86)/microchip/xc16/v1.11/bin/bin/../../lib\libm-elf.a(floatunsisf.eo)
                              build/default/production/_ext/1018724808/rmat.o (___floatunsisf)
c:/program files (x86)/microchip/xc16/v1.11/bin/bin/../../lib\libm-elf.a(fpack.eo)
                              c:/program files (x86)/microchip/xc16/v1.11/bin/bin/../../lib\libm-elf.a(divsf3.eo) (__fpack)
c:/program files (x86)/microchip/xc16/v1.11/bin/bin/../../lib\libm-elf.a(funpack.eo)
                              c:/program files (x86)/microchip/xc16/v1.11/bin/bin/../../lib\libm-elf.a(fixsfsi.eo) (__funpack)
c:/program files (x86)/microchip/xc16/v1.11/bin/bin/../../lib\libm-elf.a(funpack2.eo)
                              c:/program files (x86)/microchip/xc16/v1.11/bin/bin/../../lib\libm-elf.a(divsf3.eo) (__funpack2)
c:/program files (x86)/microchip/xc16/v1.11/bin/bin/../../lib\libm-elf.a(futil.eo)
                              c:/program files (x86)/microchip/xc16/v1.11/bin/bin/../../lib\libm-elf.a(divsf3.eo) (__fPropagateNaN)
c:/program files (x86)/microchip/xc16/v1.11/bin/bin/../../lib\libm-elf.a(modsi3.eo)
                              build/default/production/_ext/1018724808/gpsParseNMEA.o (___modsi3)
c:/program files (x86)/microchip/xc16/v1.11/bin/bin/../../lib\libm-elf.a(mulsf3.eo)
                              build/default/production/_ext/1018724808/gpsParseCommon.o (___mulsf3)
c:/program files (x86)/microchip/xc16/v1.11/bin/bin/../../lib\libm-elf.a(udivsi3.eo)
                              build/default/production/_ext/1018724808/gpsParseNMEA.o (___udivsi3)
c:/program files (x86)/microchip/xc16/v1.11/bin/bin/../../lib\libm-elf.a(umodsi3.eo)
                              build/default/production/_ext/1018724808/gpsParseNMEA.o (___umodsi3)
c:/program files (x86)/microchip/xc16/v1.11/bin/bin/../../lib\libm-elf.a(fcompare.eo)
                              c:/program files (x86)/microchip/xc16/v1.11/bin/bin/../../lib\libm-elf.a(fgtge.eo) (__fcompare)
c:/program files (x86)/microchip/xc16/v1.11/bin/bin/../../lib\libm-elf.a(floatdisf.eo)
                              c:/program files (x86)/microchip/xc16/v1.11/bin/bin/../../lib\libm-elf.a(floatsisf.eo) (___floatdisf)
c:/program files (x86)/microchip/xc16/v1.11/bin/bin/../../lib\libm-elf.a(floatundisf.eo)
                              c:/program files (x86)/microchip/xc16/v1.11/bin/bin/../../lib\libm-elf.a(floatunsisf.eo) (___floatundisf)
c:/program files (x86)/microchip/xc16/v1.11/bin/bin/../../lib\liblega-c-elf.a(memcpy.XXeo)
                              build/default/production/telemetry.o (_memcpy)
c:/program files (x86)/microchip/xc16/v1.11/bin/bin/../../lib\liblega-c-elf.a(strlen.XXeo)
                              build/default/production/_ext/1018724808/gpsParseCommon.o (_strlen)
c:/program files (x86)/microchip/xc16/v1.11/bin/bin/../../lib\liblega-c-elf.a(printf_cdnopuxX.XXeo)
                              build/default/production/_ext/1018708451/mpu6000.o (__printf_cdnopuxX)
c:/program files (x86)/microchip/xc16/v1.11/bin/bin/../../lib\liblega-c-elf.a(xprintf_cdnopuxX.XXeo)
                              c:/program files (x86)/microchip/xc16/v1.11/bin/bin/../../lib\liblega-c-elf.a(printf_cdnopuxX.XXeo) (___Printf_cdnopuxX)
c:/program files (x86)/microchip/xc16/v1.11/bin/bin/../../lib\liblega-c-elf.a(xputfld_cdnopuxX.XXeo)
                              c:/program files (x86)/microchip/xc16/v1.11/bin/bin/../../lib\liblega-c-elf.a(xprintf_cdnopuxX.XXeo) (___Putfld_cdnopuxX)
c:/program files (x86)/microchip/xc16/v1.11/bin/bin/../../lib\liblega-c-elf.a(snprintf_cdfFnopuxX.XXeo)
                              build/default/production/telemetry.o (__snprintf_cdfFnopuxX)
c:/program files (x86)/microchip/xc16/v1.11/bin/bin/../../lib\liblega-c-elf.a(xprintf_cdfFnopuxX.XXeo)
                              c:/program files (x86)/microchip/xc16/v1.11/bin/bin/../../lib\liblega-c-elf.a(snprintf_cdfFnopuxX.XXeo) (___Printf_cdfFnopuxX)
c:/program files (x86)/microchip/xc16/v1.11/bin/bin/../../lib\liblega-c-elf.a(xputfld_cdfFnopuxX.XXeo)
                              c:/program files (x86)/microchip/xc16/v1.11/bin/bin/../../lib\liblega-c-elf.a(xprintf_cdfFnopuxX.XXeo) (___Putfld_cdfFnopuxX)
c:/program files (x86)/microchip/xc16/v1.11/bin/bin/../../lib\liblega-c-elf.a(xldtob_cdfFnopuxX.XXeo)
                              c:/program files (x86)/microchip/xc16/v1.11/bin/bin/../../lib\liblega-c-elf.a(xputfld_cdfFnopuxX.XXeo) (___Ldtob_cdfFnopuxX)
c:/program files (x86)/microchip/xc16/v1.11/bin/bin/../../lib\liblega-c-elf.a(xgenld_cdfFnopuxX.XXeo)
                              c:/program files (x86)/microchip/xc16/v1.11/bin/bin/../../lib\liblega-c-elf.a(xldtob_cdfFnopuxX.XXeo) (___Genld_cdfFnopuxX)
c:/program files (x86)/microchip/xc16/v1.11/bin/bin/../../lib\liblega-c-elf.a(div.XXeo)
                              c:/program files (x86)/microchip/xc16/v1.11/bin/bin/../../lib\liblega-c-elf.a(xgenld_cdfFnopuxX.XXeo) (_div)
c:/program files (x86)/microchip/xc16/v1.11/bin/bin/../../lib\liblega-c-elf.a(fwrite.XXeo)
                              c:/program files (x86)/microchip/xc16/v1.11/bin/bin/../../lib\liblega-c-elf.a(printf_cdnopuxX.XXeo) (_fwrite)
c:/program files (x86)/microchip/xc16/v1.11/bin/bin/../../lib\liblega-c-elf.a(ldiv.XXeo)
                              c:/program files (x86)/microchip/xc16/v1.11/bin/bin/../../lib\liblega-c-elf.a(xldtob_cdfFnopuxX.XXeo) (_ldiv)
c:/program files (x86)/microchip/xc16/v1.11/bin/bin/../../lib\liblega-c-elf.a(memchr.XXeo)
                              c:/program files (x86)/microchip/xc16/v1.11/bin/bin/../../lib\liblega-c-elf.a(fwrite.XXeo) (_memchr)
c:/program files (x86)/microchip/xc16/v1.11/bin/bin/../../lib\liblega-c-elf.a(strchr.XXeo)
                              c:/program files (x86)/microchip/xc16/v1.11/bin/bin/../../lib\liblega-c-elf.a(xprintf_cdnopuxX.XXeo) (_strchr)
c:/program files (x86)/microchip/xc16/v1.11/bin/bin/../../lib\liblega-c-elf.a(xfiles.XXeo)
                              c:/program files (x86)/microchip/xc16/v1.11/bin/bin/../../lib\liblega-c-elf.a(printf_cdnopuxX.XXeo) (__Stdout)
c:/program files (x86)/microchip/xc16/v1.11/bin/bin/../../lib\liblega-c-elf.a(xfwprep.XXeo)
                              c:/program files (x86)/microchip/xc16/v1.11/bin/bin/../../lib\liblega-c-elf.a(fwrite.XXeo) (__Fwprep)
c:/program files (x86)/microchip/xc16/v1.11/bin/bin/../../lib\liblega-c-elf.a(xldunsca.XXeo)
                              c:/program files (x86)/microchip/xc16/v1.11/bin/bin/../../lib\liblega-c-elf.a(xldtob_cdfFnopuxX.XXeo) (__LDunscale)
c:/program files (x86)/microchip/xc16/v1.11/bin/bin/../../lib\liblega-c-elf.a(xlitob.XXeo)
                              c:/program files (x86)/microchip/xc16/v1.11/bin/bin/../../lib\liblega-c-elf.a(xputfld_cdnopuxX.XXeo) (__Litob)
c:/program files (x86)/microchip/xc16/v1.11/bin/bin/../../lib\liblega-c-elf.a(xputtxt.XXeo)
                              c:/program files (x86)/microchip/xc16/v1.11/bin/bin/../../lib\liblega-c-elf.a(xprintf_cdnopuxX.XXeo) (__Puttxt)
c:/program files (x86)/microchip/xc16/v1.11/bin/bin/../../lib\liblega-c-elf.a(xvacopy.XXeo)
                              c:/program files (x86)/microchip/xc16/v1.11/bin/bin/../../lib\liblega-c-elf.a(xprintf_cdnopuxX.XXeo) (__Vacopy)
c:/program files (x86)/microchip/xc16/v1.11/bin/bin/../../lib\liblega-c-elf.a(fclose.XXelo)
                              c:/program files (x86)/microchip/xc16/v1.11/bin/bin/../../lib\liblega-c-elf.a(xfwprep.XXeo) (__Closreg)
c:/program files (x86)/microchip/xc16/v1.11/bin/bin/../../lib\liblega-c-elf.a(fflush.XXelo)
                              c:/program files (x86)/microchip/xc16/v1.11/bin/bin/../../lib\liblega-c-elf.a(fwrite.XXeo) (__DNKfflush)
c:/program files (x86)/microchip/xc16/v1.11/bin/bin/../../lib\liblega-c-elf.a(xatexit.XXelo)
                              c:/program files (x86)/microchip/xc16/v1.11/bin/bin/../../lib\liblega-c-elf.a(fclose.XXelo) (__Atexit)
c:/program files (x86)/microchip/xc16/v1.11/bin/bin/../../lib\liblega-c-elf.a(xdnorm.XXelo)
                              c:/program files (x86)/microchip/xc16/v1.11/bin/bin/../../lib\liblega-c-elf.a(xldunsca.XXeo) (__Dnorm)
c:/program files (x86)/microchip/xc16/v1.11/bin/bin/../../lib\liblega-c-elf.a(free.XXeo)
                              c:/program files (x86)/microchip/xc16/v1.11/bin/bin/../../lib\liblega-c-elf.a(fclose.XXelo) (_free)
c:/program files (x86)/microchip/xc16/v1.11/bin/bin/../../lib\liblega-c-elf.a(malloc.XXeo)
                              c:/program files (x86)/microchip/xc16/v1.11/bin/bin/../../lib\liblega-c-elf.a(free.XXeo) (__Aldata)
c:/program files (x86)/microchip/xc16/v1.11/bin/bin/../../lib\liblega-c-elf.a(xgetmem.XXeo)
                              c:/program files (x86)/microchip/xc16/v1.11/bin/bin/../../lib\liblega-c-elf.a(malloc.XXeo) (__Getmem)
c:/program files (x86)/microchip/xc16/v1.11/bin/bin/../../lib\liblega-pic30-elf.a(sbrk.Leo)
                              c:/program files (x86)/microchip/xc16/v1.11/bin/bin/../../lib\liblega-c-elf.a(xgetmem.XXeo) (_sbrk)
c:/program files (x86)/microchip/xc16/v1.11/bin/bin/../../lib\liblega-pic30-elf.a(brk.Lelo)
                              c:/program files (x86)/microchip/xc16/v1.11/bin/bin/../../lib\liblega-pic30-elf.a(sbrk.Leo) (_brk)
c:/program files (x86)/microchip/xc16/v1.11/bin/bin/../../lib\liblega-pic30-elf.a(close.Leo)
                              c:/program files (x86)/microchip/xc16/v1.11/bin/bin/../../lib\liblega-c-elf.a(fclose.XXelo) (_close)
c:/program files (x86)/microchip/xc16/v1.11/bin/bin/../../lib\liblega-pic30-elf.a(write.Leo)
                              c:/program files (x86)/microchip/xc16/v1.11/bin/bin/../../lib\liblega-c-elf.a(fflush.XXelo) (_write)
c:/program files (x86)/microchip/xc16/v1.11/bin/bin/../../lib\liblega-pic30-elf.a(remove.Leo)
                              c:/program files (x86)/microchip/xc16/v1.11/bin/bin/../../lib\liblega-c-elf.a(fclose.XXelo) (_remove)
c:/program files (x86)/microchip/xc16/v1.11/bin/bin/../../lib\liblega-pic30-elf.a(c30_uart.Leo)
                              c:/program files (x86)/microchip/xc16/v1.11/bin/bin/../../lib\liblega-pic30-elf.a(write.Leo) (___C30_UART)
c:/program files (x86)/microchip/xc16/v1.11/bin/bin/../../lib\libm-elf.a(deqltle.eo)
                              c:/program files (x86)/microchip/xc16/v1.11/bin/bin/../../lib\liblega-c-elf.a(xldtob_cdfFnopuxX.XXeo) (___ltdf2)
c:/program files (x86)/microchip/xc16/v1.11/bin/bin/../../lib\libm-elf.a(dgtge.eo)
                              c:/program files (x86)/microchip/xc16/v1.11/bin/bin/../../lib\liblega-c-elf.a(xldtob_cdfFnopuxX.XXeo) (___gtdf2)
c:/program files (x86)/microchip/xc16/v1.11/bin/bin/../../lib\libm-elf.a(divdf3.eo)
                              c:/program files (x86)/microchip/xc16/v1.11/bin/bin/../../lib\liblega-c-elf.a(xldtob_cdfFnopuxX.XXeo) (___divdf3)
c:/program files (x86)/microchip/xc16/v1.11/bin/bin/../../lib\libm-elf.a(dpack.eo)
                              c:/program files (x86)/microchip/xc16/v1.11/bin/bin/../../lib\libm-elf.a(divdf3.eo) (__dpack)
c:/program files (x86)/microchip/xc16/v1.11/bin/bin/../../lib\libm-elf.a(dunpack2.eo)
                              c:/program files (x86)/microchip/xc16/v1.11/bin/bin/../../lib\libm-elf.a(divdf3.eo) (__dunpack2)
c:/program files (x86)/microchip/xc16/v1.11/bin/bin/../../lib\libm-elf.a(extendsfdf.eo)
                              c:/program files (x86)/microchip/xc16/v1.11/bin/bin/../../lib\liblega-c-elf.a(xputfld_cdfFnopuxX.XXeo) (___extendsfdf2)
c:/program files (x86)/microchip/xc16/v1.11/bin/bin/../../lib\libm-elf.a(fixdfsi.eo)
                              c:/program files (x86)/microchip/xc16/v1.11/bin/bin/../../lib\liblega-c-elf.a(xldtob_cdfFnopuxX.XXeo) (_(float, int, long long, double, float, short, int))
c:/program files (x86)/microchip/xc16/v1.11/bin/bin/../../lib\libm-elf.a(floatsidf.eo)
                              c:/program files (x86)/microchip/xc16/v1.11/bin/bin/../../lib\liblega-c-elf.a(xldtob_cdfFnopuxX.XXeo) (___floatsidf)
c:/program files (x86)/microchip/xc16/v1.11/bin/bin/../../lib\libm-elf.a(muldf3.eo)
                              c:/program files (x86)/microchip/xc16/v1.11/bin/bin/../../lib\liblega-c-elf.a(xldtob_cdfFnopuxX.XXeo) (___muldf3)
c:/program files (x86)/microchip/xc16/v1.11/bin/bin/../../lib\libm-elf.a(subdf3.eo)
                              c:/program files (x86)/microchip/xc16/v1.11/bin/bin/../../lib\liblega-c-elf.a(xldtob_cdfFnopuxX.XXeo) (___subdf3)
c:/program files (x86)/microchip/xc16/v1.11/bin/bin/../../lib\libm-elf.a(mulsi3.eo)
                              c:/program files (x86)/microchip/xc16/v1.11/bin/bin/../../lib\liblega-c-elf.a(xldtob_cdfFnopuxX.XXeo) (___mulsi3)
c:/program files (x86)/microchip/xc16/v1.11/bin/bin/../../lib\libm-elf.a(divmoddi3.eo)
                              c:/program files (x86)/microchip/xc16/v1.11/bin/bin/../../lib\liblega-c-elf.a(xlitob.XXeo) (___udivdi3)
c:/program files (x86)/microchip/xc16/v1.11/bin/bin/../../lib\libm-elf.a(adddf3.eo)
                              c:/program files (x86)/microchip/xc16/v1.11/bin/bin/../../lib\libm-elf.a(subdf3.eo) (___adddf3)
c:/program files (x86)/microchip/xc16/v1.11/bin/bin/../../lib\libm-elf.a(dcompare.eo)
                              c:/program files (x86)/microchip/xc16/v1.11/bin/bin/../../lib\libm-elf.a(deqltle.eo) (__dcompare)
c:/program files (x86)/microchip/xc16/v1.11/bin/bin/../../lib\libm-elf.a(dpropagateNaN.eo)
                              c:/program files (x86)/microchip/xc16/v1.11/bin/bin/../../lib\libm-elf.a(dunpack2.eo) (__dPropagateNaN)
c:/program files (x86)/microchip/xc16/v1.11/bin/bin/../../lib\libm-elf.a(dtype.eo)
                              c:/program files (x86)/microchip/xc16/v1.11/bin/bin/../../lib\libm-elf.a(dcompare.eo) (__dtype)
c:/program files (x86)/microchip/xc16/v1.11/bin/bin/../../lib\libm-elf.a(dunpack.eo)
                              c:/program files (x86)/microchip/xc16/v1.11/bin/bin/../../lib\libm-elf.a(dunpack2.eo) (__dunpack)
c:/program files (x86)/microchip/xc16/v1.11/bin/bin/../../lib\libm-elf.a(floatdidf.eo)
                              c:/program files (x86)/microchip/xc16/v1.11/bin/bin/../../lib\libm-elf.a(floatsidf.eo) (___floatdidf)
c:/program files (x86)/microchip/xc16/v1.11/bin/bin/../../lib\libm-elf.a(floatundidf.eo)
                              c:/program files (x86)/microchip/xc16/v1.11/bin/bin/../../lib\libm-elf.a(floatdidf.eo) (___floatundidf)


Selected CodeGuard Options:
  FGS:GWRP:OFF
  FGS:GSS:OFF

CodeGuard FLASH Memory:
  boot    (none)
  secure  (none)
  general 0x200 to 0x2abfc

CodeGuard RAM Memory:
  general 0x800 to 0x7fff
  secure  (none)
  boot    (none)


Program Memory  [Origin = 0x200, Length = 0x2a9fe]

section                    address   length (PC units)   length (bytes) (dec)
-------                    -------   -----------------   --------------------
.text                        0x200              0x1f68          0x2f1c  (12060)
.const                      0x2168               0x3b2           0x58b  (1419)
.text                       0x251a              0x2f72          0x472b  (18219)
.dinit                      0x548c               0x3b6           0x591  (1425)
.text                       0x5842              0x2962          0x3e13  (15891)
.init.delay32               0x81a4                0x1c            0x2a  (42)
.text                       0x81c0                 0x6             0x9  (9)

                     Total program memory used (bytes):         0xbfa9  (49065) 18%


Data Memory  [Origin = 0x800, Length = 0x7800]

section                    address      alignment gaps    total length  (dec)
-------                    -------      --------------    -------------------
.nbss                        0x800                   0           0x2b4  (692)
.ndata                       0xab4                   0            0x9c  (156)
.nbss                        0xb50                   0            0x92  (146)
.ndata                       0xbe2                   0            0x8e  (142)
.nbss                        0xc70                   0            0x72  (114)
.ndata                       0xce2                   0            0x68  (104)
.nbss                        0xd4a                   0            0xa4  (164)
.ndata                       0xdee                   0            0x30  (48)
.nbss                        0xe1e                   0            0x4a  (74)
.ndata                       0xe68                   0            0x46  (70)
.nbss                        0xeae                   0            0x1e  (30)
.ndata                       0xecc                   0            0x22  (34)
.nbss                        0xeee                   0             0x8  (8)
.ndata                       0xef6                   0            0x1c  (28)
.nbss                        0xf12                   0            0x12  (18)
.ndata                       0xf24                   0             0x6  (6)
.nbss                        0xf2a                   0             0x4  (4)
.ndata                       0xf2e                   0             0x4  (4)
_013035A0522e3159            0xf32                   0             0x4  (4)
.ndata                       0xf36                   0             0x4  (4)
.nbss                        0xf3a                   0             0x6  (6)
.ndata                       0xf40                   0             0x2  (2)
_01303480522e3159            0xf42                   0             0x2  (2)
_01303600522e3159            0xf44                   0             0x2  (2)
.ndata                       0xf46                   0             0x2  (2)
.nbss                        0xf48                   0             0x6  (6)
.ndata                       0xf4e                   0             0x6  (6)
.bss                         0xf54                   0          0x16aa  (5802)
.data._Stdin                0x25fe                   0            0x88  (136)
.data                       0x2686                   0            0x58  (88)
.data.udigs                 0x26de                   0            0x22  (34)
.data                       0x2700                   0            0x1a  (26)
.data._Aldata               0x271a                   0             0x6  (6)
.data                       0x2720                   0             0x2  (2)
.bss                        0x2722                   0             0x4  (4)
.data.__C30_UART            0x2726                   0             0x2  (2)

                        Total data memory used (bytes):         0x1f28  (7976) 25%


Dynamic Memory Usage

region                     address                      maximum length  (dec)
------                     -------                      ---------------------
heap                             0                                   0  (0)
stack                       0x2728                              0x58d8  (22744)

                        Maximum dynamic memory (bytes):         0x58d8  (22744)


External Symbols in Data Memory (by address):

                    0x0800                  _debug_buffer
                    0x0904                  _pid_gains
                    0x0920                  _tilt_ki
                    0x0922                  _roll_kp
                    0x0924                  _roll_kd
                    0x0926                  _pitch_kp
                    0x0928                  _pitch_kd
                    0x092a                  _rrate_kp
                    0x092c                  _rrate_kd
                    0x092e                  _prate_kp
                    0x0930                  _prate_kd
                    0x0932                  _acro_kp
                    0x0934                  _rate_ki
                    0x0936                  _yaw_ki
                    0x0938                  _yaw_kp
                    0x093a                  _yaw_kd
                    0x093c                  _roll_control
                    0x093e                  _pitch_control
                    0x0940                  _throttle_control
                    0x0942                  _rolladvanced
                    0x0944                  _pitchadvanced
                    0x0946                  _lagBC
                    0x0947                  _precessBC
                    0x0948                  _yaw_control
                    0x094a                  _pitch_step
                    0x094c                  _matrix_accum
                    0x0950                  _earth_yaw
                    0x0952                  _accel_feedback
                    0x0954                  _pwManual
                    0x095e                  _roll_error
                    0x0960                  _pitch_error
                    0x0962                  _yaw_error
                    0x0964                  _rate_error
                    0x096a                  _rate_desired_delta
                    0x0970                  _rate_desired_prev
                    0x0976                  _rate_desired
                    0x097c                  _rate_des_damping
                    0x0982                  _poscmd_north
                    0x0984                  _poscmd_east
                    0x0986                  _pos_error
                    0x098c                  _pos_setpoint
                    0x0992                  _pos_prev
                    0x099e                  _pos_delta
                    0x09aa                  _pos_perr
                    0x09b0                  _pos_derr
                    0x09b6                  _cmd_RPY
                    0x09bc                  _prev_RPY
                    0x09c2                  _adv_RPY
                    0x09c8                  _Rtmp
                    0x09da                  _Rtrans
                    0x09ec                  _rate_setp
                    0x09f2                  _angle_error
                    0x09f8                  _long_accum
                    0x09fe                  _rmatDelayTime
                    0x0a90                  _gplaneFilt
                    0x0a96                  _theta
                    0x0a9c                  _accelerometer_earth
                    0x0aa2                  _GPS_acceleration
                    0x0aa8                  _accelerometer_reference
                    0x0aae                  _errorRP_earth
                    0x0ab4                  _ggain
                    0x0aba                  _spin_rate
                    0x0abc                  _spin_axis
                    0x0ac2                  _rmat
                    0x0ad4                  _rmatDelayCompensated
                    0x0ae6                  _omegagyro
                    0x0aec                  _omega
                    0x0af2                  _omegacorrP
                    0x0af8                  _omegacorrI
                    0x0afe                  _accelEarth
                    0x0b04                  _gyroCorrectionIntegral
                    0x0b10                  _omegaAccum
                    0x0b16                  _gplane
                    0x0b1c                  _dirovergndHGPS
                    0x0b22                  _dirovergndHRmat
                    0x0b28                  _errorRP
                    0x0b2e                  _errorYawground
                    0x0b34                  _errorYawplane
                    0x0b3a                  _error
                    0x0b3c                  _accelerometer_earth_integral
                    0x0b48                  _GPS_velocity_previous
                    0x0b4e                  _accelerometer_samples
                    0x0b50                  _filterState
                    0x0b5a                  _boxCarBuff
                    0x0b96                  _boxCarSum
                    0x0ba2                  _loc_cm_sum
                    0x0bae                  _loc_cm_avg
                    0x0bb4                  _lat_gps
                    0x0bb8                  _long_gps
                    0x0bbc                  _alt_sl_gps
                    0x0bc0                  _tow
                    0x0bc4                  _sog_gps
                    0x0bc6                  _cog_gps
                    0x0bc8                  _climb_gps
                    0x0bca                  _week_no
                    0x0bcc                  _as_sim
                    0x0bce                  _hdop
                    0x0bd0                  _lat_origin
                    0x0bd4                  _long_origin
                    0x0bd8                  _alt_origin
                    0x0bdc                  _svs
                    0x0bdd                  _lat_cir
                    0x0bde                  _gps_data_age
                    0x0be0                  _actual_dir
                    0x0be1                  _calculated_heading
                    0x0be2                  _current_flight_mode
                    0x0be4                  _motorsArmed
                    0x0be6                  _desired_heading
                    0x0be8                  _rate_error_prev
                    0x0bec                  _rate_error_dot
                    0x0bf0                  _yaw_error_previous
                    0x0bf2                  _roll_error_integral
                    0x0bf6                  _pitch_error_integral
                    0x0bfa                  _yaw_error_integral
                    0x0bfe                  _rrate_error_integral
                    0x0c02                  _prate_error_integral
                    0x0c06                  _yrate_error_integral
                    0x0c0a                  _Rx
                    0x0c1c                  _Ry
                    0x0c2e                  _Rz
                    0x0c40                  _Rc
                    0x0c52                  _Rd
                    0x0c64                  _prmat
                    0x0c66                  _pomegagyro
                    0x0c68                  _motorMap
                    0x0c6e                  _throttle_limit
                    0x0c70                  _udb_xaccel
                    0x0c7a                  _udb_yaccel
                    0x0c84                  _udb_zaccel
                    0x0c8e                  _udb_xrate
                    0x0c98                  _udb_yrate
                    0x0ca2                  _udb_zrate
                    0x0cac                  _udb_vref
                    0x0cb6                  _primaryV
                    0x0cc0                  _vref_adj
                    0x0ce2                  _dead_reckon_clock
                    0x0ce4                  _IMUvelocityx
                    0x0ce8                  _IMUvelocityy
                    0x0cec                  _IMUvelocityz
                    0x0cf0                  _IMUlocationx
                    0x0cf4                  _IMUlocationy
                    0x0cf8                  _IMUlocationz
                    0x0cfc                  _IMUintegralAccelerationx
                    0x0d00                  _IMUintegralAccelerationy
                    0x0d04                  _IMUintegralAccelerationz
                    0x0d08                  _air_speed_3DIMU
                    0x0d0a                  _total_energy
                    0x0d0c                  _locationErrorEarth
                    0x0d12                  _velocityErrorEarth
                    0x0d18                  _IMUcmx
                    0x0d1c                  _IMUcmy
                    0x0d20                  _IMUcmz
                    0x0d24                  _IMUvx
                    0x0d28                  _IMUvy
                    0x0d2c                  _IMUvz
                    0x0d30                  _integralAccelx
                    0x0d34                  _integralAccely
                    0x0d38                  _integralAccelz
                    0x0d3c                  _cmErrorEarth
                    0x0d42                  _velErrorEarth
                    0x0d48                  _integrate_clock
                    0x0d4a                  _events
                    0x0daa                  _rmc_counter
                    0x0dac                  _gga_counter
                    0x0dae                  _id1
                    0x0daf                  _id2
                    0x0db0                  _XOR
                    0x0db2                  _digit
                    0x0db4                  _degrees
                    0x0db8                  _minutes
                    0x0dbc                  _lat_gps_
                    0x0dc0                  _long_gps_
                    0x0dc4                  _alt_sl_gps_
                    0x0dc8                  _tow_
                    0x0dcc                  _last_alt
                    0x0dd0                  _date_gps_
                    0x0dd4                  _time_gps_
                    0x0dd8                  _nav_valid_
                    0x0dda                  _nav_type_
                    0x0ddc                  _sog_gps_
                    0x0dde                  _cog_gps_
                    0x0de0                  _climb_gps_
                    0x0de2                  _week_no_
                    0x0de4                  _data_valid_
                    0x0de5                  _NS_
                    0x0de6                  _EW_
                    0x0de7                  _svs_
                    0x0de8                  _day_of_week
                    0x0de9                  _hdop_
                    0x0dee                  _GPSlocation
                    0x0df4                  _GPSvelocity
                    0x0dfa                  _GPSloc_cm
                    0x0e00                  _cos_lat
                    0x0e02                  _gps_out_buffer
                    0x0e04                  _gps_out_buffer_length
                    0x0e06                  _gps_out_index
                    0x0e08                  _cog_previous
                    0x0e0a                  _ground_velocity_magnitudeXY
                    0x0e0c                  _sog_previous
                    0x0e0e                  _climb_rate_previous
                    0x0e10                  _forward_acceleration
                    0x0e12                  _velocity_previous
                    0x0e14                  _air_speed_magnitudeXY
                    0x0e16                  _air_speed_3DGPS
                    0x0e18                  _location_previous
                    0x0e1e                  _udb_pwIn
                    0x0e2c                  _udb_pwTrim
                    0x0e3a                  _rise_ppm
                    0x0e3c                  _wp_inject
                    0x0e52                  _udb_pwOut
                    0x0e64                  _outputNum
                    0x0e68                  _groundVelocityHistory
                    0x0e6e                  _fuselageDirectionHistory
                    0x0e74                  _estimatedWind
                    0x0e7a                  _cpu_timer
                    0x0e7c                  __cpu_timer
                    0x0e7e                  _idle_timer
                    0x0e82                  _uptime
                    0x0e86                  _udb_heartbeat_counter
                    0x0e88                  _loopCounter
                    0x0e8c                  _rawMagCalib
                    0x0e92                  _magGain
                    0x0e98                  _udb_magOffset
                    0x0e9e                  _cam_pitch_servo_pwm_delta
                    0x0ea0                  _cam_yaw_servo_pwm_delta
                    0x0ea2                  _view_location
                    0x0ea8                  _camera_view
                    0x0eae                  _goal
                    0x0ebe                  _mpu_data
                    0x0ecc                  _throttleFiltered
                    0x0ed0                  _pitchAltitudeAdjust
                    0x0ed2                  _filterManual
                    0x0ed4                  _speed_height
                    0x0ed8                  _didCalibrate
                    0x0ed9                  _callSendTelemetry
                    0x0eda                  _flight_mode
                    0x0edc                  _gainadj_mode
                    0x0ede                  _udb_throttle_enable
                    0x0edf                  _throttleUp
                    0x0ee0                  _writeGains
                    0x0ee2                  _tailFlash
                    0x0ee4                  _togoal
                    0x0ee8                  _tofinish_line
                    0x0eea                  _progress_to_goal
                    0x0eec                  _desired_dir
                    0x0eee                  _udb_flags
                    0x0ef0                  _primary_voltage
                    0x0ef4                  _lowVoltageWarning
                    0x0ef6                  _waggle
                    0x0ef8                  _calib_timer
                    0x0efa                  _standby_timer
                    0x0efc                  _stateS
                    0x0efe                  _waypointIndex
                    0x0f00                  _currentWaypointSet
                    0x0f02                  _numPointsInCurrentSet
                    0x0f04                  _wp_inject_pos
                    0x0f06                  _RMCpos
                    0x0f08                  _GGApos
                    0x0f0a                  _msg_parse
                    0x0f0c                  _cyclesUntilStartTriggerAction
                    0x0f0e                  _cyclesUntilStopTriggerAction
                    0x0f10                  _currentTriggerActionValue
                    0x0f12                  _pitchrate
                    0x0f14                  _navElevMix
                    0x0f16                  _elevInput
                    0x0f18                  _wind_gain
                    0x0f24                  _sendGains
                    0x0f25                  _sendGPS
                    0x0f26                  _hasWrittenHeader
                    0x0f28                  _header_line
                    0x0f2e                  _defaultCorcon
                    0x0f30                  _isr_nest_level
                    0x0f32                  _trap_source
                    0x0f36                  _failSafePulses
                    0x0f38                  _ppm_ch
                    0x0f3a                  _current_orientation
                    0x0f3c                  _desired_behavior
                    0x0f3e                  _dcm_flags
                    0x0f40                  _event_init_done
                    0x0f42                  _trap_flags
                    0x0f44                  _osc_fail_count
                    0x0f46                  _mpuCnt
                    0x0f48                  _flags
                    0x0f4c                  _desiredHeight
                    0x0f4e                  _telem_on
                    0x0f50                  _pauseSerial
                    0x0f52                  _sampcount
                    0x0f54                  _ring_buffer
                    0x25fe                  __Stdin
                    0x2626                  __Stdout
                    0x264e                  __Stderr
                    0x2676                  __Files
                    0x271a                  __Aldata
                    0x271e                  __Size_block
                    0x2724                  ___curbrk
                    0x2726                  ___C30_UART

External Symbols in Data Memory (by name):

                    0x0de6                  _EW_
                    0x0f08                  _GGApos
                    0x0aa2                  _GPS_acceleration
                    0x0b48                  _GPS_velocity_previous
                    0x0dfa                  _GPSloc_cm
                    0x0dee                  _GPSlocation
                    0x0df4                  _GPSvelocity
                    0x0d18                  _IMUcmx
                    0x0d1c                  _IMUcmy
                    0x0d20                  _IMUcmz
                    0x0cfc                  _IMUintegralAccelerationx
                    0x0d00                  _IMUintegralAccelerationy
                    0x0d04                  _IMUintegralAccelerationz
                    0x0cf0                  _IMUlocationx
                    0x0cf4                  _IMUlocationy
                    0x0cf8                  _IMUlocationz
                    0x0ce4                  _IMUvelocityx
                    0x0ce8                  _IMUvelocityy
                    0x0cec                  _IMUvelocityz
                    0x0d24                  _IMUvx
                    0x0d28                  _IMUvy
                    0x0d2c                  _IMUvz
                    0x0de5                  _NS_
                    0x0f06                  _RMCpos
                    0x0c40                  _Rc
                    0x0c52                  _Rd
                    0x09c8                  _Rtmp
                    0x09da                  _Rtrans
                    0x0c0a                  _Rx
                    0x0c1c                  _Ry
                    0x0c2e                  _Rz
                    0x0db0                  _XOR
                    0x271a                  __Aldata
                    0x2676                  __Files
                    0x271e                  __Size_block
                    0x264e                  __Stderr
                    0x25fe                  __Stdin
                    0x2626                  __Stdout
                    0x2726                  ___C30_UART
                    0x2724                  ___curbrk
                    0x0e7c                  __cpu_timer
                    0x0afe                  _accelEarth
                    0x0952                  _accel_feedback
                    0x0a9c                  _accelerometer_earth
                    0x0b3c                  _accelerometer_earth_integral
                    0x0aa8                  _accelerometer_reference
                    0x0b4e                  _accelerometer_samples
                    0x0932                  _acro_kp
                    0x0be0                  _actual_dir
                    0x09c2                  _adv_RPY
                    0x0e16                  _air_speed_3DGPS
                    0x0d08                  _air_speed_3DIMU
                    0x0e14                  _air_speed_magnitudeXY
                    0x0bd8                  _alt_origin
                    0x0bbc                  _alt_sl_gps
                    0x0dc4                  _alt_sl_gps_
                    0x09f2                  _angle_error
                    0x0bcc                  _as_sim
                    0x0b5a                  _boxCarBuff
                    0x0b96                  _boxCarSum
                    0x0be1                  _calculated_heading
                    0x0ef8                  _calib_timer
                    0x0ed9                  _callSendTelemetry
                    0x0e9e                  _cam_pitch_servo_pwm_delta
                    0x0ea0                  _cam_yaw_servo_pwm_delta
                    0x0ea8                  _camera_view
                    0x0bc8                  _climb_gps
                    0x0de0                  _climb_gps_
                    0x0e0e                  _climb_rate_previous
                    0x0d3c                  _cmErrorEarth
                    0x09b6                  _cmd_RPY
                    0x0bc6                  _cog_gps
                    0x0dde                  _cog_gps_
                    0x0e08                  _cog_previous
                    0x0e00                  _cos_lat
                    0x0e7a                  _cpu_timer
                    0x0f10                  _currentTriggerActionValue
                    0x0f00                  _currentWaypointSet
                    0x0be2                  _current_flight_mode
                    0x0f3a                  _current_orientation
                    0x0f0c                  _cyclesUntilStartTriggerAction
                    0x0f0e                  _cyclesUntilStopTriggerAction
                    0x0de4                  _data_valid_
                    0x0dd0                  _date_gps_
                    0x0de8                  _day_of_week
                    0x0f3e                  _dcm_flags
                    0x0ce2                  _dead_reckon_clock
                    0x0800                  _debug_buffer
                    0x0f2e                  _defaultCorcon
                    0x0db4                  _degrees
                    0x0f4c                  _desiredHeight
                    0x0f3c                  _desired_behavior
                    0x0eec                  _desired_dir
                    0x0be6                  _desired_heading
                    0x0ed8                  _didCalibrate
                    0x0db2                  _digit
                    0x0b1c                  _dirovergndHGPS
                    0x0b22                  _dirovergndHRmat
                    0x0950                  _earth_yaw
                    0x0f16                  _elevInput
                    0x0b3a                  _error
                    0x0b28                  _errorRP
                    0x0aae                  _errorRP_earth
                    0x0b2e                  _errorYawground
                    0x0b34                  _errorYawplane
                    0x0e74                  _estimatedWind
                    0x0f40                  _event_init_done
                    0x0d4a                  _events
                    0x0f36                  _failSafePulses
                    0x0ed2                  _filterManual
                    0x0b50                  _filterState
                    0x0f48                  _flags
                    0x0eda                  _flight_mode
                    0x0e10                  _forward_acceleration
                    0x0e6e                  _fuselageDirectionHistory
                    0x0edc                  _gainadj_mode
                    0x0dac                  _gga_counter
                    0x0ab4                  _ggain
                    0x0eae                  _goal
                    0x0b16                  _gplane
                    0x0a90                  _gplaneFilt
                    0x0bde                  _gps_data_age
                    0x0e02                  _gps_out_buffer
                    0x0e04                  _gps_out_buffer_length
                    0x0e06                  _gps_out_index
                    0x0e68                  _groundVelocityHistory
                    0x0e0a                  _ground_velocity_magnitudeXY
                    0x0b04                  _gyroCorrectionIntegral
                    0x0f26                  _hasWrittenHeader
                    0x0bce                  _hdop
                    0x0de9                  _hdop_
                    0x0f28                  _header_line
                    0x0dae                  _id1
                    0x0daf                  _id2
                    0x0e7e                  _idle_timer
                    0x0d30                  _integralAccelx
                    0x0d34                  _integralAccely
                    0x0d38                  _integralAccelz
                    0x0d48                  _integrate_clock
                    0x0f30                  _isr_nest_level
                    0x0946                  _lagBC
                    0x0dcc                  _last_alt
                    0x0bdd                  _lat_cir
                    0x0bb4                  _lat_gps
                    0x0dbc                  _lat_gps_
                    0x0bd0                  _lat_origin
                    0x0bae                  _loc_cm_avg
                    0x0ba2                  _loc_cm_sum
                    0x0d0c                  _locationErrorEarth
                    0x0e18                  _location_previous
                    0x09f8                  _long_accum
                    0x0bb8                  _long_gps
                    0x0dc0                  _long_gps_
                    0x0bd4                  _long_origin
                    0x0e88                  _loopCounter
                    0x0ef4                  _lowVoltageWarning
                    0x0e92                  _magGain
                    0x094c                  _matrix_accum
                    0x0db8                  _minutes
                    0x0c68                  _motorMap
                    0x0be4                  _motorsArmed
                    0x0f46                  _mpuCnt
                    0x0ebe                  _mpu_data
                    0x0f0a                  _msg_parse
                    0x0f14                  _navElevMix
                    0x0dda                  _nav_type_
                    0x0dd8                  _nav_valid_
                    0x0f02                  _numPointsInCurrentSet
                    0x0aec                  _omega
                    0x0b10                  _omegaAccum
                    0x0af8                  _omegacorrI
                    0x0af2                  _omegacorrP
                    0x0ae6                  _omegagyro
                    0x0f44                  _osc_fail_count
                    0x0e64                  _outputNum
                    0x0f50                  _pauseSerial
                    0x0904                  _pid_gains
                    0x0ed0                  _pitchAltitudeAdjust
                    0x093e                  _pitch_control
                    0x0960                  _pitch_error
                    0x0bf6                  _pitch_error_integral
                    0x0928                  _pitch_kd
                    0x0926                  _pitch_kp
                    0x094a                  _pitch_step
                    0x0944                  _pitchadvanced
                    0x0f12                  _pitchrate
                    0x0c66                  _pomegagyro
                    0x099e                  _pos_delta
                    0x09b0                  _pos_derr
                    0x0986                  _pos_error
                    0x09aa                  _pos_perr
                    0x0992                  _pos_prev
                    0x098c                  _pos_setpoint
                    0x0984                  _poscmd_east
                    0x0982                  _poscmd_north
                    0x0f38                  _ppm_ch
                    0x0c02                  _prate_error_integral
                    0x0930                  _prate_kd
                    0x092e                  _prate_kp
                    0x0947                  _precessBC
                    0x09bc                  _prev_RPY
                    0x0cb6                  _primaryV
                    0x0ef0                  _primary_voltage
                    0x0c64                  _prmat
                    0x0eea                  _progress_to_goal
                    0x0954                  _pwManual
                    0x097c                  _rate_des_damping
                    0x0976                  _rate_desired
                    0x096a                  _rate_desired_delta
                    0x0970                  _rate_desired_prev
                    0x0964                  _rate_error
                    0x0bec                  _rate_error_dot
                    0x0be8                  _rate_error_prev
                    0x0934                  _rate_ki
                    0x09ec                  _rate_setp
                    0x0e8c                  _rawMagCalib
                    0x0f54                  _ring_buffer
                    0x0e3a                  _rise_ppm
                    0x0ac2                  _rmat
                    0x0ad4                  _rmatDelayCompensated
                    0x09fe                  _rmatDelayTime
                    0x0daa                  _rmc_counter
                    0x093c                  _roll_control
                    0x095e                  _roll_error
                    0x0bf2                  _roll_error_integral
                    0x0924                  _roll_kd
                    0x0922                  _roll_kp
                    0x0942                  _rolladvanced
                    0x0bfe                  _rrate_error_integral
                    0x092c                  _rrate_kd
                    0x092a                  _rrate_kp
                    0x0f52                  _sampcount
                    0x0f25                  _sendGPS
                    0x0f24                  _sendGains
                    0x0bc4                  _sog_gps
                    0x0ddc                  _sog_gps_
                    0x0e0c                  _sog_previous
                    0x0ed4                  _speed_height
                    0x0abc                  _spin_axis
                    0x0aba                  _spin_rate
                    0x0efa                  _standby_timer
                    0x0efc                  _stateS
                    0x0bdc                  _svs
                    0x0de7                  _svs_
                    0x0ee2                  _tailFlash
                    0x0f4e                  _telem_on
                    0x0a96                  _theta
                    0x0ecc                  _throttleFiltered
                    0x0edf                  _throttleUp
                    0x0940                  _throttle_control
                    0x0c6e                  _throttle_limit
                    0x0920                  _tilt_ki
                    0x0dd4                  _time_gps_
                    0x0ee8                  _tofinish_line
                    0x0ee4                  _togoal
                    0x0d0a                  _total_energy
                    0x0bc0                  _tow
                    0x0dc8                  _tow_
                    0x0f42                  _trap_flags
                    0x0f32                  _trap_source
                    0x0eee                  _udb_flags
                    0x0e86                  _udb_heartbeat_counter
                    0x0e98                  _udb_magOffset
                    0x0e1e                  _udb_pwIn
                    0x0e52                  _udb_pwOut
                    0x0e2c                  _udb_pwTrim
                    0x0ede                  _udb_throttle_enable
                    0x0cac                  _udb_vref
                    0x0c70                  _udb_xaccel
                    0x0c8e                  _udb_xrate
                    0x0c7a                  _udb_yaccel
                    0x0c98                  _udb_yrate
                    0x0c84                  _udb_zaccel
                    0x0ca2                  _udb_zrate
                    0x0e82                  _uptime
                    0x0d42                  _velErrorEarth
                    0x0d12                  _velocityErrorEarth
                    0x0e12                  _velocity_previous
                    0x0ea2                  _view_location
                    0x0cc0                  _vref_adj
                    0x0ef6                  _waggle
                    0x0efe                  _waypointIndex
                    0x0bca                  _week_no
                    0x0de2                  _week_no_
                    0x0f18                  _wind_gain
                    0x0e3c                  _wp_inject
                    0x0f04                  _wp_inject_pos
                    0x0ee0                  _writeGains
                    0x0948                  _yaw_control
                    0x0962                  _yaw_error
                    0x0bfa                  _yaw_error_integral
                    0x0bf0                  _yaw_error_previous
                    0x093a                  _yaw_kd
                    0x0936                  _yaw_ki
                    0x0938                  _yaw_kp
                    0x0c06                  _yrate_error_integral

External Symbols in Program Memory (by address):

                  0x000200                  __resetPRI
                  0x000222                  __psv_init
                  0x000232                  __data_init_standard
                  0x000232                  __data_init
                  0x00030c                  printf_cdnopuxX.XXeo:_prout
                  0x000328                  __printf_cdnopuxX
                  0x000338                  snprintf_cdfFnopuxX.XXeo:_prout
                  0x00035a                  __snprintf_cdfFnopuxX
                  0x00037e                  ___Printf_cdfFnopuxX
                  0x00037e                  ___Printf_cdnopuxX
                  0x0004ec                  ___Putfld_cdfFnopuxX
                  0x0004ec                  ___Putfld_cdnopuxX
                  0x0007a6                  ___Ldtob_cdfFnopuxX
                  0x000a1a                  ___Genld_cdfFnopuxX
                  0x000c22                  _VectorScale
                  0x000c3e                  _VectorAdd
                  0x000c5c                  _VectorMultiply
                  0x000c78                  _VectorDotProduct
                  0x000c92                  _VectorPower
                  0x000caa                  _MatrixAdd
                  0x000cca                  _MatrixMultiply
                  0x000d10                  _CloseSPI1
                  0x000d18                  _ConfigIntSPI1
                  0x000d3a                  _OpenSPI1
                  0x000d42                  ___divsf3
                  0x000dc6                  ___divsi3
                  0x000de4                  ___gtsf2
                  0x000de4                  ___gesf2
                  0x000de8                  ___fixsfsi
                  0x000e2a                  ___floatsisf
                  0x000e30                  ___floatunsisf
                  0x000e34                  __fpack
                  0x000e80                  __funpack
                  0x000eaa                  __funpack2
                  0x000eba                  __fPropagateNaN
                  0x000ecc                  __fbopExit
                  0x000ed4                  __fbopReturnNaN
                  0x000eda                  ___modsi3
                  0x000ef8                  ___mulsf3
                  0x000f60                  ___udivsi3
                  0x000f80                  ___umodsi3
                  0x000f86                  __fcompare
                  0x000fbc                  ___floatdisf
                  0x000fdc                  ___floatundisf
                  0x00103a                  _memcpy
                  0x001048                  _strlen
                  0x001058                  _div
                  0x00106e                  _fwrite
                  0x001116                  _ldiv
                  0x001140                  _memchr
                  0x001152                  _strchr
                  0x001164                  __Fwprep
                  0x0011f2                  __LDunscale
                  0x001246                  __Litob
                  0x0014d2                  __Puttxt
                  0x00164a                  __Vacopy
                  0x001652                  __Closreg
                  0x001666                  _fclose
                  0x0016ee                  fclose.XXelo:_closeall
                  0x001706                  __DNKfflush
                  0x001784                  __Atexit
                  0x0017a0                  __Dnorm
                  0x00183a                  _free
                  0x001902                  _malloc
                  0x001956                  __Getmem
                  0x001a3c                  ___ltdf2
                  0x001a3c                  ___ledf2
                  0x001a3c                  ___eqdf2
                  0x001a46                  ___gedf2
                  0x001a46                  ___gtdf2
                  0x001a50                  ___divdf3
                  0x001b04                  __dpack
                  0x001b5c                  __dunpack2
                  0x001b7e                  __dreturnNaN
                  0x001b84                  __dunpack2exit
                  0x001b8e                  ___extendsfdf2
                  0x001bcc                  ___fixdfsi
                  0x001c24                  ___floatsidf
                  0x001c2a                  ___muldf3
                  0x001d14                  ___subdf3
                  0x001d18                  ___mulp32peds3
                  0x001d18                  ___mulsi3
                  0x001d18                  ___mulp32eds3
                  0x001d7c                  ___udivmoddi3
                  0x001e40                  ___udivdi3
                  0x001e4e                  ___umoddi3
                  0x001e56                  ___divdi3
                  0x001ebc                  ___moddi3
                  0x001f18                  ___adddf3
                  0x002012                  __dcompare
                  0x002064                  __dPropagateNaN
                  0x002080                  __dtype
                  0x0020a4                  __dunpack
                  0x0020f2                  ___floatdidf
                  0x002112                  ___floatundidf
                  0x002382                  _sintab
                  0x002404                  _days_in_month
                  0x002410                  _set_FIX_1Hz
                  0x002423                  _set_DEFAULT
                  0x002458                  _waypoints
                  0x00246e                  _rtlWaypoints
                  0x002484                  _wp_inject_byte_order
                  0x0024ce                  _pitch_servo_high_ratio
                  0x0024d0                  _yaw_servo_high_ratio
                  0x0024d2                  _tan_pitch_in_stabilized_mode
                  0x0024d4                  _pitch_offset_centred_pwm
                  0x0024d6                  _yaw_offset_centred_pwm
                  0x0024d8                  _pitch_servo_pwm_max
                  0x0024da                  _pitch_servo_pwm_min
                  0x0024dc                  _yaw_servo_pwm_max
                  0x0024de                  _yaw_servo_pwm_min
                  0x0024e0                  _pitchgain
                  0x0024e2                  _pitchkd
                  0x0024e4                  _hoverpitchgain
                  0x0024e6                  _hoverpitchkd
                  0x0024e8                  _rudderElevMixGain
                  0x0024ea                  _rollElevMixGain
                  0x0024ec                  _motor_cos
                  0x0024f2                  _motor_sin
                  0x0024f8                  _yawkdail
                  0x0024fa                  _rollkp
                  0x0024fc                  _rollkd
                  0x0024fe                  _hoverrollkp
                  0x002500                  _hoverrollkd
                  0x002502                  _yawkdrud
                  0x002504                  _rollkprud
                  0x002506                  _rollkdrud
                  0x002508                  _hoveryawkp
                  0x00250a                  _hoveryawkd
                  0x00250c                  _aileronbgain
                  0x00250e                  _elevatorbgain
                  0x002510                  _rudderbgain
                  0x002512                  _boxCarN
                  0x002514                  _boxCarLen
                  0x002516                  _yawkpail
                  0x002518                  _yawkprud
                  0x00251a                  _gps_nav_valid
                  0x002530                  _gps_startup_sequence
                  0x002566                  _dollar
                  0x002586                  _gps_G
                  0x0025a6                  _gps_P
                  0x0025c6                  _gps_id1
                  0x0025dc                  _gps_id2
                  0x0025f2                  _gps_id3
                  0x002658                  _gps_comma
                  0x002730                  _gps_rmc1
                  0x00277e                  _gps_rmc2
                  0x0027ba                  _gps_rmc3
                  0x0028d2                  _gps_rmc4
                  0x002928                  _gps_rmc5
                  0x002a42                  _gps_rmc6
                  0x002a88                  _gps_rmc7
                  0x002aca                  _gps_rmc8
                  0x002b08                  _gps_rmc9
                  0x002b52                  _gps_gga7
                  0x002b82                  _gps_gga8
                  0x002bcc                  _gps_gga9
                  0x002c34                  _gps_checksum
                  0x002ca2                  _calculate_week_num
                  0x002dac                  _calculate_time_of_week
                  0x002e92                  _commit_gps_data
                  0x002ee2                  _rotateRP
                  0x002f0c                  _rotate2D
                  0x002f38                  _deadBandRP
                  0x002fb2                  _deadBand
                  0x002ff4                  _magClamp
                  0x003024                  _magClampRP
                  0x00307a                  _magClampRPY
                  0x0030f6                  _magClamp32
                  0x003138                  _transposeR
                  0x0031a8                  _motorOut
                  0x003232                  _x_rotate
                  0x00323a                  _updateYaw
                  0x003262                  _get_rateMode_commands
                  0x0032bc                  _get_angleMode_commands
                  0x003300                  _motorCntrl
                  0x003700                  _dcm_init_rmat
                  0x003714                  _VectorCross
                  0x0037c4                  _read_gyros
                  0x00385a                  _read_accel
                  0x0038b6                  _omegaSOG
                  0x003904                  _rupdate
                  0x0039ec                  _normalize
                  0x003afc                  _roll_pitch_drift
                  0x003b9e                  _yaw_drift
                  0x003bde                  _PI_feedback
                  0x003caa                  _adjust_gyro_gain
                  0x003cd4                  _calibrate_gyros
                  0x003d5c                  _dcm_run_imu_step
                  0x003d74                  _ring_get
                  0x003da8                  _ring_put
                  0x003ddc                  _ring_putn
                  0x003eac                  _ring_available
                  0x003ef6                  _ring_space
                  0x003f4a                  _queue_data
                  0x003f66                  _queue_string
                  0x003f7a                  _queue_prepend
                  0x003f98                  _fmtGains
                  0x0040f4                  _send_telemetry
                  0x004106                  _do_send_telemetry
                  0x0042f0                  _udb_serial_callback_get_binary_to_send
                  0x00430a                  _udb_serial_callback_received_byte
                  0x004332                  _sine
                  0x00438e                  _arcsine
                  0x00442e                  _cosine
                  0x00443c                  _rotate
                  0x0044a6                  _rect_to_polar
                  0x00455a                  _rect_to_polar16
                  0x004634                  _sqrt_int
                  0x00469e                  _sqrt_long
                  0x004740                  _vector2_mag
                  0x004760                  _vector3_mag
                  0x00478c                  _vector2_normalize
                  0x0047ee                  _vector3_normalize
                  0x004878                  _dead_reckon
                  0x004af6                  _integrate_loc_cm
                  0x004cf0                  _setup_origin
                  0x004d32                  _dcm_callback_gps_location_updated
                  0x004d46                  _set_goal
                  0x004d94                  _update_goal_alt
                  0x004da0                  _process_flightplan
                  0x004dc2                  _compute_bearing_to_goal
                  0x004fea                  _wind_gain_adjustment
                  0x004ff2                  _determine_navigation_deflection
                  0x0050d6                  _wp_to_relative
                  0x005160                  _init_flightplan
                  0x0051be                  _use_fixed_origin
                  0x0051c6                  _get_fixed_origin
                  0x005228                  _next_waypoint
                  0x005330                  _run_flightplan
                  0x00543c                  _flightplan_live_begin
                  0x005446                  _flightplan_live_received_byte
                  0x005476                  _flightplan_live_commit
                  0x005842                  _excess_energy_height
                  0x00584a                  _altitudeCntrl
                  0x005864                  _set_throttle_control
                  0x0058b8                  _setTargetAltitude
                  0x0058c4                  _normalAltitudeCntrl
                  0x005b3c                  _manualThrottle
                  0x005b80                  _hoverAltitudeCntrl
                  0x005bd4                  _init_states
                  0x005bec                  _udb_background_callback_periodic
                  0x005c7c                  _ent_calibrateS
                  0x005c98                  _ent_acquiringS
                  0x005cc0                  _ent_manualS
                  0x005cd8                  _ent_stabilizedS
                  0x005cf0                  _ent_waypointS
                  0x005d0e                  _ent_returnS
                  0x005d2c                  _udb_callback_radio_did_turn_off
                  0x005d40                  _startS
                  0x005d48                  _calibrateS
                  0x005d86                  _acquiringS
                  0x005dec                  _manualS
                  0x005e30                  _stabilizedS
                  0x005e70                  _waypointS
                  0x005eb6                  _returnS
                  0x005ef4                  _gpsoutbin
                  0x005f12                  _gpsoutline
                  0x005f2a                  _udb_gps_callback_get_byte_to_send
                  0x005f56                  _udb_gps_callback_received_byte
                  0x005f64                  _udb_background_callback_triggered
                  0x0061e8                  _udb_init_GPS
                  0x006248                  _udb_gps_set_rate
                  0x00626a                  _udb_gps_check_rate
                  0x006294                  _udb_gps_start_sending_data
                  0x00629c                  __U1TXInterrupt
                  0x0062f0                  __U1RXInterrupt
                  0x006346                  _udb_init_USART
                  0x0063a8                  _udb_serial_set_rate
                  0x0063ca                  _udb_serial_check_rate
                  0x0063f4                  _udb_serial_start_sending_data
                  0x0063fc                  __U2TXInterrupt
                  0x006450                  __U2RXInterrupt
                  0x0064a6                  _udb_eeprom_init
                  0x0064c2                  _bstart
                  0x0064d4                  _bstop
                  0x0064e6                  _byte_out
                  0x00651a                  _poll_set
                  0x006542                  _poll_clr
                  0x00656a                  _byte_in
                  0x0065b6                  _ACK_Poll
                  0x0065d0                  _eeprom_ByteWrite
                  0x006612                  _eeprom_PageWrite
                  0x006680                  _eeprom_ByteRead
                  0x0066d0                  _eeprom_SequentialRead
                  0x00673a                  _udb_init_clock
                  0x0067e4                  __T1Interrupt
                  0x0068a0                  _udb_background_trigger
                  0x0068a8                  __T7Interrupt
                  0x0068ec                  _udb_cpu_load
                  0x0068fe                  __T5Interrupt
                  0x006938                  __T6Interrupt
                  0x0069bc                  _register_event
                  0x0069ca                  _register_event_p
                  0x006a16                  _trigger_event
                  0x006a6c                  _init_events
                  0x006acc                  __C2Interrupt
                  0x006b50                  __C1Interrupt
                  0x006c3e                  _storeGains
                  0x006c8c                  _debugHack
                  0x006c9c                  _main
                  0x006cf6                  _check_failsafe
                  0x006d0e                  _check_flight_mode
                  0x006d40                  _run_background_task
                  0x006de4                  _pitchCntrl
                  0x006e00                  _normalPitchCntrl
                  0x006f0e                  _hoverPitchCntrl
                  0x006fee                  _udb_init_gyros
                  0x006ffc                  _udb_init_accelerometer
                  0x00700c                  _udb_init_ADC
                  0x007090                  __ADC2Interrupt
                  0x007190                  _scale_pwm_out
                  0x0071b6                  _udb_init_pwm
                  0x00726a                  _udb_set_dc
                  0x0072a4                  _udb_set_action_state
                  0x0072c0                  __T3Interrupt
                  0x007302                  _servoMix
                  0x0073ce                  _cameraServoMix
                  0x00746e                  _init_behavior
                  0x007480                  _setBehavior
                  0x0074a6                  _canStabilizeInverted
                  0x0074ae                  _canStabilizeHover
                  0x0074b6                  _updateBehavior
                  0x007578                  _updateTriggerAction
                  0x0075c4                  _triggerActionSetValue
                  0x0075d0                  _initSPI1_master16
                  0x007602                  _writeSPI1reg16
                  0x007646                  _readSPI1reg16
                  0x007684                  _readSPI1_burst16n
                  0x00772e                  _init_boxCarState
                  0x00779e                  _boxcar
                  0x00787a                  _dcm_init
                  0x00788a                  _dcm_run_init_step
                  0x0078b8                  _udb_callback_read_sensors
                  0x0078c6                  _udb_servo_callback_prepare_outputs
                  0x0078ea                  _dcm_calibrate
                  0x0078fe                  _dcm_set_origin_location
                  0x00793c                  _dcm_absolute_to_relative
                  0x0079a6                  _udb_init_capture
                  0x007a06                  _conv_pwIn
                  0x007a18                  __IC1Interrupt
                  0x007acc                  _yawCntrl
                  0x007ae6                  _normalYawCntrl
                  0x007b94                  _hoverYawCntrl
                  0x007bf2                  _udb_init
                  0x007c4e                  _udb_run
                  0x007c56                  _udb_init_leds
                  0x007c6c                  _udb_a2d_record_offsets
                  0x007c8e                  _udb_servo_record_trims
                  0x007cb6                  _udb_servo_pulsesat
                  0x007ce4                  _calculate_analog_sensor_values
                  0x007d0e                  _udb_get_reset_flags
                  0x007d16                  _MPU6000_init16
                  0x007d9c                  _MPU6000_read
                  0x007db2                  __INT1Interrupt
                  0x007df4                  _MPU6000_print
                  0x007e24                  _rollCntrl
                  0x007e3e                  _normalRollCntrl
                  0x007ed8                  _hoverRollCntrl
                  0x007f28                  _flight_mode_switch_manual
                  0x007f36                  _flight_mode_switch_auto
                  0x007f44                  _flight_mode_switch_home
                  0x007f52                  _flight_mode_switch_2pos_poll
                  0x007f58                  _flight_mode_switch_check_set
                  0x007fe4                  _cam_pitchServoLimit
                  0x00800e                  _cam_yawServoLimit
                  0x008038                  _set_camera_view
                  0x008050                  _compute_camera_view
                  0x00806e                  _cameraCntrl
                  0x008074                  _dcm_enable_yaw_drift_correction
                  0x008096                  _estYawDrift
                  0x0080f0                  _dcm_servo_callback_prepare_outputs
                  0x00813c                  _get_geo_heading_angle
                  0x00817e                  __MathError
                  0x008182                  __StackError
                  0x008186                  __AddressError
                  0x00818a                  __OscillatorFail
                  0x008190                  __DMACError
                  0x008194                  __DefaultInterrupt
                  0x0081a4                  ___delay32
                  0x0081c0                  _estimateWind
                  0xf80004                  __FGS.sec

External Symbols in Program Memory (by name):

                  0x0065b6                  _ACK_Poll
                  0x000d10                  _CloseSPI1
                  0x000d18                  _ConfigIntSPI1
                  0x007d16                  _MPU6000_init16
                  0x007df4                  _MPU6000_print
                  0x007d9c                  _MPU6000_read
                  0x000caa                  _MatrixAdd
                  0x000cca                  _MatrixMultiply
                  0x000d3a                  _OpenSPI1
                  0x003bde                  _PI_feedback
                  0x000c3e                  _VectorAdd
                  0x003714                  _VectorCross
                  0x000c78                  _VectorDotProduct
                  0x000c5c                  _VectorMultiply
                  0x000c92                  _VectorPower
                  0x000c22                  _VectorScale
                  0x007090                  __ADC2Interrupt
                  0x008186                  __AddressError
                  0x001784                  __Atexit
                  0x006b50                  __C1Interrupt
                  0x006acc                  __C2Interrupt
                  0x001652                  __Closreg
                  0x008190                  __DMACError
                  0x001706                  __DNKfflush
                  0x008194                  __DefaultInterrupt
                  0x0017a0                  __Dnorm
                  0xf80004                  __FGS.sec
                  0x001164                  __Fwprep
                  0x001956                  __Getmem
                  0x007a18                  __IC1Interrupt
                  0x007db2                  __INT1Interrupt
                  0x0011f2                  __LDunscale
                  0x001246                  __Litob
                  0x00817e                  __MathError
                  0x00818a                  __OscillatorFail
                  0x0014d2                  __Puttxt
                  0x008182                  __StackError
                  0x0067e4                  __T1Interrupt
                  0x0072c0                  __T3Interrupt
                  0x0068fe                  __T5Interrupt
                  0x006938                  __T6Interrupt
                  0x0068a8                  __T7Interrupt
                  0x0062f0                  __U1RXInterrupt
                  0x00629c                  __U1TXInterrupt
                  0x006450                  __U2RXInterrupt
                  0x0063fc                  __U2TXInterrupt
                  0x00164a                  __Vacopy
                  0x000a1a                  ___Genld_cdfFnopuxX
                  0x0007a6                  ___Ldtob_cdfFnopuxX
                  0x00037e                  ___Printf_cdfFnopuxX
                  0x00037e                  ___Printf_cdnopuxX
                  0x0004ec                  ___Putfld_cdfFnopuxX
                  0x0004ec                  ___Putfld_cdnopuxX
                  0x001f18                  ___adddf3
                  0x0081a4                  ___delay32
                  0x001a50                  ___divdf3
                  0x001e56                  ___divdi3
                  0x000d42                  ___divsf3
                  0x000dc6                  ___divsi3
                  0x001a3c                  ___eqdf2
                  0x001b8e                  ___extendsfdf2
                  0x001bcc                  ___fixdfsi
                  0x000de8                  ___fixsfsi
                  0x0020f2                  ___floatdidf
                  0x000fbc                  ___floatdisf
                  0x001c24                  ___floatsidf
                  0x000e2a                  ___floatsisf
                  0x002112                  ___floatundidf
                  0x000fdc                  ___floatundisf
                  0x000e30                  ___floatunsisf
                  0x001a46                  ___gedf2
                  0x000de4                  ___gesf2
                  0x001a46                  ___gtdf2
                  0x000de4                  ___gtsf2
                  0x001a3c                  ___ledf2
                  0x001a3c                  ___ltdf2
                  0x001ebc                  ___moddi3
                  0x000eda                  ___modsi3
                  0x001c2a                  ___muldf3
                  0x001d18                  ___mulp32eds3
                  0x001d18                  ___mulp32peds3
                  0x000ef8                  ___mulsf3
                  0x001d18                  ___mulsi3
                  0x001d14                  ___subdf3
                  0x001e40                  ___udivdi3
                  0x001d7c                  ___udivmoddi3
                  0x000f60                  ___udivsi3
                  0x001e4e                  ___umoddi3
                  0x000f80                  ___umodsi3
                  0x002064                  __dPropagateNaN
                  0x000232                  __data_init
                  0x000232                  __data_init_standard
                  0x002012                  __dcompare
                  0x001b04                  __dpack
                  0x001b7e                  __dreturnNaN
                  0x002080                  __dtype
                  0x0020a4                  __dunpack
                  0x001b5c                  __dunpack2
                  0x001b84                  __dunpack2exit
                  0x000eba                  __fPropagateNaN
                  0x000ecc                  __fbopExit
                  0x000ed4                  __fbopReturnNaN
                  0x000f86                  __fcompare
                  0x000e34                  __fpack
                  0x000e80                  __funpack
                  0x000eaa                  __funpack2
                  0x000328                  __printf_cdnopuxX
                  0x000222                  __psv_init
                  0x000200                  __resetPRI
                  0x00035a                  __snprintf_cdfFnopuxX
                  0x005d86                  _acquiringS
                  0x003caa                  _adjust_gyro_gain
                  0x00250c                  _aileronbgain
                  0x00584a                  _altitudeCntrl
                  0x00438e                  _arcsine
                  0x002514                  _boxCarLen
                  0x002512                  _boxCarN
                  0x00779e                  _boxcar
                  0x0064c2                  _bstart
                  0x0064d4                  _bstop
                  0x00656a                  _byte_in
                  0x0064e6                  _byte_out
                  0x007ce4                  _calculate_analog_sensor_values
                  0x002dac                  _calculate_time_of_week
                  0x002ca2                  _calculate_week_num
                  0x005d48                  _calibrateS
                  0x003cd4                  _calibrate_gyros
                  0x007fe4                  _cam_pitchServoLimit
                  0x00800e                  _cam_yawServoLimit
                  0x00806e                  _cameraCntrl
                  0x0073ce                  _cameraServoMix
                  0x0074ae                  _canStabilizeHover
                  0x0074a6                  _canStabilizeInverted
                  0x006cf6                  _check_failsafe
                  0x006d0e                  _check_flight_mode
                  0x002e92                  _commit_gps_data
                  0x004dc2                  _compute_bearing_to_goal
                  0x008050                  _compute_camera_view
                  0x007a06                  _conv_pwIn
                  0x00442e                  _cosine
                  0x002404                  _days_in_month
                  0x00793c                  _dcm_absolute_to_relative
                  0x0078ea                  _dcm_calibrate
                  0x004d32                  _dcm_callback_gps_location_updated
                  0x008074                  _dcm_enable_yaw_drift_correction
                  0x00787a                  _dcm_init
                  0x003700                  _dcm_init_rmat
                  0x003d5c                  _dcm_run_imu_step
                  0x00788a                  _dcm_run_init_step
                  0x0080f0                  _dcm_servo_callback_prepare_outputs
                  0x0078fe                  _dcm_set_origin_location
                  0x002fb2                  _deadBand
                  0x002f38                  _deadBandRP
                  0x004878                  _dead_reckon
                  0x006c8c                  _debugHack
                  0x004ff2                  _determine_navigation_deflection
                  0x001058                  _div
                  0x004106                  _do_send_telemetry
                  0x002566                  _dollar
                  0x006680                  _eeprom_ByteRead
                  0x0065d0                  _eeprom_ByteWrite
                  0x006612                  _eeprom_PageWrite
                  0x0066d0                  _eeprom_SequentialRead
                  0x00250e                  _elevatorbgain
                  0x005c98                  _ent_acquiringS
                  0x005c7c                  _ent_calibrateS
                  0x005cc0                  _ent_manualS
                  0x005d0e                  _ent_returnS
                  0x005cd8                  _ent_stabilizedS
                  0x005cf0                  _ent_waypointS
                  0x008096                  _estYawDrift
                  0x0081c0                  _estimateWind
                  0x005842                  _excess_energy_height
                  0x001666                  _fclose
                  0x007f52                  _flight_mode_switch_2pos_poll
                  0x007f36                  _flight_mode_switch_auto
                  0x007f58                  _flight_mode_switch_check_set
                  0x007f44                  _flight_mode_switch_home
                  0x007f28                  _flight_mode_switch_manual
                  0x00543c                  _flightplan_live_begin
                  0x005476                  _flightplan_live_commit
                  0x005446                  _flightplan_live_received_byte
                  0x003f98                  _fmtGains
                  0x00183a                  _free
                  0x00106e                  _fwrite
                  0x0032bc                  _get_angleMode_commands
                  0x0051c6                  _get_fixed_origin
                  0x00813c                  _get_geo_heading_angle
                  0x003262                  _get_rateMode_commands
                  0x002586                  _gps_G
                  0x0025a6                  _gps_P
                  0x002c34                  _gps_checksum
                  0x002658                  _gps_comma
                  0x002b52                  _gps_gga7
                  0x002b82                  _gps_gga8
                  0x002bcc                  _gps_gga9
                  0x0025c6                  _gps_id1
                  0x0025dc                  _gps_id2
                  0x0025f2                  _gps_id3
                  0x00251a                  _gps_nav_valid
                  0x002730                  _gps_rmc1
                  0x00277e                  _gps_rmc2
                  0x0027ba                  _gps_rmc3
                  0x0028d2                  _gps_rmc4
                  0x002928                  _gps_rmc5
                  0x002a42                  _gps_rmc6
                  0x002a88                  _gps_rmc7
                  0x002aca                  _gps_rmc8
                  0x002b08                  _gps_rmc9
                  0x002530                  _gps_startup_sequence
                  0x005ef4                  _gpsoutbin
                  0x005f12                  _gpsoutline
                  0x005b80                  _hoverAltitudeCntrl
                  0x006f0e                  _hoverPitchCntrl
                  0x007ed8                  _hoverRollCntrl
                  0x007b94                  _hoverYawCntrl
                  0x0024e4                  _hoverpitchgain
                  0x0024e6                  _hoverpitchkd
                  0x002500                  _hoverrollkd
                  0x0024fe                  _hoverrollkp
                  0x00250a                  _hoveryawkd
                  0x002508                  _hoveryawkp
                  0x0075d0                  _initSPI1_master16
                  0x00746e                  _init_behavior
                  0x00772e                  _init_boxCarState
                  0x006a6c                  _init_events
                  0x005160                  _init_flightplan
                  0x005bd4                  _init_states
                  0x004af6                  _integrate_loc_cm
                  0x001116                  _ldiv
                  0x002ff4                  _magClamp
                  0x0030f6                  _magClamp32
                  0x003024                  _magClampRP
                  0x00307a                  _magClampRPY
                  0x006c9c                  _main
                  0x001902                  _malloc
                  0x005dec                  _manualS
                  0x005b3c                  _manualThrottle
                  0x001140                  _memchr
                  0x00103a                  _memcpy
                  0x003300                  _motorCntrl
                  0x0031a8                  _motorOut
                  0x0024ec                  _motor_cos
                  0x0024f2                  _motor_sin
                  0x005228                  _next_waypoint
                  0x0058c4                  _normalAltitudeCntrl
                  0x006e00                  _normalPitchCntrl
                  0x007e3e                  _normalRollCntrl
                  0x007ae6                  _normalYawCntrl
                  0x0039ec                  _normalize
                  0x0038b6                  _omegaSOG
                  0x006de4                  _pitchCntrl
                  0x0024d4                  _pitch_offset_centred_pwm
                  0x0024ce                  _pitch_servo_high_ratio
                  0x0024d8                  _pitch_servo_pwm_max
                  0x0024da                  _pitch_servo_pwm_min
                  0x0024e0                  _pitchgain
                  0x0024e2                  _pitchkd
                  0x006542                  _poll_clr
                  0x00651a                  _poll_set
                  0x004da0                  _process_flightplan
                  0x003f4a                  _queue_data
                  0x003f7a                  _queue_prepend
                  0x003f66                  _queue_string
                  0x007684                  _readSPI1_burst16n
                  0x007646                  _readSPI1reg16
                  0x00385a                  _read_accel
                  0x0037c4                  _read_gyros
                  0x0044a6                  _rect_to_polar
                  0x00455a                  _rect_to_polar16
                  0x0069bc                  _register_event
                  0x0069ca                  _register_event_p
                  0x005eb6                  _returnS
                  0x003eac                  _ring_available
                  0x003d74                  _ring_get
                  0x003da8                  _ring_put
                  0x003ddc                  _ring_putn
                  0x003ef6                  _ring_space
                  0x007e24                  _rollCntrl
                  0x0024ea                  _rollElevMixGain
                  0x003afc                  _roll_pitch_drift
                  0x0024fc                  _rollkd
                  0x002506                  _rollkdrud
                  0x0024fa                  _rollkp
                  0x002504                  _rollkprud
                  0x00443c                  _rotate
                  0x002f0c                  _rotate2D
                  0x002ee2                  _rotateRP
                  0x00246e                  _rtlWaypoints
                  0x0024e8                  _rudderElevMixGain
                  0x002510                  _rudderbgain
                  0x006d40                  _run_background_task
                  0x005330                  _run_flightplan
                  0x003904                  _rupdate
                  0x007190                  _scale_pwm_out
                  0x0040f4                  _send_telemetry
                  0x007302                  _servoMix
                  0x007480                  _setBehavior
                  0x0058b8                  _setTargetAltitude
                  0x002423                  _set_DEFAULT
                  0x002410                  _set_FIX_1Hz
                  0x008038                  _set_camera_view
                  0x004d46                  _set_goal
                  0x005864                  _set_throttle_control
                  0x004cf0                  _setup_origin
                  0x004332                  _sine
                  0x002382                  _sintab
                  0x004634                  _sqrt_int
                  0x00469e                  _sqrt_long
                  0x005e30                  _stabilizedS
                  0x005d40                  _startS
                  0x006c3e                  _storeGains
                  0x001152                  _strchr
                  0x001048                  _strlen
                  0x0024d2                  _tan_pitch_in_stabilized_mode
                  0x003138                  _transposeR
                  0x0075c4                  _triggerActionSetValue
                  0x006a16                  _trigger_event
                  0x007c6c                  _udb_a2d_record_offsets
                  0x005bec                  _udb_background_callback_periodic
                  0x005f64                  _udb_background_callback_triggered
                  0x0068a0                  _udb_background_trigger
                  0x005d2c                  _udb_callback_radio_did_turn_off
                  0x0078b8                  _udb_callback_read_sensors
                  0x0068ec                  _udb_cpu_load
                  0x0064a6                  _udb_eeprom_init
                  0x007d0e                  _udb_get_reset_flags
                  0x005f2a                  _udb_gps_callback_get_byte_to_send
                  0x005f56                  _udb_gps_callback_received_byte
                  0x00626a                  _udb_gps_check_rate
                  0x006248                  _udb_gps_set_rate
                  0x006294                  _udb_gps_start_sending_data
                  0x007bf2                  _udb_init
                  0x00700c                  _udb_init_ADC
                  0x0061e8                  _udb_init_GPS
                  0x006346                  _udb_init_USART
                  0x006ffc                  _udb_init_accelerometer
                  0x0079a6                  _udb_init_capture
                  0x00673a                  _udb_init_clock
                  0x006fee                  _udb_init_gyros
                  0x007c56                  _udb_init_leds
                  0x0071b6                  _udb_init_pwm
                  0x007c4e                  _udb_run
                  0x0042f0                  _udb_serial_callback_get_binary_to_send
                  0x00430a                  _udb_serial_callback_received_byte
                  0x0063ca                  _udb_serial_check_rate
                  0x0063a8                  _udb_serial_set_rate
                  0x0063f4                  _udb_serial_start_sending_data
                  0x0078c6                  _udb_servo_callback_prepare_outputs
                  0x007cb6                  _udb_servo_pulsesat
                  0x007c8e                  _udb_servo_record_trims
                  0x0072a4                  _udb_set_action_state
                  0x00726a                  _udb_set_dc
                  0x0074b6                  _updateBehavior
                  0x007578                  _updateTriggerAction
                  0x00323a                  _updateYaw
                  0x004d94                  _update_goal_alt
                  0x0051be                  _use_fixed_origin
                  0x004740                  _vector2_mag
                  0x00478c                  _vector2_normalize
                  0x004760                  _vector3_mag
                  0x0047ee                  _vector3_normalize
                  0x005e70                  _waypointS
                  0x002458                  _waypoints
                  0x004fea                  _wind_gain_adjustment
                  0x002484                  _wp_inject_byte_order
                  0x0050d6                  _wp_to_relative
                  0x007602                  _writeSPI1reg16
                  0x003232                  _x_rotate
                  0x007acc                  _yawCntrl
                  0x003b9e                  _yaw_drift
                  0x0024d6                  _yaw_offset_centred_pwm
                  0x0024d0                  _yaw_servo_high_ratio
                  0x0024dc                  _yaw_servo_pwm_max
                  0x0024de                  _yaw_servo_pwm_min
                  0x0024f8                  _yawkdail
                  0x002502                  _yawkdrud
                  0x002516                  _yawkpail
                  0x002518                  _yawkprud
                  0x0016ee                  fclose.XXelo:_closeall
                  0x00030c                  printf_cdnopuxX.XXeo:_prout
                  0x000338                  snprintf_cdfFnopuxX.XXeo:_prout

Memory Configuration

Name             Origin             Length             Attributes
data             0x000800           0x007800           a !xr
reset            0x000000           0x000004  
ivt              0x000004           0x0000fc  
_reserved        0x000100           0x000004  
aivt             0x000104           0x0000fc  
program          0x000200           0x02a9fe           xr
FBS              0xf80000           0x000002  
FSS              0xf80002           0x000002  
FGS              0xf80004           0x000002  
FOSCSEL          0xf80006           0x000002  
FOSC             0xf80008           0x000002  
FWDT             0xf8000a           0x000002  
FPOR             0xf8000c           0x000002  
FICD             0xf8000e           0x000002  
FUID0            0xf80010           0x000002  
FUID1            0xf80012           0x000002  
FUID2            0xf80014           0x000002  
FUID3            0xf80016           0x000002  
*default*        0x000000           0xffffffff  

Linker script and memory map

LOAD build/default/production/_ext/1018724808/deadReckoning.o
LOAD build/default/production/_ext/1018724808/estWind.o
LOAD build/default/production/_ext/1018724808/estYawDrift.o
LOAD build/default/production/_ext/1018724808/gpsParseCommon.o
LOAD build/default/production/_ext/1018724808/gpsParseMTEK.o
LOAD build/default/production/_ext/1018724808/gpsParseSTD.o
LOAD build/default/production/_ext/1018724808/gpsParseUBX.o
LOAD build/default/production/_ext/1018724808/libDCM.o
LOAD build/default/production/_ext/1018724808/mathlibNAV.o
LOAD build/default/production/_ext/1018724808/rmat.o
LOAD build/default/production/_ext/1018724808/rmat_obj.o
LOAD build/default/production/_ext/1018724808/gpsParseNMEA.o
LOAD build/default/production/_ext/1018708451/traps_udb4_asm.o
LOAD build/default/production/_ext/1018708451/background.o
LOAD build/default/production/_ext/1018708451/eeprom_udb4.o
LOAD build/default/production/_ext/1018708451/events.o
LOAD build/default/production/_ext/1018708451/filters.o
LOAD build/default/production/_ext/1018708451/I2C_udb4.o
LOAD build/default/production/_ext/1018708451/libUDB.o
LOAD build/default/production/_ext/1018708451/magneto_udb4.o
LOAD build/default/production/_ext/1018708451/mpu6000.o
LOAD build/default/production/_ext/1018708451/osd.o
LOAD build/default/production/_ext/1018708451/radioIn_udb4.o
LOAD build/default/production/_ext/1018708451/spiUtils.o
LOAD build/default/production/_ext/1018708451/24xxEEPROM.o
LOAD build/default/production/_ext/682965384/data_services.o
LOAD build/default/production/_ext/682965384/data_storage.o
LOAD build/default/production/_ext/682965384/euler_angles.o
LOAD build/default/production/_ext/682965384/MAVLink.o
LOAD build/default/production/_ext/682965384/nv_memory_table.o
LOAD build/default/production/_ext/682965384/parameter_table.o
LOAD build/default/production/_ext/682965384/states.o
LOAD build/default/production/_ext/682965384/mode_switch.o
LOAD build/default/production/_ext/682965384/airspeedCntrl.o
LOAD build/default/production/_ext/682965384/altitudeCntrl.o
LOAD build/default/production/_ext/682965384/altitudeCntrlVariable.o
LOAD build/default/production/_ext/682965384/behavior.o
LOAD build/default/production/_ext/682965384/cameraCntrl.o
LOAD build/default/production/_ext/682965384/config_tests.o
LOAD build/default/production/_ext/682965384/flightplan-logo.o
LOAD build/default/production/_ext/682965384/flightplan-waypoints.o
LOAD build/default/production/_ext/682965384/mp_osd.o
LOAD build/default/production/_ext/682965384/navigate.o
LOAD build/default/production/_ext/682965384/pitchCntrl.o
LOAD build/default/production/_ext/682965384/rollCntrl.o
LOAD build/default/production/_ext/682965384/servoMix.o
LOAD build/default/production/_ext/682965384/servoPrepare.o
LOAD build/default/production/_ext/682965384/yawCntrl.o
LOAD build/default/production/main.o
LOAD build/default/production/motorCntrl.o
LOAD build/default/production/telemetry.o
LOAD build/default/production/servoOut.o
LOAD build/default/production/serialIO_udb4.o
LOAD build/default/production/_ext/1018708451/analog2digital_udb4.o
                    0x0001                  __MPLAB_BUILD = 0x1
LOAD c:/program files (x86)/microchip/xc16/v1.11/bin/bin/../../lib/dsPIC33F\libp33FJ256GP710A-elf.a
                    0xf80000                  __FBS = 0xf80000
                    0xf80002                  __FSS = 0xf80002
                    0xf80004                  __FGS = 0xf80004
                    0xf80006                  __FOSCSEL = 0xf80006
                    0xf80008                  __FOSC = 0xf80008
                    0xf8000a                  __FWDT = 0xf8000a
                    0xf8000c                  __FPOR = 0xf8000c
                    0xf8000e                  __FICD = 0xf8000e
                    0xf80010                  __FUID0 = 0xf80010
                    0xf80012                  __FUID1 = 0xf80012
                    0xf80014                  __FUID2 = 0xf80014
                    0xf80016                  __FUID3 = 0xf80016
                    0x0004                  __IVT_BASE = 0x4
                    0x0104                  __AIVT_BASE = 0x104
                    0x0800                  __DATA_BASE = 0x800
                    0x7800                  __DATA_LENGTH = 0x7800
                    0x4800                  __YDATA_BASE = 0x4800
                    0x7800                  __DMA_BASE = 0x7800
                    0x7fff                  __DMA_END = 0x7fff
                    0x0200                  __CODE_BASE = 0x200
                    0x2aa00                  __CODE_LENGTH = 0x2aa00

.reset            0x000000          0x4
                  0x000000          0x2 SHORT 0x200 ABSOLUTE (__reset)
                  0x000001          0x2 SHORT 0x4
                  0x000002          0x2 SHORT 0x0 ((ABSOLUTE (__reset) >> 0x10) & 0x7f)
                  0x000003          0x2 SHORT 0x0

.text             0x000200       0x1f68
 *(.init)
 .init            0x000200         0x32 c:/program files (x86)/microchip/xc16/v1.11/bin/bin/../../lib\liblega-pic30-elf.a(crt0_standard.o)
                  0x000200                  __resetPRI
                  0x000200                  __reset
                  0x000222                  __psv_init
 .init            0x000232         0x5e c:/program files (x86)/microchip/xc16/v1.11/bin/bin/../../lib\liblega-pic30-elf.a(data_init_standard.o)
                  0x000232                  __data_init_standard
                  0x000232                  __data_init
 *(.user_init)
 *(.handle)
 .handle          0x000290         0x7c jump_table
 *(.isr*)
 *(.libc)
 .libc            0x00030c         0x2c c:/program files (x86)/microchip/xc16/v1.11/bin/bin/../../lib\liblega-c-elf.a(printf_cdnopuxX.XXeo)
                  0x00030c                  printf_cdnopuxX.XXeo:_prout
                  0x000328                  __printf_cdnopuxX
 .libc            0x000338         0x46 c:/program files (x86)/microchip/xc16/v1.11/bin/bin/../../lib\liblega-c-elf.a(snprintf_cdfFnopuxX.XXeo)
                  0x000338                  snprintf_cdfFnopuxX.XXeo:_prout
                  0x00035a                  __snprintf_cdfFnopuxX
 .libc            0x00037e        0x16e c:/program files (x86)/microchip/xc16/v1.11/bin/bin/../../lib\liblega-c-elf.a(xprintf_cdfFnopuxX.XXeo)
                  0x00037e                  ___Printf_cdnopuxX
                  0x00037e                  ___Printf_cdfFnopuxX
 .libc            0x0004ec        0x2ba c:/program files (x86)/microchip/xc16/v1.11/bin/bin/../../lib\liblega-c-elf.a(xputfld_cdfFnopuxX.XXeo)
                  0x0004ec                  ___Putfld_cdfFnopuxX
                  0x0004ec                  ___Putfld_cdnopuxX
 .libc            0x0007a6        0x274 c:/program files (x86)/microchip/xc16/v1.11/bin/bin/../../lib\liblega-c-elf.a(xldtob_cdfFnopuxX.XXeo)
                  0x0007a6                  ___Ldtob_cdfFnopuxX
 .libc            0x000a1a        0x208 c:/program files (x86)/microchip/xc16/v1.11/bin/bin/../../lib\liblega-c-elf.a(xgenld_cdfFnopuxX.XXeo)
                  0x000a1a                  ___Genld_cdfFnopuxX
 *(.libm)
 *(.libdsp)
 .libdsp          0x000c22         0x1c c:/program files (x86)/microchip/xc16/v1.11/bin/bin/../../lib\libdsp-elf.a(vscl.obj)
                  0x000c22                  _VectorScale
 .libdsp          0x000c3e         0x1e c:/program files (x86)/microchip/xc16/v1.11/bin/bin/../../lib\libdsp-elf.a(vadd.obj)
                  0x000c3e                  _VectorAdd
 .libdsp          0x000c5c         0x1c c:/program files (x86)/microchip/xc16/v1.11/bin/bin/../../lib\libdsp-elf.a(vmul.obj)
                  0x000c5c                  _VectorMultiply
 .libdsp          0x000c78         0x1a c:/program files (x86)/microchip/xc16/v1.11/bin/bin/../../lib\libdsp-elf.a(vdot.obj)
                  0x000c78                  _VectorDotProduct
 .libdsp          0x000c92         0x18 c:/program files (x86)/microchip/xc16/v1.11/bin/bin/../../lib\libdsp-elf.a(vpow.obj)
                  0x000c92                  _VectorPower
 .libdsp          0x000caa         0x20 c:/program files (x86)/microchip/xc16/v1.11/bin/bin/../../lib\libdsp-elf.a(madd.obj)
                  0x000caa                  _MatrixAdd
 .libdsp          0x000cca         0x46 c:/program files (x86)/microchip/xc16/v1.11/bin/bin/../../lib\libdsp-elf.a(mmul.obj)
                  0x000cca                  _MatrixMultiply
 *(.lib*)
 .libperi         0x000d10          0x8 c:/program files (x86)/microchip/xc16/v1.11/bin/bin/../../lib/dsPIC33F\libp33FJ256GP710A-elf.a(CloseSPI1.o)
                  0x000d10                  _CloseSPI1
 .libperi         0x000d18         0x22 c:/program files (x86)/microchip/xc16/v1.11/bin/bin/../../lib/dsPIC33F\libp33FJ256GP710A-elf.a(ConfigIntSPI1.o)
                  0x000d18                  _ConfigIntSPI1
 .libperi         0x000d3a          0x8 c:/program files (x86)/microchip/xc16/v1.11/bin/bin/../../lib/dsPIC33F\libp33FJ256GP710A-elf.a(OpenSPI1.o)
                  0x000d3a                  _OpenSPI1
 .libm.divfs3     0x000d42         0x84 c:/program files (x86)/microchip/xc16/v1.11/bin/bin/../../lib\libm-elf.a(divsf3.eo)
                  0x000d42                  ___divsf3
 .libm.divsi3     0x000dc6         0x1e c:/program files (x86)/microchip/xc16/v1.11/bin/bin/../../lib\libm-elf.a(divsi3.eo)
                  0x000dc6                  ___divsi3
 .libm.gtsf2      0x000de4          0x4 c:/program files (x86)/microchip/xc16/v1.11/bin/bin/../../lib\libm-elf.a(fgtge.eo)
                  0x000de4                  ___gesf2
                  0x000de4                  ___gtsf2
 .libm.fixsfsi    0x000de8         0x42 c:/program files (x86)/microchip/xc16/v1.11/bin/bin/../../lib\libm-elf.a(fixsfsi.eo)
                  0x000de8                  _(float, int, long long, short, float, short, int)
 .libm.floatsisf
                  0x000e2a          0x6 c:/program files (x86)/microchip/xc16/v1.11/bin/bin/../../lib\libm-elf.a(floatsisf.eo)
                  0x000e2a                  ___floatsisf
 .libm.floatunsisf
                  0x000e30          0x4 c:/program files (x86)/microchip/xc16/v1.11/bin/bin/../../lib\libm-elf.a(floatunsisf.eo)
                  0x000e30                  ___floatunsisf
 .libm.fpack      0x000e34         0x4c c:/program files (x86)/microchip/xc16/v1.11/bin/bin/../../lib\libm-elf.a(fpack.eo)
                  0x000e34                  __fpack
 .libm.funpack    0x000e80         0x2a c:/program files (x86)/microchip/xc16/v1.11/bin/bin/../../lib\libm-elf.a(funpack.eo)
                  0x000e80                  __funpack
 .libm.funpack2
                  0x000eaa         0x10 c:/program files (x86)/microchip/xc16/v1.11/bin/bin/../../lib\libm-elf.a(funpack2.eo)
                  0x000eaa                  __funpack2
 .libm.fPropagateNaN
                  0x000eba         0x12 c:/program files (x86)/microchip/xc16/v1.11/bin/bin/../../lib\libm-elf.a(futil.eo)
                  0x000eba                  __fPropagateNaN
 .libm.fbobExit
                  0x000ecc          0x8 c:/program files (x86)/microchip/xc16/v1.11/bin/bin/../../lib\libm-elf.a(futil.eo)
                  0x000ecc                  __fbopExit
 .libm.fbopReturnNaN
                  0x000ed4          0x6 c:/program files (x86)/microchip/xc16/v1.11/bin/bin/../../lib\libm-elf.a(futil.eo)
                  0x000ed4                  __fbopReturnNaN
 .libm.modsi3     0x000eda         0x1e c:/program files (x86)/microchip/xc16/v1.11/bin/bin/../../lib\libm-elf.a(modsi3.eo)
                  0x000eda                  ___modsi3
 .libm.mulsf3     0x000ef8         0x68 c:/program files (x86)/microchip/xc16/v1.11/bin/bin/../../lib\libm-elf.a(mulsf3.eo)
                  0x000ef8                  ___mulsf3
 .libm.udivsi3    0x000f60         0x20 c:/program files (x86)/microchip/xc16/v1.11/bin/bin/../../lib\libm-elf.a(udivsi3.eo)
                  0x000f60                  ___udivsi3
 .libm.umodsi3    0x000f80          0x6 c:/program files (x86)/microchip/xc16/v1.11/bin/bin/../../lib\libm-elf.a(umodsi3.eo)
                  0x000f80                  ___umodsi3
 .libm.fcompare
                  0x000f86         0x36 c:/program files (x86)/microchip/xc16/v1.11/bin/bin/../../lib\libm-elf.a(fcompare.eo)
                  0x000f86                  __fcompare
 .libm.floatdisf
                  0x000fbc         0x20 c:/program files (x86)/microchip/xc16/v1.11/bin/bin/../../lib\libm-elf.a(floatdisf.eo)
                  0x000fbc                  ___floatdisf
 .libm.floatundisf
                  0x000fdc         0x5e c:/program files (x86)/microchip/xc16/v1.11/bin/bin/../../lib\libm-elf.a(floatundisf.eo)
                  0x000fdc                  ___floatundisf
 .libc.memcpy.memcpy
                  0x00103a          0xe c:/program files (x86)/microchip/xc16/v1.11/bin/bin/../../lib\liblega-c-elf.a(memcpy.XXeo)
                  0x00103a                  _memcpy
 .libc.strlen.strlen
                  0x001048         0x10 c:/program files (x86)/microchip/xc16/v1.11/bin/bin/../../lib\liblega-c-elf.a(strlen.XXeo)
                  0x001048                  _strlen
 .libc.div.div    0x001058         0x16 c:/program files (x86)/microchip/xc16/v1.11/bin/bin/../../lib\liblega-c-elf.a(div.XXeo)
                  0x001058                  _div
 .libc.fwrite.fwrite
                  0x00106e         0xa8 c:/program files (x86)/microchip/xc16/v1.11/bin/bin/../../lib\liblega-c-elf.a(fwrite.XXeo)
                  0x00106e                  _fwrite
 .libc.ldiv.ldiv
                  0x001116         0x2a c:/program files (x86)/microchip/xc16/v1.11/bin/bin/../../lib\liblega-c-elf.a(ldiv.XXeo)
                  0x001116                  _ldiv
 .libc.memchr.memchr
                  0x001140         0x12 c:/program files (x86)/microchip/xc16/v1.11/bin/bin/../../lib\liblega-c-elf.a(memchr.XXeo)
                  0x001140                  _memchr
 .libc.strchr.strchr
                  0x001152         0x12 c:/program files (x86)/microchip/xc16/v1.11/bin/bin/../../lib\liblega-c-elf.a(strchr.XXeo)
                  0x001152                  _strchr
 .libc._Fwprep._Fwprep
                  0x001164         0x8e c:/program files (x86)/microchip/xc16/v1.11/bin/bin/../../lib\liblega-c-elf.a(xfwprep.XXeo)
                  0x001164                  __Fwprep
 .libc._LDunscale._LDunscale
                  0x0011f2         0x54 c:/program files (x86)/microchip/xc16/v1.11/bin/bin/../../lib\liblega-c-elf.a(xldunsca.XXeo)
                  0x0011f2                  __LDunscale
 .libc._Litob._Litob
                  0x001246        0x28c c:/program files (x86)/microchip/xc16/v1.11/bin/bin/../../lib\liblega-c-elf.a(xlitob.XXeo)
                  0x001246                  __Litob
 .libc._Puttxt._Puttxt
                  0x0014d2        0x178 c:/program files (x86)/microchip/xc16/v1.11/bin/bin/../../lib\liblega-c-elf.a(xputtxt.XXeo)
                  0x0014d2                  __Puttxt
 .libc._Vacopy._Vacopy
                  0x00164a          0x4 c:/program files (x86)/microchip/xc16/v1.11/bin/bin/../../lib\liblega-c-elf.a(xvacopy.XXeo)
                  0x00164a                  __Vacopy
 .libc.closeallreg.closeallreg
                  0x00164e          0x4 c:/program files (x86)/microchip/xc16/v1.11/bin/bin/../../lib\liblega-c-elf.a(fclose.XXelo)
 .libc._Closreg._Closreg
                  0x001652         0x14 c:/program files (x86)/microchip/xc16/v1.11/bin/bin/../../lib\liblega-c-elf.a(fclose.XXelo)
                  0x001652                  __Closreg
 .libc.fclose.fclose
                  0x001666         0x88 c:/program files (x86)/microchip/xc16/v1.11/bin/bin/../../lib\liblega-c-elf.a(fclose.XXelo)
                  0x001666                  _fclose
 .libc.closeall.closeall
                  0x0016ee         0x18 c:/program files (x86)/microchip/xc16/v1.11/bin/bin/../../lib\liblega-c-elf.a(fclose.XXelo)
                  0x0016ee                  fclose.XXelo:_closeall
 .libc._DNKfflush._DNKfflush
                  0x001706         0x7e c:/program files (x86)/microchip/xc16/v1.11/bin/bin/../../lib\liblega-c-elf.a(fflush.XXelo)
                  0x001706                  __DNKfflush
 .libc._Atexit._Atexit
                  0x001784         0x1c c:/program files (x86)/microchip/xc16/v1.11/bin/bin/../../lib\liblega-c-elf.a(xatexit.XXelo)
                  0x001784                  __Atexit
 .libc._Dnorm._Dnorm
                  0x0017a0         0x9a c:/program files (x86)/microchip/xc16/v1.11/bin/bin/../../lib\liblega-c-elf.a(xdnorm.XXelo)
                  0x0017a0                  __Dnorm
 .libc.free.free
                  0x00183a         0x64 c:/program files (x86)/microchip/xc16/v1.11/bin/bin/../../lib\liblega-c-elf.a(free.XXeo)
                  0x00183a                  _free
 .libc.findmem.findmem
                  0x00189e         0x64 c:/program files (x86)/microchip/xc16/v1.11/bin/bin/../../lib\liblega-c-elf.a(malloc.XXeo)
 .libc.malloc.malloc
                  0x001902         0x54 c:/program files (x86)/microchip/xc16/v1.11/bin/bin/../../lib\liblega-c-elf.a(malloc.XXeo)
                  0x001902                  _malloc
 .libc._Getmem._Getmem
                  0x001956         0x14 c:/program files (x86)/microchip/xc16/v1.11/bin/bin/../../lib\liblega-c-elf.a(xgetmem.XXeo)
                  0x001956                  __Getmem
 .libc.sbrk       0x00196a         0x28 c:/program files (x86)/microchip/xc16/v1.11/bin/bin/../../lib\liblega-pic30-elf.a(sbrk.Leo)
                  0x00196a                  _sbrk
 .libc.brk        0x001992         0x1c c:/program files (x86)/microchip/xc16/v1.11/bin/bin/../../lib\liblega-pic30-elf.a(brk.Lelo)
                  0x001992                  _brk
 .libc.doclose.doclose
                  0x0019ae          0x4 c:/program files (x86)/microchip/xc16/v1.11/bin/bin/../../lib\liblega-pic30-elf.a(close.Leo)
 .libc.close      0x0019b2         0x12 c:/program files (x86)/microchip/xc16/v1.11/bin/bin/../../lib\liblega-pic30-elf.a(close.Leo)
                  0x0019b2                  _close
 .libc.dowrite.dowrite
                  0x0019c4          0x4 c:/program files (x86)/microchip/xc16/v1.11/bin/bin/../../lib\liblega-pic30-elf.a(write.Leo)
 .libc.write      0x0019c8         0x5e c:/program files (x86)/microchip/xc16/v1.11/bin/bin/../../lib\liblega-pic30-elf.a(write.Leo)
                  0x0019c8                  _write
 .libc.doremove.doremove
                  0x001a26          0x4 c:/program files (x86)/microchip/xc16/v1.11/bin/bin/../../lib\liblega-pic30-elf.a(remove.Leo)
 .libc.remove     0x001a2a         0x12 c:/program files (x86)/microchip/xc16/v1.11/bin/bin/../../lib\liblega-pic30-elf.a(remove.Leo)
                  0x001a2a                  _remove
 .libm.eqdf2      0x001a3c          0xa c:/program files (x86)/microchip/xc16/v1.11/bin/bin/../../lib\libm-elf.a(deqltle.eo)
                  0x001a3c                  ___eqdf2
                  0x001a3c                  ___ltdf2
                  0x001a3c                  ___ledf2
 .libm.gtdf2      0x001a46          0xa c:/program files (x86)/microchip/xc16/v1.11/bin/bin/../../lib\libm-elf.a(dgtge.eo)
                  0x001a46                  ___gtdf2
                  0x001a46                  ___gedf2
 .libm.divdf3     0x001a50         0xb4 c:/program files (x86)/microchip/xc16/v1.11/bin/bin/../../lib\libm-elf.a(divdf3.eo)
                  0x001a50                  ___divdf3
 .libm.dpack      0x001b04         0x58 c:/program files (x86)/microchip/xc16/v1.11/bin/bin/../../lib\libm-elf.a(dpack.eo)
                  0x001b04                  __dpack
 .libm.dunpack2
                  0x001b5c         0x32 c:/program files (x86)/microchip/xc16/v1.11/bin/bin/../../lib\libm-elf.a(dunpack2.eo)
                  0x001b5c                  __dunpack2
                  0x001b7e                  __dreturnNaN
                  0x001b84                  __dunpack2exit
 .libm.extendsfdf2
                  0x001b8e         0x3e c:/program files (x86)/microchip/xc16/v1.11/bin/bin/../../lib\libm-elf.a(extendsfdf.eo)
                  0x001b8e                  ___extendsfdf2
 .libm.fixdfsi    0x001bcc         0x58 c:/program files (x86)/microchip/xc16/v1.11/bin/bin/../../lib\libm-elf.a(fixdfsi.eo)
                  0x001bcc                  _(float, int, long long, double, float, short, int)
 .libm.floatsidf
                  0x001c24          0x6 c:/program files (x86)/microchip/xc16/v1.11/bin/bin/../../lib\libm-elf.a(floatsidf.eo)
                  0x001c24                  ___floatsidf
 .libm.muldf3     0x001c2a         0xea c:/program files (x86)/microchip/xc16/v1.11/bin/bin/../../lib\libm-elf.a(muldf3.eo)
                  0x001c2a                  ___muldf3
 .libm.subdf3     0x001d14          0x4 c:/program files (x86)/microchip/xc16/v1.11/bin/bin/../../lib\libm-elf.a(subdf3.eo)
                  0x001d14                  ___subdf3
 .libm.mulsi3     0x001d18          0xc c:/program files (x86)/microchip/xc16/v1.11/bin/bin/../../lib\libm-elf.a(mulsi3.eo)
                  0x001d18                  ___mulp32peds3
                  0x001d18                  ___mulsi3
                  0x001d18                  ___mulp32eds3
 .libm.__PplusBdi.__PplusBdi
                  0x001d24         0x28 c:/program files (x86)/microchip/xc16/v1.11/bin/bin/../../lib\libm-elf.a(divmoddi3.eo)
 .libm.__PminusBdi.__PminusBdi
                  0x001d4c         0x30 c:/program files (x86)/microchip/xc16/v1.11/bin/bin/../../lib\libm-elf.a(divmoddi3.eo)
 .libm.__udivmoddi3.__udivmoddi3
                  0x001d7c         0xc4 c:/program files (x86)/microchip/xc16/v1.11/bin/bin/../../lib\libm-elf.a(divmoddi3.eo)
                  0x001d7c                  ___udivmoddi3
 .libm.__udivdi3.__udivdi3
                  0x001e40          0xe c:/program files (x86)/microchip/xc16/v1.11/bin/bin/../../lib\libm-elf.a(divmoddi3.eo)
                  0x001e40                  ___udivdi3
 .libm.__umoddi3.__umoddi3
                  0x001e4e          0x8 c:/program files (x86)/microchip/xc16/v1.11/bin/bin/../../lib\libm-elf.a(divmoddi3.eo)
                  0x001e4e                  ___umoddi3
 .libm.__divdi3.__divdi3
                  0x001e56         0x66 c:/program files (x86)/microchip/xc16/v1.11/bin/bin/../../lib\libm-elf.a(divmoddi3.eo)
                  0x001e56                  ___divdi3
 .libm.__moddi3.__moddi3
                  0x001ebc         0x5c c:/program files (x86)/microchip/xc16/v1.11/bin/bin/../../lib\libm-elf.a(divmoddi3.eo)
                  0x001ebc                  ___moddi3
 .libm.adddf3     0x001f18         0xfa c:/program files (x86)/microchip/xc16/v1.11/bin/bin/../../lib\libm-elf.a(adddf3.eo)
                  0x001f18                  ___adddf3
 .libm.dcompare
                  0x002012         0x52 c:/program files (x86)/microchip/xc16/v1.11/bin/bin/../../lib\libm-elf.a(dcompare.eo)
                  0x002012                  __dcompare
 .libm.dPropagateNaN
                  0x002064         0x1c c:/program files (x86)/microchip/xc16/v1.11/bin/bin/../../lib\libm-elf.a(dpropagateNaN.eo)
                  0x002064                  __dPropagateNaN
 .libm.dtype      0x002080         0x24 c:/program files (x86)/microchip/xc16/v1.11/bin/bin/../../lib\libm-elf.a(dtype.eo)
                  0x002080                  __dtype
 .libm.dunpack    0x0020a4         0x4e c:/program files (x86)/microchip/xc16/v1.11/bin/bin/../../lib\libm-elf.a(dunpack.eo)
                  0x0020a4                  __dunpack
 .libm.floatdidf
                  0x0020f2         0x20 c:/program files (x86)/microchip/xc16/v1.11/bin/bin/../../lib\libm-elf.a(floatdidf.eo)
                  0x0020f2                  ___floatdidf
 .libm.floatundidf
                  0x002112         0x56 c:/program files (x86)/microchip/xc16/v1.11/bin/bin/../../lib\libm-elf.a(floatundidf.eo)
                  0x002112                  ___floatundidf

usercode
 *(usercode)

__FBS
 *(__FBS.sec*)

__FSS
 *(__FSS.sec*)

__FGS             0xf80004          0x2
 *(__FGS.sec*)
 __FGS.sec        0xf80004          0x2 FGS
                  0xf80004                  __FGS.sec

__FOSCSEL         0xf80006          0x2
 *(__FOSCSEL.sec*)
 __FOSCSEL.sec    0xf80006          0x2 build/default/production/_ext/1018708451/libUDB.o

__FOSC            0xf80008          0x2
 *(__FOSC.sec*)
 __FOSC.sec       0xf80008          0x2 build/default/production/_ext/1018708451/libUDB.o

__FWDT            0xf8000a          0x2
 *(__FWDT.sec*)
 __FWDT.sec       0xf8000a          0x2 build/default/production/_ext/1018708451/libUDB.o

__FPOR            0xf8000c          0x2
 *(__FPOR.sec*)
 __FPOR.sec       0xf8000c          0x2 build/default/production/_ext/1018708451/libUDB.o

__FICD            0xf8000e          0x2
 *(__FICD.sec*)
 __FICD.sec       0xf8000e          0x2 build/default/production/_ext/1018708451/libUDB.o

__FUID0
 *(__FUID0.sec*)

__FUID1
 *(__FUID1.sec*)

__FUID2
 *(__FUID2.sec*)

__FUID3
 *(__FUID3.sec*)

.comment          0x000000         0x5e
 *(.comment)
 .comment         0x000000         0x5e c:/program files (x86)/microchip/xc16/v1.11/bin/bin/../../lib\liblega-c-elf.a(xfiles.XXeo)

.debug_info       0x000000      0x20ecf
 *(.debug_info)
 .debug_info      0x000000        0xaf6 build/default/production/_ext/1018724808/deadReckoning.o
 .debug_info      0x000af6        0x463 build/default/production/_ext/1018724808/estWind.o
 .debug_info      0x000f59        0x6c7 build/default/production/_ext/1018724808/estYawDrift.o
 .debug_info      0x001620       0x1016 build/default/production/_ext/1018724808/gpsParseCommon.o
 .debug_info      0x002636        0x3d5 build/default/production/_ext/1018724808/gpsParseMTEK.o
 .debug_info      0x002a0b        0x3d4 build/default/production/_ext/1018724808/gpsParseSTD.o
 .debug_info      0x002ddf        0x3d4 build/default/production/_ext/1018724808/gpsParseUBX.o
 .debug_info      0x0031b3        0x918 build/default/production/_ext/1018724808/libDCM.o
 .debug_info      0x003acb        0x91c build/default/production/_ext/1018724808/mathlibNAV.o
 .debug_info      0x0043e7        0xfbc build/default/production/_ext/1018724808/rmat.o
 .debug_info      0x0053a3        0x363 build/default/production/_ext/1018724808/rmat_obj.o
 .debug_info      0x005706        0xf88 build/default/production/_ext/1018724808/gpsParseNMEA.o
 .debug_info      0x00668e         0xaa build/default/production/_ext/1018708451/traps_udb4_asm.o
 .debug_info      0x006738       0x20a5 build/default/production/_ext/1018708451/background.o
 .debug_info      0x0087dd        0xf4a build/default/production/_ext/1018708451/eeprom_udb4.o
 .debug_info      0x009727       0x1146 build/default/production/_ext/1018708451/events.o
 .debug_info      0x00a86d        0x25f build/default/production/_ext/1018708451/filters.o
 .debug_info      0x00aacc        0x3c8 build/default/production/_ext/1018708451/I2C_udb4.o
 .debug_info      0x00ae94        0xf2c build/default/production/_ext/1018708451/libUDB.o
 .debug_info      0x00bdc0        0x428 build/default/production/_ext/1018708451/magneto_udb4.o
 .debug_info      0x00c1e8       0x136a build/default/production/_ext/1018708451/mpu6000.o
 .debug_info      0x00d552        0x3c3 build/default/production/_ext/1018708451/osd.o
 .debug_info      0x00d915       0x1272 build/default/production/_ext/1018708451/radioIn_udb4.o
 .debug_info      0x00eb87        0x7f9 build/default/production/_ext/1018708451/spiUtils.o
 .debug_info      0x00f380        0x3ca build/default/production/_ext/1018708451/24xxEEPROM.o
 .debug_info      0x00f74a        0x3d2 build/default/production/_ext/682965384/data_services.o
 .debug_info      0x00fb1c        0x3d1 build/default/production/_ext/682965384/data_storage.o
 .debug_info      0x00feed        0x4c2 build/default/production/_ext/682965384/euler_angles.o
 .debug_info      0x0103af        0x3d5 build/default/production/_ext/682965384/MAVLink.o
 .debug_info      0x010784        0x3dd build/default/production/_ext/682965384/nv_memory_table.o
 .debug_info      0x010b61        0x3dd build/default/production/_ext/682965384/parameter_table.o
 .debug_info      0x010f3e        0xb72 build/default/production/_ext/682965384/states.o
 .debug_info      0x011ab0        0x72b build/default/production/_ext/682965384/mode_switch.o
 .debug_info      0x0121db        0x3db build/default/production/_ext/682965384/airspeedCntrl.o
 .debug_info      0x0125b6        0xbe4 build/default/production/_ext/682965384/altitudeCntrl.o
 .debug_info      0x01319a        0x3e3 build/default/production/_ext/682965384/altitudeCntrlVariable.o
 .debug_info      0x01357d        0x8db build/default/production/_ext/682965384/behavior.o
 .debug_info      0x013e58        0x77d build/default/production/_ext/682965384/cameraCntrl.o
 .debug_info      0x0145d5        0x3da build/default/production/_ext/682965384/config_tests.o
 .debug_info      0x0149af        0x3dd build/default/production/_ext/682965384/flightplan-logo.o
 .debug_info      0x014d8c        0xc34 build/default/production/_ext/682965384/flightplan-waypoints.o
 .debug_info      0x0159c0        0x3d4 build/default/production/_ext/682965384/mp_osd.o
 .debug_info      0x015d94        0xe05 build/default/production/_ext/682965384/navigate.o
 .debug_info      0x016b99        0xaed build/default/production/_ext/682965384/pitchCntrl.o
 .debug_info      0x017686        0x94d build/default/production/_ext/682965384/rollCntrl.o
 .debug_info      0x017fd3        0x795 build/default/production/_ext/682965384/servoMix.o
 .debug_info      0x018768        0x509 build/default/production/_ext/682965384/servoPrepare.o
 .debug_info      0x018c71        0xa4c build/default/production/_ext/682965384/yawCntrl.o
 .debug_info      0x0196bd        0x904 build/default/production/main.o
 .debug_info      0x019fc1       0x136d build/default/production/motorCntrl.o
 .debug_info      0x01b32e        0xefb build/default/production/telemetry.o
 .debug_info      0x01c229       0x111e build/default/production/servoOut.o
 .debug_info      0x01d347       0x1c22 build/default/production/serialIO_udb4.o
 .debug_info      0x01ef69       0x1f66 build/default/production/_ext/1018708451/analog2digital_udb4.o
 *(.gnu.linkonce.wi.*)

.debug_abbrev     0x000000       0x3bc6
 *(.debug_abbrev)
 .debug_abbrev    0x000000        0x15a build/default/production/_ext/1018724808/deadReckoning.o
 .debug_abbrev    0x00015a         0xa0 build/default/production/_ext/1018724808/estWind.o
 .debug_abbrev    0x0001fa        0x118 build/default/production/_ext/1018724808/estYawDrift.o
 .debug_abbrev    0x000312        0x194 build/default/production/_ext/1018724808/gpsParseCommon.o
 .debug_abbrev    0x0004a6         0x68 build/default/production/_ext/1018724808/gpsParseMTEK.o
 .debug_abbrev    0x00050e         0x68 build/default/production/_ext/1018724808/gpsParseSTD.o
 .debug_abbrev    0x000576         0x68 build/default/production/_ext/1018724808/gpsParseUBX.o
 .debug_abbrev    0x0005de        0x169 build/default/production/_ext/1018724808/libDCM.o
 .debug_abbrev    0x000747        0x1a7 build/default/production/_ext/1018724808/mathlibNAV.o
 .debug_abbrev    0x0008ee        0x275 build/default/production/_ext/1018724808/rmat.o
 .debug_abbrev    0x000b63         0x68 build/default/production/_ext/1018724808/rmat_obj.o
 .debug_abbrev    0x000bcb        0x1bb build/default/production/_ext/1018724808/gpsParseNMEA.o
 .debug_abbrev    0x000d86         0x14 build/default/production/_ext/1018708451/traps_udb4_asm.o
 .debug_abbrev    0x000d9a        0x1c1 build/default/production/_ext/1018708451/background.o
 .debug_abbrev    0x000f5b        0x12d build/default/production/_ext/1018708451/eeprom_udb4.o
 .debug_abbrev    0x001088        0x1b6 build/default/production/_ext/1018708451/events.o
 .debug_abbrev    0x00123e         0x90 build/default/production/_ext/1018708451/filters.o
 .debug_abbrev    0x0012ce         0x68 build/default/production/_ext/1018708451/I2C_udb4.o
 .debug_abbrev    0x001336        0x23a build/default/production/_ext/1018708451/libUDB.o
 .debug_abbrev    0x001570         0x8b build/default/production/_ext/1018708451/magneto_udb4.o
 .debug_abbrev    0x0015fb        0x136 build/default/production/_ext/1018708451/mpu6000.o
 .debug_abbrev    0x001731         0x68 build/default/production/_ext/1018708451/osd.o
 .debug_abbrev    0x001799        0x1d2 build/default/production/_ext/1018708451/radioIn_udb4.o
 .debug_abbrev    0x00196b         0xdd build/default/production/_ext/1018708451/spiUtils.o
 .debug_abbrev    0x001a48         0x68 build/default/production/_ext/1018708451/24xxEEPROM.o
 .debug_abbrev    0x001ab0         0x68 build/default/production/_ext/682965384/data_services.o
 .debug_abbrev    0x001b18         0x68 build/default/production/_ext/682965384/data_storage.o
 .debug_abbrev    0x001b80         0xd8 build/default/production/_ext/682965384/euler_angles.o
 .debug_abbrev    0x001c58         0x68 build/default/production/_ext/682965384/MAVLink.o
 .debug_abbrev    0x001cc0         0x68 build/default/production/_ext/682965384/nv_memory_table.o
 .debug_abbrev    0x001d28         0x68 build/default/production/_ext/682965384/parameter_table.o
 .debug_abbrev    0x001d90        0x199 build/default/production/_ext/682965384/states.o
 .debug_abbrev    0x001f29        0x120 build/default/production/_ext/682965384/mode_switch.o
 .debug_abbrev    0x002049         0x68 build/default/production/_ext/682965384/airspeedCntrl.o
 .debug_abbrev    0x0020b1        0x1d7 build/default/production/_ext/682965384/altitudeCntrl.o
 .debug_abbrev    0x002288         0x68 build/default/production/_ext/682965384/altitudeCntrlVariable.o
 .debug_abbrev    0x0022f0        0x148 build/default/production/_ext/682965384/behavior.o
 .debug_abbrev    0x002438        0x14c build/default/production/_ext/682965384/cameraCntrl.o
 .debug_abbrev    0x002584         0x68 build/default/production/_ext/682965384/config_tests.o
 .debug_abbrev    0x0025ec         0x68 build/default/production/_ext/682965384/flightplan-logo.o
 .debug_abbrev    0x002654        0x1c5 build/default/production/_ext/682965384/flightplan-waypoints.o
 .debug_abbrev    0x002819         0x68 build/default/production/_ext/682965384/mp_osd.o
 .debug_abbrev    0x002881        0x1c7 build/default/production/_ext/682965384/navigate.o
 .debug_abbrev    0x002a48        0x185 build/default/production/_ext/682965384/pitchCntrl.o
 .debug_abbrev    0x002bcd        0x167 build/default/production/_ext/682965384/rollCntrl.o
 .debug_abbrev    0x002d34        0x13b build/default/production/_ext/682965384/servoMix.o
 .debug_abbrev    0x002e6f         0xd7 build/default/production/_ext/682965384/servoPrepare.o
 .debug_abbrev    0x002f46        0x174 build/default/production/_ext/682965384/yawCntrl.o
 .debug_abbrev    0x0030ba        0x1ea build/default/production/main.o
 .debug_abbrev    0x0032a4        0x1f1 build/default/production/motorCntrl.o
 .debug_abbrev    0x003495        0x233 build/default/production/telemetry.o
 .debug_abbrev    0x0036c8        0x1f3 build/default/production/servoOut.o
 .debug_abbrev    0x0038bb        0x173 build/default/production/serialIO_udb4.o
 .debug_abbrev    0x003a2e        0x198 build/default/production/_ext/1018708451/analog2digital_udb4.o

.debug_line       0x000000       0x9d6b
 *(.debug_line)
 .debug_line      0x000000        0x476 build/default/production/_ext/1018724808/deadReckoning.o
 .debug_line      0x000476         0xb6 build/default/production/_ext/1018724808/estWind.o
 .debug_line      0x00052c        0x1c4 build/default/production/_ext/1018724808/estYawDrift.o
 .debug_line      0x0006f0        0x515 build/default/production/_ext/1018724808/gpsParseCommon.o
 .debug_line      0x000c05         0x85 build/default/production/_ext/1018724808/gpsParseMTEK.o
 .debug_line      0x000c8a         0x85 build/default/production/_ext/1018724808/gpsParseSTD.o
 .debug_line      0x000d0f         0x85 build/default/production/_ext/1018724808/gpsParseUBX.o
 .debug_line      0x000d94        0x31b build/default/production/_ext/1018724808/libDCM.o
 .debug_line      0x0010af        0x67d build/default/production/_ext/1018724808/mathlibNAV.o
 .debug_line      0x00172c        0x76c build/default/production/_ext/1018724808/rmat.o
 .debug_line      0x001e98         0x85 build/default/production/_ext/1018724808/rmat_obj.o
 .debug_line      0x001f1d        0xb63 build/default/production/_ext/1018724808/gpsParseNMEA.o
 .debug_line      0x002a80         0x59 build/default/production/_ext/1018708451/traps_udb4_asm.o
 .debug_line      0x002ad9        0x4d9 build/default/production/_ext/1018708451/background.o
 .debug_line      0x002fb2        0x4a3 build/default/production/_ext/1018708451/eeprom_udb4.o
 .debug_line      0x003455        0x37f build/default/production/_ext/1018708451/events.o
 .debug_line      0x0037d4        0x10c build/default/production/_ext/1018708451/filters.o
 .debug_line      0x0038e0         0x85 build/default/production/_ext/1018708451/I2C_udb4.o
 .debug_line      0x003965        0x32f build/default/production/_ext/1018708451/libUDB.o
 .debug_line      0x003c94         0xa1 build/default/production/_ext/1018708451/magneto_udb4.o
 .debug_line      0x003d35        0x210 build/default/production/_ext/1018708451/mpu6000.o
 .debug_line      0x003f45         0x85 build/default/production/_ext/1018708451/osd.o
 .debug_line      0x003fca        0x297 build/default/production/_ext/1018708451/radioIn_udb4.o
 .debug_line      0x004261        0x2e2 build/default/production/_ext/1018708451/spiUtils.o
 .debug_line      0x004543         0x85 build/default/production/_ext/1018708451/24xxEEPROM.o
 .debug_line      0x0045c8         0x85 build/default/production/_ext/682965384/data_services.o
 .debug_line      0x00464d         0x85 build/default/production/_ext/682965384/data_storage.o
 .debug_line      0x0046d2        0x207 build/default/production/_ext/682965384/euler_angles.o
 .debug_line      0x0048d9         0x85 build/default/production/_ext/682965384/MAVLink.o
 .debug_line      0x00495e         0x85 build/default/production/_ext/682965384/nv_memory_table.o
 .debug_line      0x0049e3         0x85 build/default/production/_ext/682965384/parameter_table.o
 .debug_line      0x004a68        0x74d build/default/production/_ext/682965384/states.o
 .debug_line      0x0051b5        0x2da build/default/production/_ext/682965384/mode_switch.o
 .debug_line      0x00548f         0x85 build/default/production/_ext/682965384/airspeedCntrl.o
 .debug_line      0x005514        0x4c7 build/default/production/_ext/682965384/altitudeCntrl.o
 .debug_line      0x0059db         0x85 build/default/production/_ext/682965384/altitudeCntrlVariable.o
 .debug_line      0x005a60        0x3f7 build/default/production/_ext/682965384/behavior.o
 .debug_line      0x005e57        0x247 build/default/production/_ext/682965384/cameraCntrl.o
 .debug_line      0x00609e         0x85 build/default/production/_ext/682965384/config_tests.o
 .debug_line      0x006123         0x85 build/default/production/_ext/682965384/flightplan-logo.o
 .debug_line      0x0061a8        0x4f3 build/default/production/_ext/682965384/flightplan-waypoints.o
 .debug_line      0x00669b         0x85 build/default/production/_ext/682965384/mp_osd.o
 .debug_line      0x006720        0x5ce build/default/production/_ext/682965384/navigate.o
 .debug_line      0x006cee        0x3dd build/default/production/_ext/682965384/pitchCntrl.o
 .debug_line      0x0070cb        0x2e1 build/default/production/_ext/682965384/rollCntrl.o
 .debug_line      0x0073ac        0x259 build/default/production/_ext/682965384/servoMix.o
 .debug_line      0x007605        0x193 build/default/production/_ext/682965384/servoPrepare.o
 .debug_line      0x007798        0x33b build/default/production/_ext/682965384/yawCntrl.o
 .debug_line      0x007ad3        0x4bd build/default/production/main.o
 .debug_line      0x007f90        0xa06 build/default/production/motorCntrl.o
 .debug_line      0x008996        0x76b build/default/production/telemetry.o
 .debug_line      0x009101        0x32f build/default/production/servoOut.o
 .debug_line      0x009430        0x547 build/default/production/serialIO_udb4.o
 .debug_line      0x009977        0x3f4 build/default/production/_ext/1018708451/analog2digital_udb4.o

.debug_frame      0x000000       0x1534
 *(.debug_frame)
 .debug_frame     0x000000         0x34 build/default/production/_ext/1018724808/deadReckoning.o
 .debug_frame     0x000034         0x24 build/default/production/_ext/1018724808/estWind.o
 .debug_frame     0x000058         0x34 build/default/production/_ext/1018724808/estYawDrift.o
 .debug_frame     0x00008c         0x64 build/default/production/_ext/1018724808/gpsParseCommon.o
 .debug_frame     0x0000f0         0x84 build/default/production/_ext/1018724808/libDCM.o
 .debug_frame     0x000174         0xd4 build/default/production/_ext/1018724808/mathlibNAV.o
 .debug_frame     0x000248         0xe4 build/default/production/_ext/1018724808/rmat.o
 .debug_frame     0x00032c        0x1a4 build/default/production/_ext/1018724808/gpsParseNMEA.o
 .debug_frame     0x0004d0         0x84 build/default/production/_ext/1018708451/background.o
 .debug_frame     0x000554         0xd4 build/default/production/_ext/1018708451/eeprom_udb4.o
 .debug_frame     0x000628         0x74 build/default/production/_ext/1018708451/events.o
 .debug_frame     0x00069c         0x34 build/default/production/_ext/1018708451/filters.o
 .debug_frame     0x0006d0         0x94 build/default/production/_ext/1018708451/libUDB.o
 .debug_frame     0x000764         0xa4 build/default/production/_ext/1018708451/mpu6000.o
 .debug_frame     0x000808         0x44 build/default/production/_ext/1018708451/radioIn_udb4.o
 .debug_frame     0x00084c         0x54 build/default/production/_ext/1018708451/spiUtils.o
 .debug_frame     0x0008a0         0x24 build/default/production/_ext/682965384/euler_angles.o
 .debug_frame     0x0008c4        0x114 build/default/production/_ext/682965384/states.o
 .debug_frame     0x0009d8         0x64 build/default/production/_ext/682965384/mode_switch.o
 .debug_frame     0x000a3c         0x84 build/default/production/_ext/682965384/altitudeCntrl.o
 .debug_frame     0x000ac0         0x84 build/default/production/_ext/682965384/behavior.o
 .debug_frame     0x000b44         0x64 build/default/production/_ext/682965384/cameraCntrl.o
 .debug_frame     0x000ba8        0x184 build/default/production/_ext/682965384/flightplan-waypoints.o
 .debug_frame     0x000d2c         0x94 build/default/production/_ext/682965384/navigate.o
 .debug_frame     0x000dc0         0x44 build/default/production/_ext/682965384/pitchCntrl.o
 .debug_frame     0x000e04         0x44 build/default/production/_ext/682965384/rollCntrl.o
 .debug_frame     0x000e48         0x34 build/default/production/_ext/682965384/servoMix.o
 .debug_frame     0x000e7c         0x24 build/default/production/_ext/682965384/servoPrepare.o
 .debug_frame     0x000ea0         0x44 build/default/production/_ext/682965384/yawCntrl.o
 .debug_frame     0x000ee4         0xc4 build/default/production/main.o
 .debug_frame     0x000fa8        0x104 build/default/production/motorCntrl.o
 .debug_frame     0x0010ac        0x2ec build/default/production/telemetry.o
 .debug_frame     0x001398         0x64 build/default/production/servoOut.o
 .debug_frame     0x0013fc         0xd4 build/default/production/serialIO_udb4.o
 .debug_frame     0x0014d0         0x64 build/default/production/_ext/1018708451/analog2digital_udb4.o

.debug_str        0x000000       0x1cad
 *(.debug_str)
 .debug_str       0x000000        0x1ac build/default/production/_ext/1018724808/deadReckoning.o
 .debug_str       0x0001ac         0x12 build/default/production/_ext/1018724808/estWind.o
 .debug_str       0x0001be         0x6d build/default/production/_ext/1018724808/estYawDrift.o
 .debug_str       0x00022b        0x1f2 build/default/production/_ext/1018724808/gpsParseCommon.o
 .debug_str       0x00041d         0x12 build/default/production/_ext/1018724808/gpsParseMTEK.o
 .debug_str       0x00042f         0x12 build/default/production/_ext/1018724808/gpsParseSTD.o
 .debug_str       0x000441         0x12 build/default/production/_ext/1018724808/gpsParseUBX.o
 .debug_str       0x000453         0x5e build/default/production/_ext/1018724808/libDCM.o
 .debug_str       0x0004b1         0x62 build/default/production/_ext/1018724808/mathlibNAV.o
 .debug_str       0x000513        0x1d4 build/default/production/_ext/1018724808/rmat.o
 .debug_str       0x0006e7         0x12 build/default/production/_ext/1018724808/rmat_obj.o
 .debug_str       0x0006f9         0xe5 build/default/production/_ext/1018724808/gpsParseNMEA.o
 .debug_str       0x0007de        0x153 build/default/production/_ext/1018708451/background.o
 .debug_str       0x000931         0x74 build/default/production/_ext/1018708451/eeprom_udb4.o
 .debug_str       0x0009a5         0xad build/default/production/_ext/1018708451/events.o
 .debug_str       0x000a52         0x12 build/default/production/_ext/1018708451/I2C_udb4.o
 .debug_str       0x000a64         0xb6 build/default/production/_ext/1018708451/libUDB.o
 .debug_str       0x000b1a         0x12 build/default/production/_ext/1018708451/magneto_udb4.o
 .debug_str       0x000b2c         0x9d build/default/production/_ext/1018708451/mpu6000.o
 .debug_str       0x000bc9         0x12 build/default/production/_ext/1018708451/osd.o
 .debug_str       0x000bdb         0xc1 build/default/production/_ext/1018708451/radioIn_udb4.o
 .debug_str       0x000c9c         0x28 build/default/production/_ext/1018708451/spiUtils.o
 .debug_str       0x000cc4         0x12 build/default/production/_ext/1018708451/24xxEEPROM.o
 .debug_str       0x000cd6         0x12 build/default/production/_ext/682965384/data_services.o
 .debug_str       0x000ce8         0x12 build/default/production/_ext/682965384/data_storage.o
 .debug_str       0x000cfa         0x12 build/default/production/_ext/682965384/euler_angles.o
 .debug_str       0x000d0c         0x12 build/default/production/_ext/682965384/MAVLink.o
 .debug_str       0x000d1e         0x12 build/default/production/_ext/682965384/nv_memory_table.o
 .debug_str       0x000d30         0x12 build/default/production/_ext/682965384/parameter_table.o
 .debug_str       0x000d42         0xa9 build/default/production/_ext/682965384/states.o
 .debug_str       0x000deb         0x25 build/default/production/_ext/682965384/mode_switch.o
 .debug_str       0x000e10         0x12 build/default/production/_ext/682965384/airspeedCntrl.o
 .debug_str       0x000e22         0xf8 build/default/production/_ext/682965384/altitudeCntrl.o
 .debug_str       0x000f1a         0x12 build/default/production/_ext/682965384/altitudeCntrlVariable.o
 .debug_str       0x000f2c         0x96 build/default/production/_ext/682965384/behavior.o
 .debug_str       0x000fc2         0xa9 build/default/production/_ext/682965384/cameraCntrl.o
 .debug_str       0x00106b         0x12 build/default/production/_ext/682965384/config_tests.o
 .debug_str       0x00107d         0x12 build/default/production/_ext/682965384/flightplan-logo.o
 .debug_str       0x00108f         0xf2 build/default/production/_ext/682965384/flightplan-waypoints.o
 .debug_str       0x001181         0x12 build/default/production/_ext/682965384/mp_osd.o
 .debug_str       0x001193         0xff build/default/production/_ext/682965384/navigate.o
 .debug_str       0x001292        0x112 build/default/production/_ext/682965384/pitchCntrl.o
 .debug_str       0x0013a4         0x83 build/default/production/_ext/682965384/rollCntrl.o
 .debug_str       0x001427         0x9c build/default/production/_ext/682965384/servoMix.o
 .debug_str       0x0014c3         0x4f build/default/production/_ext/682965384/servoPrepare.o
 .debug_str       0x001512         0xb6 build/default/production/_ext/682965384/yawCntrl.o
 .debug_str       0x0015c8         0xdd build/default/production/main.o
 .debug_str       0x0016a5        0x1ef build/default/production/motorCntrl.o
 .debug_str       0x001894        0x13f build/default/production/telemetry.o
 .debug_str       0x0019d3         0xb7 build/default/production/servoOut.o
 .debug_str       0x001a8a         0xd0 build/default/production/serialIO_udb4.o
 .debug_str       0x001b5a        0x153 build/default/production/_ext/1018708451/analog2digital_udb4.o

.debug_loc
 *(.debug_loc)

.debug_macinfo
 *(.debug_macinfo)

.debug_pubnames
                  0x000000       0x29cd
 *(.debug_pubnames)
 .debug_pubnames
                  0x000000        0x20c build/default/production/_ext/1018724808/deadReckoning.o
 .debug_pubnames
                  0x00020c         0x6c build/default/production/_ext/1018724808/estWind.o
 .debug_pubnames
                  0x000278         0x46 build/default/production/_ext/1018724808/estYawDrift.o
 .debug_pubnames
                  0x0002be        0x338 build/default/production/_ext/1018724808/gpsParseCommon.o
 .debug_pubnames
                  0x0005f6         0xd3 build/default/production/_ext/1018724808/libDCM.o
 .debug_pubnames
                  0x0006c9         0xd5 build/default/production/_ext/1018724808/mathlibNAV.o
 .debug_pubnames
                  0x00079e        0x2e9 build/default/production/_ext/1018724808/rmat.o
 .debug_pubnames
                  0x000a87        0x324 build/default/production/_ext/1018724808/gpsParseNMEA.o
 .debug_pubnames
                  0x000dab         0xf6 build/default/production/_ext/1018708451/background.o
 .debug_pubnames
                  0x000ea1         0xd3 build/default/production/_ext/1018708451/eeprom_udb4.o
 .debug_pubnames
                  0x000f74         0x9d build/default/production/_ext/1018708451/events.o
 .debug_pubnames
                  0x001011         0x32 build/default/production/_ext/1018708451/filters.o
 .debug_pubnames
                  0x001043        0x192 build/default/production/_ext/1018708451/libUDB.o
 .debug_pubnames
                  0x0011d5         0x40 build/default/production/_ext/1018708451/magneto_udb4.o
 .debug_pubnames
                  0x001215         0x73 build/default/production/_ext/1018708451/mpu6000.o
 .debug_pubnames
                  0x001288         0x8e build/default/production/_ext/1018708451/radioIn_udb4.o
 .debug_pubnames
                  0x001316         0x63 build/default/production/_ext/1018708451/spiUtils.o
 .debug_pubnames
                  0x001379         0x2c build/default/production/_ext/682965384/euler_angles.o
 .debug_pubnames
                  0x0013a5        0x178 build/default/production/_ext/682965384/states.o
 .debug_pubnames
                  0x00151d         0xaa build/default/production/_ext/682965384/mode_switch.o
 .debug_pubnames
                  0x0015c7        0x10f build/default/production/_ext/682965384/altitudeCntrl.o
 .debug_pubnames
                  0x0016d6        0x136 build/default/production/_ext/682965384/behavior.o
 .debug_pubnames
                  0x00180c        0x1c1 build/default/production/_ext/682965384/cameraCntrl.o
 .debug_pubnames
                  0x0019cd        0x17a build/default/production/_ext/682965384/flightplan-waypoints.o
 .debug_pubnames
                  0x001b47        0x13f build/default/production/_ext/682965384/navigate.o
 .debug_pubnames
                  0x001c86         0xdd build/default/production/_ext/682965384/pitchCntrl.o
 .debug_pubnames
                  0x001d63         0x8a build/default/production/_ext/682965384/rollCntrl.o
 .debug_pubnames
                  0x001ded         0x65 build/default/production/_ext/682965384/servoMix.o
 .debug_pubnames
                  0x001e52         0x54 build/default/production/_ext/682965384/servoPrepare.o
 .debug_pubnames
                  0x001ea6         0x8b build/default/production/_ext/682965384/yawCntrl.o
 .debug_pubnames
                  0x001f31        0x105 build/default/production/main.o
 .debug_pubnames
                  0x002036        0x577 build/default/production/motorCntrl.o
 .debug_pubnames
                  0x0025ad        0x175 build/default/production/telemetry.o
 .debug_pubnames
                  0x002722         0x8a build/default/production/servoOut.o
 .debug_pubnames
                  0x0027ac        0x131 build/default/production/serialIO_udb4.o
 .debug_pubnames
                  0x0028dd         0xf0 build/default/production/_ext/1018708451/analog2digital_udb4.o

.debug_ranges
 *(.debug_ranges)

.debug_aranges    0x000000        0x360
 *(.debug_aranges)
 .debug_aranges
                  0x000000         0x18 build/default/production/_ext/1018724808/deadReckoning.o
 .debug_aranges
                  0x000018         0x18 build/default/production/_ext/1018724808/estWind.o
 .debug_aranges
                  0x000030         0x18 build/default/production/_ext/1018724808/estYawDrift.o
 .debug_aranges
                  0x000048         0x18 build/default/production/_ext/1018724808/gpsParseCommon.o
 .debug_aranges
                  0x000060         0x18 build/default/production/_ext/1018724808/libDCM.o
 .debug_aranges
                  0x000078         0x18 build/default/production/_ext/1018724808/mathlibNAV.o
 .debug_aranges
                  0x000090         0x18 build/default/production/_ext/1018724808/rmat.o
 .debug_aranges
                  0x0000a8         0x18 build/default/production/_ext/1018724808/gpsParseNMEA.o
 .debug_aranges
                  0x0000c0         0x18 build/default/production/_ext/1018708451/traps_udb4_asm.o
 .debug_aranges
                  0x0000d8         0x18 build/default/production/_ext/1018708451/background.o
 .debug_aranges
                  0x0000f0         0x18 build/default/production/_ext/1018708451/eeprom_udb4.o
 .debug_aranges
                  0x000108         0x18 build/default/production/_ext/1018708451/events.o
 .debug_aranges
                  0x000120         0x18 build/default/production/_ext/1018708451/filters.o
 .debug_aranges
                  0x000138         0x18 build/default/production/_ext/1018708451/libUDB.o
 .debug_aranges
                  0x000150         0x18 build/default/production/_ext/1018708451/mpu6000.o
 .debug_aranges
                  0x000168         0x18 build/default/production/_ext/1018708451/radioIn_udb4.o
 .debug_aranges
                  0x000180         0x18 build/default/production/_ext/1018708451/spiUtils.o
 .debug_aranges
                  0x000198         0x18 build/default/production/_ext/682965384/euler_angles.o
 .debug_aranges
                  0x0001b0         0x18 build/default/production/_ext/682965384/states.o
 .debug_aranges
                  0x0001c8         0x18 build/default/production/_ext/682965384/mode_switch.o
 .debug_aranges
                  0x0001e0         0x18 build/default/production/_ext/682965384/altitudeCntrl.o
 .debug_aranges
                  0x0001f8         0x18 build/default/production/_ext/682965384/behavior.o
 .debug_aranges
                  0x000210         0x18 build/default/production/_ext/682965384/cameraCntrl.o
 .debug_aranges
                  0x000228         0x18 build/default/production/_ext/682965384/flightplan-waypoints.o
 .debug_aranges
                  0x000240         0x18 build/default/production/_ext/682965384/navigate.o
 .debug_aranges
                  0x000258         0x18 build/default/production/_ext/682965384/pitchCntrl.o
 .debug_aranges
                  0x000270         0x18 build/default/production/_ext/682965384/rollCntrl.o
 .debug_aranges
                  0x000288         0x18 build/default/production/_ext/682965384/servoMix.o
 .debug_aranges
                  0x0002a0         0x18 build/default/production/_ext/682965384/servoPrepare.o
 .debug_aranges
                  0x0002b8         0x18 build/default/production/_ext/682965384/yawCntrl.o
 .debug_aranges
                  0x0002d0         0x18 build/default/production/main.o
 .debug_aranges
                  0x0002e8         0x18 build/default/production/motorCntrl.o
 .debug_aranges
                  0x000300         0x18 build/default/production/telemetry.o
 .debug_aranges
                  0x000318         0x18 build/default/production/servoOut.o
 .debug_aranges
                  0x000330         0x18 build/default/production/serialIO_udb4.o
 .debug_aranges
                  0x000348         0x18 build/default/production/_ext/1018708451/analog2digital_udb4.o

.ivt              0x000004         0xfc
                  0x000004          0x4 LONG 0x8194 DEFINED (__ReservedTrap0)?ABSOLUTE (__ReservedTrap0):ABSOLUTE (__DefaultInterrupt)
                  0x000006          0x4 LONG 0x818a DEFINED (__OscillatorFail)?ABSOLUTE (__OscillatorFail):ABSOLUTE (__DefaultInterrupt)
                  0x000008          0x4 LONG 0x8186 DEFINED (__AddressError)?ABSOLUTE (__AddressError):ABSOLUTE (__DefaultInterrupt)
                  0x00000a          0x4 LONG 0x8182 DEFINED (__StackError)?ABSOLUTE (__StackError):ABSOLUTE (__DefaultInterrupt)
                  0x00000c          0x4 LONG 0x817e DEFINED (__MathError)?ABSOLUTE (__MathError):ABSOLUTE (__DefaultInterrupt)
                  0x00000e          0x4 LONG 0x8190 DEFINED (__DMACError)?ABSOLUTE (__DMACError):ABSOLUTE (__DefaultInterrupt)
                  0x000010          0x4 LONG 0x8194 DEFINED (__ReservedTrap6)?ABSOLUTE (__ReservedTrap6):ABSOLUTE (__DefaultInterrupt)
                  0x000012          0x4 LONG 0x8194 DEFINED (__ReservedTrap7)?ABSOLUTE (__ReservedTrap7):ABSOLUTE (__DefaultInterrupt)
                  0x000014          0x4 LONG 0x8194 DEFINED (__INT0Interrupt)?ABSOLUTE (__INT0Interrupt):ABSOLUTE (__DefaultInterrupt)
                  0x000016          0x4 LONG 0x7a18 DEFINED (__IC1Interrupt)?ABSOLUTE (__IC1Interrupt):ABSOLUTE (__DefaultInterrupt)
                  0x000018          0x4 LONG 0x8194 DEFINED (__OC1Interrupt)?ABSOLUTE (__OC1Interrupt):ABSOLUTE (__DefaultInterrupt)
                  0x00001a          0x4 LONG 0x67e4 DEFINED (__T1Interrupt)?ABSOLUTE (__T1Interrupt):ABSOLUTE (__DefaultInterrupt)
                  0x00001c          0x4 LONG 0x8194 DEFINED (__DMA0Interrupt)?ABSOLUTE (__DMA0Interrupt):ABSOLUTE (__DefaultInterrupt)
                  0x00001e          0x4 LONG 0x8194 DEFINED (__IC2Interrupt)?ABSOLUTE (__IC2Interrupt):ABSOLUTE (__DefaultInterrupt)
                  0x000020          0x4 LONG 0x8194 DEFINED (__OC2Interrupt)?ABSOLUTE (__OC2Interrupt):ABSOLUTE (__DefaultInterrupt)
                  0x000022          0x4 LONG 0x8194 DEFINED (__T2Interrupt)?ABSOLUTE (__T2Interrupt):ABSOLUTE (__DefaultInterrupt)
                  0x000024          0x4 LONG 0x72c0 DEFINED (__T3Interrupt)?ABSOLUTE (__T3Interrupt):ABSOLUTE (__DefaultInterrupt)
                  0x000026          0x4 LONG 0x8194 DEFINED (__SPI1ErrInterrupt)?ABSOLUTE (__SPI1ErrInterrupt):ABSOLUTE (__DefaultInterrupt)
                  0x000028          0x4 LONG 0x8194 DEFINED (__SPI1Interrupt)?ABSOLUTE (__SPI1Interrupt):ABSOLUTE (__DefaultInterrupt)
                  0x00002a          0x4 LONG 0x62f0 DEFINED (__U1RXInterrupt)?ABSOLUTE (__U1RXInterrupt):ABSOLUTE (__DefaultInterrupt)
                  0x00002c          0x4 LONG 0x629c DEFINED (__U1TXInterrupt)?ABSOLUTE (__U1TXInterrupt):ABSOLUTE (__DefaultInterrupt)
                  0x00002e          0x4 LONG 0x8194 DEFINED (__ADC1Interrupt)?ABSOLUTE (__ADC1Interrupt):ABSOLUTE (__DefaultInterrupt)
                  0x000030          0x4 LONG 0x8194 DEFINED (__DMA1Interrupt)?ABSOLUTE (__DMA1Interrupt):ABSOLUTE (__DefaultInterrupt)
                  0x000032          0x4 LONG 0x8194 DEFINED (__Interrupt15)?ABSOLUTE (__Interrupt15):ABSOLUTE (__DefaultInterrupt)
                  0x000034          0x4 LONG 0x8194 DEFINED (__SI2C1Interrupt)?ABSOLUTE (__SI2C1Interrupt):ABSOLUTE (__DefaultInterrupt)
                  0x000036          0x4 LONG 0x8194 DEFINED (__MI2C1Interrupt)?ABSOLUTE (__MI2C1Interrupt):ABSOLUTE (__DefaultInterrupt)
                  0x000038          0x4 LONG 0x8194 DEFINED (__Interrupt18)?ABSOLUTE (__Interrupt18):ABSOLUTE (__DefaultInterrupt)
                  0x00003a          0x4 LONG 0x8194 DEFINED (__CNInterrupt)?ABSOLUTE (__CNInterrupt):ABSOLUTE (__DefaultInterrupt)
                  0x00003c          0x4 LONG 0x7db2 DEFINED (__INT1Interrupt)?ABSOLUTE (__INT1Interrupt):ABSOLUTE (__DefaultInterrupt)
                  0x00003e          0x4 LONG 0x7090 DEFINED (__ADC2Interrupt)?ABSOLUTE (__ADC2Interrupt):ABSOLUTE (__DefaultInterrupt)
                  0x000040          0x4 LONG 0x8194 DEFINED (__IC7Interrupt)?ABSOLUTE (__IC7Interrupt):ABSOLUTE (__DefaultInterrupt)
                  0x000042          0x4 LONG 0x8194 DEFINED (__IC8Interrupt)?ABSOLUTE (__IC8Interrupt):ABSOLUTE (__DefaultInterrupt)
                  0x000044          0x4 LONG 0x8194 DEFINED (__DMA2Interrupt)?ABSOLUTE (__DMA2Interrupt):ABSOLUTE (__DefaultInterrupt)
                  0x000046          0x4 LONG 0x8194 DEFINED (__OC3Interrupt)?ABSOLUTE (__OC3Interrupt):ABSOLUTE (__DefaultInterrupt)
                  0x000048          0x4 LONG 0x8194 DEFINED (__OC4Interrupt)?ABSOLUTE (__OC4Interrupt):ABSOLUTE (__DefaultInterrupt)
                  0x00004a          0x4 LONG 0x8194 DEFINED (__T4Interrupt)?ABSOLUTE (__T4Interrupt):ABSOLUTE (__DefaultInterrupt)
                  0x00004c          0x4 LONG 0x68fe DEFINED (__T5Interrupt)?ABSOLUTE (__T5Interrupt):ABSOLUTE (__DefaultInterrupt)
                  0x00004e          0x4 LONG 0x8194 DEFINED (__INT2Interrupt)?ABSOLUTE (__INT2Interrupt):ABSOLUTE (__DefaultInterrupt)
                  0x000050          0x4 LONG 0x6450 DEFINED (__U2RXInterrupt)?ABSOLUTE (__U2RXInterrupt):ABSOLUTE (__DefaultInterrupt)
                  0x000052          0x4 LONG 0x63fc DEFINED (__U2TXInterrupt)?ABSOLUTE (__U2TXInterrupt):ABSOLUTE (__DefaultInterrupt)
                  0x000054          0x4 LONG 0x8194 DEFINED (__SPI2ErrInterrupt)?ABSOLUTE (__SPI2ErrInterrupt):ABSOLUTE (__DefaultInterrupt)
                  0x000056          0x4 LONG 0x8194 DEFINED (__SPI2Interrupt)?ABSOLUTE (__SPI2Interrupt):ABSOLUTE (__DefaultInterrupt)
                  0x000058          0x4 LONG 0x8194 DEFINED (__C1RxRdyInterrupt)?ABSOLUTE (__C1RxRdyInterrupt):ABSOLUTE (__DefaultInterrupt)
                  0x00005a          0x4 LONG 0x6b50 DEFINED (__C1Interrupt)?ABSOLUTE (__C1Interrupt):ABSOLUTE (__DefaultInterrupt)
                  0x00005c          0x4 LONG 0x8194 DEFINED (__DMA3Interrupt)?ABSOLUTE (__DMA3Interrupt):ABSOLUTE (__DefaultInterrupt)
                  0x00005e          0x4 LONG 0x8194 DEFINED (__IC3Interrupt)?ABSOLUTE (__IC3Interrupt):ABSOLUTE (__DefaultInterrupt)
                  0x000060          0x4 LONG 0x8194 DEFINED (__IC4Interrupt)?ABSOLUTE (__IC4Interrupt):ABSOLUTE (__DefaultInterrupt)
                  0x000062          0x4 LONG 0x8194 DEFINED (__IC5Interrupt)?ABSOLUTE (__IC5Interrupt):ABSOLUTE (__DefaultInterrupt)
                  0x000064          0x4 LONG 0x8194 DEFINED (__IC6Interrupt)?ABSOLUTE (__IC6Interrupt):ABSOLUTE (__DefaultInterrupt)
                  0x000066          0x4 LONG 0x8194 DEFINED (__OC5Interrupt)?ABSOLUTE (__OC5Interrupt):ABSOLUTE (__DefaultInterrupt)
                  0x000068          0x4 LONG 0x8194 DEFINED (__OC6Interrupt)?ABSOLUTE (__OC6Interrupt):ABSOLUTE (__DefaultInterrupt)
                  0x00006a          0x4 LONG 0x8194 DEFINED (__OC7Interrupt)?ABSOLUTE (__OC7Interrupt):ABSOLUTE (__DefaultInterrupt)
                  0x00006c          0x4 LONG 0x8194 DEFINED (__OC8Interrupt)?ABSOLUTE (__OC8Interrupt):ABSOLUTE (__DefaultInterrupt)
                  0x00006e          0x4 LONG 0x8194 DEFINED (__Interrupt45)?ABSOLUTE (__Interrupt45):ABSOLUTE (__DefaultInterrupt)
                  0x000070          0x4 LONG 0x8194 DEFINED (__DMA4Interrupt)?ABSOLUTE (__DMA4Interrupt):ABSOLUTE (__DefaultInterrupt)
                  0x000072          0x4 LONG 0x6938 DEFINED (__T6Interrupt)?ABSOLUTE (__T6Interrupt):ABSOLUTE (__DefaultInterrupt)
                  0x000074          0x4 LONG 0x68a8 DEFINED (__T7Interrupt)?ABSOLUTE (__T7Interrupt):ABSOLUTE (__DefaultInterrupt)
                  0x000076          0x4 LONG 0x8194 DEFINED (__SI2C2Interrupt)?ABSOLUTE (__SI2C2Interrupt):ABSOLUTE (__DefaultInterrupt)
                  0x000078          0x4 LONG 0x8194 DEFINED (__MI2C2Interrupt)?ABSOLUTE (__MI2C2Interrupt):ABSOLUTE (__DefaultInterrupt)
                  0x00007a          0x4 LONG 0x8194 DEFINED (__T8Interrupt)?ABSOLUTE (__T8Interrupt):ABSOLUTE (__DefaultInterrupt)
                  0x00007c          0x4 LONG 0x8194 DEFINED (__T9Interrupt)?ABSOLUTE (__T9Interrupt):ABSOLUTE (__DefaultInterrupt)
                  0x00007e          0x4 LONG 0x8194 DEFINED (__INT3Interrupt)?ABSOLUTE (__INT3Interrupt):ABSOLUTE (__DefaultInterrupt)
                  0x000080          0x4 LONG 0x8194 DEFINED (__INT4Interrupt)?ABSOLUTE (__INT4Interrupt):ABSOLUTE (__DefaultInterrupt)
                  0x000082          0x4 LONG 0x8194 DEFINED (__C2RxRdyInterrupt)?ABSOLUTE (__C2RxRdyInterrupt):ABSOLUTE (__DefaultInterrupt)
                  0x000084          0x4 LONG 0x6acc DEFINED (__C2Interrupt)?ABSOLUTE (__C2Interrupt):ABSOLUTE (__DefaultInterrupt)
                  0x000086          0x4 LONG 0x8194 DEFINED (__Interrupt57)?ABSOLUTE (__Interrupt57):ABSOLUTE (__DefaultInterrupt)
                  0x000088          0x4 LONG 0x8194 DEFINED (__Interrupt58)?ABSOLUTE (__Interrupt58):ABSOLUTE (__DefaultInterrupt)
                  0x00008a          0x4 LONG 0x8194 DEFINED (__DCIErrInterrupt)?ABSOLUTE (__DCIErrInterrupt):ABSOLUTE (__DefaultInterrupt)
                  0x00008c          0x4 LONG 0x8194 DEFINED (__DCIInterrupt)?ABSOLUTE (__DCIInterrupt):ABSOLUTE (__DefaultInterrupt)
                  0x00008e          0x4 LONG 0x8194 DEFINED (__DMA5Interrupt)?ABSOLUTE (__DMA5Interrupt):ABSOLUTE (__DefaultInterrupt)
                  0x000090          0x4 LONG 0x8194 DEFINED (__Interrupt62)?ABSOLUTE (__Interrupt62):ABSOLUTE (__DefaultInterrupt)
                  0x000092          0x4 LONG 0x8194 DEFINED (__Interrupt63)?ABSOLUTE (__Interrupt63):ABSOLUTE (__DefaultInterrupt)
                  0x000094          0x4 LONG 0x8194 DEFINED (__Interrupt64)?ABSOLUTE (__Interrupt64):ABSOLUTE (__DefaultInterrupt)
                  0x000096          0x4 LONG 0x8194 DEFINED (__U1ErrInterrupt)?ABSOLUTE (__U1ErrInterrupt):ABSOLUTE (__DefaultInterrupt)
                  0x000098          0x4 LONG 0x8194 DEFINED (__U2ErrInterrupt)?ABSOLUTE (__U2ErrInterrupt):ABSOLUTE (__DefaultInterrupt)
                  0x00009a          0x4 LONG 0x8194 DEFINED (__Interrupt67)?ABSOLUTE (__Interrupt67):ABSOLUTE (__DefaultInterrupt)
                  0x00009c          0x4 LONG 0x8194 DEFINED (__DMA6Interrupt)?ABSOLUTE (__DMA6Interrupt):ABSOLUTE (__DefaultInterrupt)
                  0x00009e          0x4 LONG 0x8194 DEFINED (__DMA7Interrupt)?ABSOLUTE (__DMA7Interrupt):ABSOLUTE (__DefaultInterrupt)
                  0x0000a0          0x4 LONG 0x8194 DEFINED (__C1TxReqInterrupt)?ABSOLUTE (__C1TxReqInterrupt):ABSOLUTE (__DefaultInterrupt)
                  0x0000a2          0x4 LONG 0x8194 DEFINED (__C2TxReqInterrupt)?ABSOLUTE (__C2TxReqInterrupt):ABSOLUTE (__DefaultInterrupt)
                  0x0000a4          0x4 LONG 0x8194 DEFINED (__Interrupt72)?ABSOLUTE (__Interrupt72):ABSOLUTE (__DefaultInterrupt)
                  0x0000a6          0x4 LONG 0x8194 DEFINED (__Interrupt73)?ABSOLUTE (__Interrupt73):ABSOLUTE (__DefaultInterrupt)
                  0x0000a8          0x4 LONG 0x8194 DEFINED (__Interrupt74)?ABSOLUTE (__Interrupt74):ABSOLUTE (__DefaultInterrupt)
                  0x0000aa          0x4 LONG 0x8194 DEFINED (__Interrupt75)?ABSOLUTE (__Interrupt75):ABSOLUTE (__DefaultInterrupt)
                  0x0000ac          0x4 LONG 0x8194 DEFINED (__Interrupt76)?ABSOLUTE (__Interrupt76):ABSOLUTE (__DefaultInterrupt)
                  0x0000ae          0x4 LONG 0x8194 DEFINED (__Interrupt77)?ABSOLUTE (__Interrupt77):ABSOLUTE (__DefaultInterrupt)
                  0x0000b0          0x4 LONG 0x8194 DEFINED (__Interrupt78)?ABSOLUTE (__Interrupt78):ABSOLUTE (__DefaultInterrupt)
                  0x0000b2          0x4 LONG 0x8194 DEFINED (__Interrupt79)?ABSOLUTE (__Interrupt79):ABSOLUTE (__DefaultInterrupt)
                  0x0000b4          0x4 LONG 0x8194 DEFINED (__Interrupt80)?ABSOLUTE (__Interrupt80):ABSOLUTE (__DefaultInterrupt)
                  0x0000b6          0x4 LONG 0x8194 DEFINED (__Interrupt81)?ABSOLUTE (__Interrupt81):ABSOLUTE (__DefaultInterrupt)
                  0x0000b8          0x4 LONG 0x8194 DEFINED (__Interrupt82)?ABSOLUTE (__Interrupt82):ABSOLUTE (__DefaultInterrupt)
                  0x0000ba          0x4 LONG 0x8194 DEFINED (__Interrupt83)?ABSOLUTE (__Interrupt83):ABSOLUTE (__DefaultInterrupt)
                  0x0000bc          0x4 LONG 0x8194 DEFINED (__Interrupt84)?ABSOLUTE (__Interrupt84):ABSOLUTE (__DefaultInterrupt)
                  0x0000be          0x4 LONG 0x8194 DEFINED (__Interrupt85)?ABSOLUTE (__Interrupt85):ABSOLUTE (__DefaultInterrupt)
                  0x0000c0          0x4 LONG 0x8194 DEFINED (__Interrupt86)?ABSOLUTE (__Interrupt86):ABSOLUTE (__DefaultInterrupt)
                  0x0000c2          0x4 LONG 0x8194 DEFINED (__Interrupt87)?ABSOLUTE (__Interrupt87):ABSOLUTE (__DefaultInterrupt)
                  0x0000c4          0x4 LONG 0x8194 DEFINED (__Interrupt88)?ABSOLUTE (__Interrupt88):ABSOLUTE (__DefaultInterrupt)
                  0x0000c6          0x4 LONG 0x8194 DEFINED (__Interrupt89)?ABSOLUTE (__Interrupt89):ABSOLUTE (__DefaultInterrupt)
                  0x0000c8          0x4 LONG 0x8194 DEFINED (__Interrupt90)?ABSOLUTE (__Interrupt90):ABSOLUTE (__DefaultInterrupt)
                  0x0000ca          0x4 LONG 0x8194 DEFINED (__Interrupt91)?ABSOLUTE (__Interrupt91):ABSOLUTE (__DefaultInterrupt)
                  0x0000cc          0x4 LONG 0x8194 DEFINED (__Interrupt92)?ABSOLUTE (__Interrupt92):ABSOLUTE (__DefaultInterrupt)
                  0x0000ce          0x4 LONG 0x8194 DEFINED (__Interrupt93)?ABSOLUTE (__Interrupt93):ABSOLUTE (__DefaultInterrupt)
                  0x0000d0          0x4 LONG 0x8194 DEFINED (__Interrupt94)?ABSOLUTE (__Interrupt94):ABSOLUTE (__DefaultInterrupt)
                  0x0000d2          0x4 LONG 0x8194 DEFINED (__Interrupt95)?ABSOLUTE (__Interrupt95):ABSOLUTE (__DefaultInterrupt)
                  0x0000d4          0x4 LONG 0x8194 DEFINED (__Interrupt96)?ABSOLUTE (__Interrupt96):ABSOLUTE (__DefaultInterrupt)
                  0x0000d6          0x4 LONG 0x8194 DEFINED (__Interrupt97)?ABSOLUTE (__Interrupt97):ABSOLUTE (__DefaultInterrupt)
                  0x0000d8          0x4 LONG 0x8194 DEFINED (__Interrupt98)?ABSOLUTE (__Interrupt98):ABSOLUTE (__DefaultInterrupt)
                  0x0000da          0x4 LONG 0x8194 DEFINED (__Interrupt99)?ABSOLUTE (__Interrupt99):ABSOLUTE (__DefaultInterrupt)
                  0x0000dc          0x4 LONG 0x8194 DEFINED (__Interrupt100)?ABSOLUTE (__Interrupt100):ABSOLUTE (__DefaultInterrupt)
                  0x0000de          0x4 LONG 0x8194 DEFINED (__Interrupt101)?ABSOLUTE (__Interrupt101):ABSOLUTE (__DefaultInterrupt)
                  0x0000e0          0x4 LONG 0x8194 DEFINED (__Interrupt102)?ABSOLUTE (__Interrupt102):ABSOLUTE (__DefaultInterrupt)
                  0x0000e2          0x4 LONG 0x8194 DEFINED (__Interrupt103)?ABSOLUTE (__Interrupt103):ABSOLUTE (__DefaultInterrupt)
                  0x0000e4          0x4 LONG 0x8194 DEFINED (__Interrupt104)?ABSOLUTE (__Interrupt104):ABSOLUTE (__DefaultInterrupt)
                  0x0000e6          0x4 LONG 0x8194 DEFINED (__Interrupt105)?ABSOLUTE (__Interrupt105):ABSOLUTE (__DefaultInterrupt)
                  0x0000e8          0x4 LONG 0x8194 DEFINED (__Interrupt106)?ABSOLUTE (__Interrupt106):ABSOLUTE (__DefaultInterrupt)
                  0x0000ea          0x4 LONG 0x8194 DEFINED (__Interrupt107)?ABSOLUTE (__Interrupt107):ABSOLUTE (__DefaultInterrupt)
                  0x0000ec          0x4 LONG 0x8194 DEFINED (__Interrupt108)?ABSOLUTE (__Interrupt108):ABSOLUTE (__DefaultInterrupt)
                  0x0000ee          0x4 LONG 0x8194 DEFINED (__Interrupt109)?ABSOLUTE (__Interrupt109):ABSOLUTE (__DefaultInterrupt)
                  0x0000f0          0x4 LONG 0x8194 DEFINED (__Interrupt110)?ABSOLUTE (__Interrupt110):ABSOLUTE (__DefaultInterrupt)
                  0x0000f2          0x4 LONG 0x8194 DEFINED (__Interrupt111)?ABSOLUTE (__Interrupt111):ABSOLUTE (__DefaultInterrupt)
                  0x0000f4          0x4 LONG 0x8194 DEFINED (__Interrupt112)?ABSOLUTE (__Interrupt112):ABSOLUTE (__DefaultInterrupt)
                  0x0000f6          0x4 LONG 0x8194 DEFINED (__Interrupt113)?ABSOLUTE (__Interrupt113):ABSOLUTE (__DefaultInterrupt)
                  0x0000f8          0x4 LONG 0x8194 DEFINED (__Interrupt114)?ABSOLUTE (__Interrupt114):ABSOLUTE (__DefaultInterrupt)
                  0x0000fa          0x4 LONG 0x8194 DEFINED (__Interrupt115)?ABSOLUTE (__Interrupt115):ABSOLUTE (__DefaultInterrupt)
                  0x0000fc          0x4 LONG 0x8194 DEFINED (__Interrupt116)?ABSOLUTE (__Interrupt116):ABSOLUTE (__DefaultInterrupt)
                  0x0000fe          0x4 LONG 0x8194 DEFINED (__Interrupt117)?ABSOLUTE (__Interrupt117):ABSOLUTE (__DefaultInterrupt)

.aivt             0x000104         0xfc
                  0x000104          0x4 LONG 0x8194 DEFINED (__AltReservedTrap0)?ABSOLUTE (__AltReservedTrap0):DEFINED (__ReservedTrap0)?ABSOLUTE (__ReservedTrap0):ABSOLUTE (__DefaultInterrupt)
                  0x000106          0x4 LONG 0x818a DEFINED (__AltOscillatorFail)?ABSOLUTE (__AltOscillatorFail):DEFINED (__OscillatorFail)?ABSOLUTE (__OscillatorFail):ABSOLUTE (__DefaultInterrupt)
                  0x000108          0x4 LONG 0x8186 DEFINED (__AltAddressError)?ABSOLUTE (__AltAddressError):DEFINED (__AddressError)?ABSOLUTE (__AddressError):ABSOLUTE (__DefaultInterrupt)
                  0x00010a          0x4 LONG 0x8182 DEFINED (__AltStackError)?ABSOLUTE (__AltStackError):DEFINED (__StackError)?ABSOLUTE (__StackError):ABSOLUTE (__DefaultInterrupt)
                  0x00010c          0x4 LONG 0x817e DEFINED (__AltMathError)?ABSOLUTE (__AltMathError):DEFINED (__MathError)?ABSOLUTE (__MathError):ABSOLUTE (__DefaultInterrupt)
                  0x00010e          0x4 LONG 0x8190 DEFINED (__AltDMACError)?ABSOLUTE (__AltDMACError):DEFINED (__DMACError)?ABSOLUTE (__DMACError):ABSOLUTE (__DefaultInterrupt)
                  0x000110          0x4 LONG 0x8194 DEFINED (__AltReservedTrap6)?ABSOLUTE (__AltReservedTrap6):DEFINED (__ReservedTrap6)?ABSOLUTE (__ReservedTrap6):ABSOLUTE (__DefaultInterrupt)
                  0x000112          0x4 LONG 0x8194 DEFINED (__AltReservedTrap7)?ABSOLUTE (__AltReservedTrap7):DEFINED (__ReservedTrap7)?ABSOLUTE (__ReservedTrap7):ABSOLUTE (__DefaultInterrupt)
                  0x000114          0x4 LONG 0x8194 DEFINED (__AltINT0Interrupt)?ABSOLUTE (__AltINT0Interrupt):DEFINED (__INT0Interrupt)?ABSOLUTE (__INT0Interrupt):ABSOLUTE (__DefaultInterrupt)
                  0x000116          0x4 LONG 0x7a18 DEFINED (__AltIC1Interrupt)?ABSOLUTE (__AltIC1Interrupt):DEFINED (__IC1Interrupt)?ABSOLUTE (__IC1Interrupt):ABSOLUTE (__DefaultInterrupt)
                  0x000118          0x4 LONG 0x8194 DEFINED (__AltOC1Interrupt)?ABSOLUTE (__AltOC1Interrupt):DEFINED (__OC1Interrupt)?ABSOLUTE (__OC1Interrupt):ABSOLUTE (__DefaultInterrupt)
                  0x00011a          0x4 LONG 0x67e4 DEFINED (__AltT1Interrupt)?ABSOLUTE (__AltT1Interrupt):DEFINED (__T1Interrupt)?ABSOLUTE (__T1Interrupt):ABSOLUTE (__DefaultInterrupt)
                  0x00011c          0x4 LONG 0x8194 DEFINED (__AltDMA0Interrupt)?ABSOLUTE (__AltDMA0Interrupt):DEFINED (__DMA0Interrupt)?ABSOLUTE (__DMA0Interrupt):ABSOLUTE (__DefaultInterrupt)
                  0x00011e          0x4 LONG 0x8194 DEFINED (__AltIC2Interrupt)?ABSOLUTE (__AltIC2Interrupt):DEFINED (__IC2Interrupt)?ABSOLUTE (__IC2Interrupt):ABSOLUTE (__DefaultInterrupt)
                  0x000120          0x4 LONG 0x8194 DEFINED (__AltOC2Interrupt)?ABSOLUTE (__AltOC2Interrupt):DEFINED (__OC2Interrupt)?ABSOLUTE (__OC2Interrupt):ABSOLUTE (__DefaultInterrupt)
                  0x000122          0x4 LONG 0x8194 DEFINED (__AltT2Interrupt)?ABSOLUTE (__AltT2Interrupt):DEFINED (__T2Interrupt)?ABSOLUTE (__T2Interrupt):ABSOLUTE (__DefaultInterrupt)
                  0x000124          0x4 LONG 0x72c0 DEFINED (__AltT3Interrupt)?ABSOLUTE (__AltT3Interrupt):DEFINED (__T3Interrupt)?ABSOLUTE (__T3Interrupt):ABSOLUTE (__DefaultInterrupt)
                  0x000126          0x4 LONG 0x8194 DEFINED (__AltSPI1ErrInterrupt)?ABSOLUTE (__AltSPI1ErrInterrupt):DEFINED (__SPI1ErrInterrupt)?ABSOLUTE (__SPI1ErrInterrupt):ABSOLUTE (__DefaultInterrupt)
                  0x000128          0x4 LONG 0x8194 DEFINED (__AltSPI1Interrupt)?ABSOLUTE (__AltSPI1Interrupt):DEFINED (__SPI1Interrupt)?ABSOLUTE (__SPI1Interrupt):ABSOLUTE (__DefaultInterrupt)
                  0x00012a          0x4 LONG 0x62f0 DEFINED (__AltU1RXInterrupt)?ABSOLUTE (__AltU1RXInterrupt):DEFINED (__U1RXInterrupt)?ABSOLUTE (__U1RXInterrupt):ABSOLUTE (__DefaultInterrupt)
                  0x00012c          0x4 LONG 0x629c DEFINED (__AltU1TXInterrupt)?ABSOLUTE (__AltU1TXInterrupt):DEFINED (__U1TXInterrupt)?ABSOLUTE (__U1TXInterrupt):ABSOLUTE (__DefaultInterrupt)
                  0x00012e          0x4 LONG 0x8194 DEFINED (__AltADC1Interrupt)?ABSOLUTE (__AltADC1Interrupt):DEFINED (__ADC1Interrupt)?ABSOLUTE (__ADC1Interrupt):ABSOLUTE (__DefaultInterrupt)
                  0x000130          0x4 LONG 0x8194 DEFINED (__AltDMA1Interrupt)?ABSOLUTE (__AltDMA1Interrupt):DEFINED (__DMA1Interrupt)?ABSOLUTE (__DMA1Interrupt):ABSOLUTE (__DefaultInterrupt)
                  0x000132          0x4 LONG 0x8194 DEFINED (__AltInterrupt15)?ABSOLUTE (__AltInterrupt15):DEFINED (__Interrupt15)?ABSOLUTE (__Interrupt15):ABSOLUTE (__DefaultInterrupt)
                  0x000134          0x4 LONG 0x8194 DEFINED (__AltSI2C1Interrupt)?ABSOLUTE (__AltSI2C1Interrupt):DEFINED (__SI2C1Interrupt)?ABSOLUTE (__SI2C1Interrupt):ABSOLUTE (__DefaultInterrupt)
                  0x000136          0x4 LONG 0x8194 DEFINED (__AltMI2C1Interrupt)?ABSOLUTE (__AltMI2C1Interrupt):DEFINED (__MI2C1Interrupt)?ABSOLUTE (__MI2C1Interrupt):ABSOLUTE (__DefaultInterrupt)
                  0x000138          0x4 LONG 0x8194 DEFINED (__AltInterrupt18)?ABSOLUTE (__AltInterrupt18):DEFINED (__Interrupt18)?ABSOLUTE (__Interrupt18):ABSOLUTE (__DefaultInterrupt)
                  0x00013a          0x4 LONG 0x8194 DEFINED (__AltCNInterrupt)?ABSOLUTE (__AltCNInterrupt):DEFINED (__CNInterrupt)?ABSOLUTE (__CNInterrupt):ABSOLUTE (__DefaultInterrupt)
                  0x00013c          0x4 LONG 0x7db2 DEFINED (__AltINT1Interrupt)?ABSOLUTE (__AltINT1Interrupt):DEFINED (__INT1Interrupt)?ABSOLUTE (__INT1Interrupt):ABSOLUTE (__DefaultInterrupt)
                  0x00013e          0x4 LONG 0x7090 DEFINED (__AltADC2Interrupt)?ABSOLUTE (__AltADC2Interrupt):DEFINED (__ADC2Interrupt)?ABSOLUTE (__ADC2Interrupt):ABSOLUTE (__DefaultInterrupt)
                  0x000140          0x4 LONG 0x8194 DEFINED (__AltIC7Interrupt)?ABSOLUTE (__AltIC7Interrupt):DEFINED (__IC7Interrupt)?ABSOLUTE (__IC7Interrupt):ABSOLUTE (__DefaultInterrupt)
                  0x000142          0x4 LONG 0x8194 DEFINED (__AltIC8Interrupt)?ABSOLUTE (__AltIC8Interrupt):DEFINED (__IC8Interrupt)?ABSOLUTE (__IC8Interrupt):ABSOLUTE (__DefaultInterrupt)
                  0x000144          0x4 LONG 0x8194 DEFINED (__AltDMA2Interrupt)?ABSOLUTE (__AltDMA2Interrupt):DEFINED (__DMA2Interrupt)?ABSOLUTE (__DMA2Interrupt):ABSOLUTE (__DefaultInterrupt)
                  0x000146          0x4 LONG 0x8194 DEFINED (__AltOC3Interrupt)?ABSOLUTE (__AltOC3Interrupt):DEFINED (__OC3Interrupt)?ABSOLUTE (__OC3Interrupt):ABSOLUTE (__DefaultInterrupt)
                  0x000148          0x4 LONG 0x8194 DEFINED (__AltOC4Interrupt)?ABSOLUTE (__AltOC4Interrupt):DEFINED (__OC4Interrupt)?ABSOLUTE (__OC4Interrupt):ABSOLUTE (__DefaultInterrupt)
                  0x00014a          0x4 LONG 0x8194 DEFINED (__AltT4Interrupt)?ABSOLUTE (__AltT4Interrupt):DEFINED (__T4Interrupt)?ABSOLUTE (__T4Interrupt):ABSOLUTE (__DefaultInterrupt)
                  0x00014c          0x4 LONG 0x68fe DEFINED (__AltT5Interrupt)?ABSOLUTE (__AltT5Interrupt):DEFINED (__T5Interrupt)?ABSOLUTE (__T5Interrupt):ABSOLUTE (__DefaultInterrupt)
                  0x00014e          0x4 LONG 0x8194 DEFINED (__AltINT2Interrupt)?ABSOLUTE (__AltINT2Interrupt):DEFINED (__INT2Interrupt)?ABSOLUTE (__INT2Interrupt):ABSOLUTE (__DefaultInterrupt)
                  0x000150          0x4 LONG 0x6450 DEFINED (__AltU2RXInterrupt)?ABSOLUTE (__AltU2RXInterrupt):DEFINED (__U2RXInterrupt)?ABSOLUTE (__U2RXInterrupt):ABSOLUTE (__DefaultInterrupt)
                  0x000152          0x4 LONG 0x63fc DEFINED (__AltU2TXInterrupt)?ABSOLUTE (__AltU2TXInterrupt):DEFINED (__U2TXInterrupt)?ABSOLUTE (__U2TXInterrupt):ABSOLUTE (__DefaultInterrupt)
                  0x000154          0x4 LONG 0x8194 DEFINED (__AltSPI2ErrInterrupt)?ABSOLUTE (__AltSPI2ErrInterrupt):DEFINED (__SPI2ErrInterrupt)?ABSOLUTE (__SPI2ErrInterrupt):ABSOLUTE (__DefaultInterrupt)
                  0x000156          0x4 LONG 0x8194 DEFINED (__AltSPI2Interrupt)?ABSOLUTE (__AltSPI2Interrupt):DEFINED (__SPI2Interrupt)?ABSOLUTE (__SPI2Interrupt):ABSOLUTE (__DefaultInterrupt)
                  0x000158          0x4 LONG 0x8194 DEFINED (__AltC1RxRdyInterrupt)?ABSOLUTE (__AltC1RxRdyInterrupt):DEFINED (__C1RxRdyInterrupt)?ABSOLUTE (__C1RxRdyInterrupt):ABSOLUTE (__DefaultInterrupt)
                  0x00015a          0x4 LONG 0x6b50 DEFINED (__AltC1Interrupt)?ABSOLUTE (__AltC1Interrupt):DEFINED (__C1Interrupt)?ABSOLUTE (__C1Interrupt):ABSOLUTE (__DefaultInterrupt)
                  0x00015c          0x4 LONG 0x8194 DEFINED (__AltDMA3Interrupt)?ABSOLUTE (__AltDMA3Interrupt):DEFINED (__DMA3Interrupt)?ABSOLUTE (__DMA3Interrupt):ABSOLUTE (__DefaultInterrupt)
                  0x00015e          0x4 LONG 0x8194 DEFINED (__AltIC3Interrupt)?ABSOLUTE (__AltIC3Interrupt):DEFINED (__IC3Interrupt)?ABSOLUTE (__IC3Interrupt):ABSOLUTE (__DefaultInterrupt)
                  0x000160          0x4 LONG 0x8194 DEFINED (__AltIC4Interrupt)?ABSOLUTE (__AltIC4Interrupt):DEFINED (__IC4Interrupt)?ABSOLUTE (__IC4Interrupt):ABSOLUTE (__DefaultInterrupt)
                  0x000162          0x4 LONG 0x8194 DEFINED (__AltIC5Interrupt)?ABSOLUTE (__AltIC5Interrupt):DEFINED (__IC5Interrupt)?ABSOLUTE (__IC5Interrupt):ABSOLUTE (__DefaultInterrupt)
                  0x000164          0x4 LONG 0x8194 DEFINED (__AltIC6Interrupt)?ABSOLUTE (__AltIC6Interrupt):DEFINED (__IC6Interrupt)?ABSOLUTE (__IC6Interrupt):ABSOLUTE (__DefaultInterrupt)
                  0x000166          0x4 LONG 0x8194 DEFINED (__AltOC5Interrupt)?ABSOLUTE (__AltOC5Interrupt):DEFINED (__OC5Interrupt)?ABSOLUTE (__OC5Interrupt):ABSOLUTE (__DefaultInterrupt)
                  0x000168          0x4 LONG 0x8194 DEFINED (__AltOC6Interrupt)?ABSOLUTE (__AltOC6Interrupt):DEFINED (__OC6Interrupt)?ABSOLUTE (__OC6Interrupt):ABSOLUTE (__DefaultInterrupt)
                  0x00016a          0x4 LONG 0x8194 DEFINED (__AltOC7Interrupt)?ABSOLUTE (__AltOC7Interrupt):DEFINED (__OC7Interrupt)?ABSOLUTE (__OC7Interrupt):ABSOLUTE (__DefaultInterrupt)
                  0x00016c          0x4 LONG 0x8194 DEFINED (__AltOC8Interrupt)?ABSOLUTE (__AltOC8Interrupt):DEFINED (__OC8Interrupt)?ABSOLUTE (__OC8Interrupt):ABSOLUTE (__DefaultInterrupt)
                  0x00016e          0x4 LONG 0x8194 DEFINED (__AltInterrupt45)?ABSOLUTE (__AltInterrupt45):DEFINED (__Interrupt45)?ABSOLUTE (__Interrupt45):ABSOLUTE (__DefaultInterrupt)
                  0x000170          0x4 LONG 0x8194 DEFINED (__AltDMA4Interrupt)?ABSOLUTE (__AltDMA4Interrupt):DEFINED (__DMA4Interrupt)?ABSOLUTE (__DMA4Interrupt):ABSOLUTE (__DefaultInterrupt)
                  0x000172          0x4 LONG 0x6938 DEFINED (__AltT6Interrupt)?ABSOLUTE (__AltT6Interrupt):DEFINED (__T6Interrupt)?ABSOLUTE (__T6Interrupt):ABSOLUTE (__DefaultInterrupt)
                  0x000174          0x4 LONG 0x68a8 DEFINED (__AltT7Interrupt)?ABSOLUTE (__AltT7Interrupt):DEFINED (__T7Interrupt)?ABSOLUTE (__T7Interrupt):ABSOLUTE (__DefaultInterrupt)
                  0x000176          0x4 LONG 0x8194 DEFINED (__AltSI2C2Interrupt)?ABSOLUTE (__AltSI2C2Interrupt):DEFINED (__SI2C2Interrupt)?ABSOLUTE (__SI2C2Interrupt):ABSOLUTE (__DefaultInterrupt)
                  0x000178          0x4 LONG 0x8194 DEFINED (__AltMI2C2Interrupt)?ABSOLUTE (__AltMI2C2Interrupt):DEFINED (__MI2C2Interrupt)?ABSOLUTE (__MI2C2Interrupt):ABSOLUTE (__DefaultInterrupt)
                  0x00017a          0x4 LONG 0x8194 DEFINED (__AltT8Interrupt)?ABSOLUTE (__AltT8Interrupt):DEFINED (__T8Interrupt)?ABSOLUTE (__T8Interrupt):ABSOLUTE (__DefaultInterrupt)
                  0x00017c          0x4 LONG 0x8194 DEFINED (__AltT9Interrupt)?ABSOLUTE (__AltT9Interrupt):DEFINED (__T9Interrupt)?ABSOLUTE (__T9Interrupt):ABSOLUTE (__DefaultInterrupt)
                  0x00017e          0x4 LONG 0x8194 DEFINED (__AltINT3Interrupt)?ABSOLUTE (__AltINT3Interrupt):DEFINED (__INT3Interrupt)?ABSOLUTE (__INT3Interrupt):ABSOLUTE (__DefaultInterrupt)
                  0x000180          0x4 LONG 0x8194 DEFINED (__AltINT4Interrupt)?ABSOLUTE (__AltINT4Interrupt):DEFINED (__INT4Interrupt)?ABSOLUTE (__INT4Interrupt):ABSOLUTE (__DefaultInterrupt)
                  0x000182          0x4 LONG 0x8194 DEFINED (__AltC2RxRdyInterrupt)?ABSOLUTE (__AltC2RxRdyInterrupt):DEFINED (__C2RxRdyInterrupt)?ABSOLUTE (__C2RxRdyInterrupt):ABSOLUTE (__DefaultInterrupt)
                  0x000184          0x4 LONG 0x6acc DEFINED (__AltC2Interrupt)?ABSOLUTE (__AltC2Interrupt):DEFINED (__C2Interrupt)?ABSOLUTE (__C2Interrupt):ABSOLUTE (__DefaultInterrupt)
                  0x000186          0x4 LONG 0x8194 DEFINED (__AltInterrupt57)?ABSOLUTE (__AltInterrupt57):DEFINED (__Interrupt57)?ABSOLUTE (__Interrupt57):ABSOLUTE (__DefaultInterrupt)
                  0x000188          0x4 LONG 0x8194 DEFINED (__AltInterrupt58)?ABSOLUTE (__AltInterrupt58):DEFINED (__Interrupt58)?ABSOLUTE (__Interrupt58):ABSOLUTE (__DefaultInterrupt)
                  0x00018a          0x4 LONG 0x8194 DEFINED (__AltDCIErrInterrupt)?ABSOLUTE (__AltDCIErrInterrupt):DEFINED (__DCIErrInterrupt)?ABSOLUTE (__DCIErrInterrupt):ABSOLUTE (__DefaultInterrupt)
                  0x00018c          0x4 LONG 0x8194 DEFINED (__AltDCIInterrupt)?ABSOLUTE (__AltDCIInterrupt):DEFINED (__DCIInterrupt)?ABSOLUTE (__DCIInterrupt):ABSOLUTE (__DefaultInterrupt)
                  0x00018e          0x4 LONG 0x8194 DEFINED (__AltDMA5Interrupt)?ABSOLUTE (__AltDMA5Interrupt):DEFINED (__DMA5Interrupt)?ABSOLUTE (__DMA5Interrupt):ABSOLUTE (__DefaultInterrupt)
                  0x000190          0x4 LONG 0x8194 DEFINED (__AltInterrupt62)?ABSOLUTE (__AltInterrupt62):DEFINED (__Interrupt62)?ABSOLUTE (__Interrupt62):ABSOLUTE (__DefaultInterrupt)
                  0x000192          0x4 LONG 0x8194 DEFINED (__AltInterrupt63)?ABSOLUTE (__AltInterrupt63):DEFINED (__Interrupt63)?ABSOLUTE (__Interrupt63):ABSOLUTE (__DefaultInterrupt)
                  0x000194          0x4 LONG 0x8194 DEFINED (__AltInterrupt64)?ABSOLUTE (__AltInterrupt64):DEFINED (__Interrupt64)?ABSOLUTE (__Interrupt64):ABSOLUTE (__DefaultInterrupt)
                  0x000196          0x4 LONG 0x8194 DEFINED (__AltU1ErrInterrupt)?ABSOLUTE (__AltU1ErrInterrupt):DEFINED (__U1ErrInterrupt)?ABSOLUTE (__U1ErrInterrupt):ABSOLUTE (__DefaultInterrupt)
                  0x000198          0x4 LONG 0x8194 DEFINED (__AltU2ErrInterrupt)?ABSOLUTE (__AltU2ErrInterrupt):DEFINED (__U2ErrInterrupt)?ABSOLUTE (__U2ErrInterrupt):ABSOLUTE (__DefaultInterrupt)
                  0x00019a          0x4 LONG 0x8194 DEFINED (__AltInterrupt67)?ABSOLUTE (__AltInterrupt67):DEFINED (__Interrupt67)?ABSOLUTE (__Interrupt67):ABSOLUTE (__DefaultInterrupt)
                  0x00019c          0x4 LONG 0x8194 DEFINED (__AltDMA6Interrupt)?ABSOLUTE (__AltDMA6Interrupt):DEFINED (__DMA6Interrupt)?ABSOLUTE (__DMA6Interrupt):ABSOLUTE (__DefaultInterrupt)
                  0x00019e          0x4 LONG 0x8194 DEFINED (__AltDMA7Interrupt)?ABSOLUTE (__AltDMA7Interrupt):DEFINED (__DMA7Interrupt)?ABSOLUTE (__DMA7Interrupt):ABSOLUTE (__DefaultInterrupt)
                  0x0001a0          0x4 LONG 0x8194 DEFINED (__AltC1TxReqInterrupt)?ABSOLUTE (__AltC1TxReqInterrupt):DEFINED (__C1TxReqInterrupt)?ABSOLUTE (__C1TxReqInterrupt):ABSOLUTE (__DefaultInterrupt)
                  0x0001a2          0x4 LONG 0x8194 DEFINED (__AltC2TxReqInterrupt)?ABSOLUTE (__AltC2TxReqInterrupt):DEFINED (__C2TxReqInterrupt)?ABSOLUTE (__C2TxReqInterrupt):ABSOLUTE (__DefaultInterrupt)
                  0x0001a4          0x4 LONG 0x8194 DEFINED (__AltInterrupt72)?ABSOLUTE (__AltInterrupt72):DEFINED (__Interrupt72)?ABSOLUTE (__Interrupt72):ABSOLUTE (__DefaultInterrupt)
                  0x0001a6          0x4 LONG 0x8194 DEFINED (__AltInterrupt73)?ABSOLUTE (__AltInterrupt73):DEFINED (__Interrupt73)?ABSOLUTE (__Interrupt73):ABSOLUTE (__DefaultInterrupt)
                  0x0001a8          0x4 LONG 0x8194 DEFINED (__AltInterrupt74)?ABSOLUTE (__AltInterrupt74):DEFINED (__Interrupt74)?ABSOLUTE (__Interrupt74):ABSOLUTE (__DefaultInterrupt)
                  0x0001aa          0x4 LONG 0x8194 DEFINED (__AltInterrupt75)?ABSOLUTE (__AltInterrupt75):DEFINED (__Interrupt75)?ABSOLUTE (__Interrupt75):ABSOLUTE (__DefaultInterrupt)
                  0x0001ac          0x4 LONG 0x8194 DEFINED (__AltInterrupt76)?ABSOLUTE (__AltInterrupt76):DEFINED (__Interrupt76)?ABSOLUTE (__Interrupt76):ABSOLUTE (__DefaultInterrupt)
                  0x0001ae          0x4 LONG 0x8194 DEFINED (__AltInterrupt77)?ABSOLUTE (__AltInterrupt77):DEFINED (__Interrupt77)?ABSOLUTE (__Interrupt77):ABSOLUTE (__DefaultInterrupt)
                  0x0001b0          0x4 LONG 0x8194 DEFINED (__AltInterrupt78)?ABSOLUTE (__AltInterrupt78):DEFINED (__Interrupt78)?ABSOLUTE (__Interrupt78):ABSOLUTE (__DefaultInterrupt)
                  0x0001b2          0x4 LONG 0x8194 DEFINED (__AltInterrupt79)?ABSOLUTE (__AltInterrupt79):DEFINED (__Interrupt79)?ABSOLUTE (__Interrupt79):ABSOLUTE (__DefaultInterrupt)
                  0x0001b4          0x4 LONG 0x8194 DEFINED (__AltInterrupt80)?ABSOLUTE (__AltInterrupt80):DEFINED (__Interrupt80)?ABSOLUTE (__Interrupt80):ABSOLUTE (__DefaultInterrupt)
                  0x0001b6          0x4 LONG 0x8194 DEFINED (__AltInterrupt81)?ABSOLUTE (__AltInterrupt81):DEFINED (__Interrupt81)?ABSOLUTE (__Interrupt81):ABSOLUTE (__DefaultInterrupt)
                  0x0001b8          0x4 LONG 0x8194 DEFINED (__AltInterrupt82)?ABSOLUTE (__AltInterrupt82):DEFINED (__Interrupt82)?ABSOLUTE (__Interrupt82):ABSOLUTE (__DefaultInterrupt)
                  0x0001ba          0x4 LONG 0x8194 DEFINED (__AltInterrupt83)?ABSOLUTE (__AltInterrupt83):DEFINED (__Interrupt83)?ABSOLUTE (__Interrupt83):ABSOLUTE (__DefaultInterrupt)
                  0x0001bc          0x4 LONG 0x8194 DEFINED (__AltInterrupt84)?ABSOLUTE (__AltInterrupt84):DEFINED (__Interrupt84)?ABSOLUTE (__Interrupt84):ABSOLUTE (__DefaultInterrupt)
                  0x0001be          0x4 LONG 0x8194 DEFINED (__AltInterrupt85)?ABSOLUTE (__AltInterrupt85):DEFINED (__Interrupt85)?ABSOLUTE (__Interrupt85):ABSOLUTE (__DefaultInterrupt)
                  0x0001c0          0x4 LONG 0x8194 DEFINED (__AltInterrupt86)?ABSOLUTE (__AltInterrupt86):DEFINED (__Interrupt86)?ABSOLUTE (__Interrupt86):ABSOLUTE (__DefaultInterrupt)
                  0x0001c2          0x4 LONG 0x8194 DEFINED (__AltInterrupt87)?ABSOLUTE (__AltInterrupt87):DEFINED (__Interrupt87)?ABSOLUTE (__Interrupt87):ABSOLUTE (__DefaultInterrupt)
                  0x0001c4          0x4 LONG 0x8194 DEFINED (__AltInterrupt88)?ABSOLUTE (__AltInterrupt88):DEFINED (__Interrupt88)?ABSOLUTE (__Interrupt88):ABSOLUTE (__DefaultInterrupt)
                  0x0001c6          0x4 LONG 0x8194 DEFINED (__AltInterrupt89)?ABSOLUTE (__AltInterrupt89):DEFINED (__Interrupt89)?ABSOLUTE (__Interrupt89):ABSOLUTE (__DefaultInterrupt)
                  0x0001c8          0x4 LONG 0x8194 DEFINED (__AltInterrupt90)?ABSOLUTE (__AltInterrupt90):DEFINED (__Interrupt90)?ABSOLUTE (__Interrupt90):ABSOLUTE (__DefaultInterrupt)
                  0x0001ca          0x4 LONG 0x8194 DEFINED (__AltInterrupt91)?ABSOLUTE (__AltInterrupt91):DEFINED (__Interrupt91)?ABSOLUTE (__Interrupt91):ABSOLUTE (__DefaultInterrupt)
                  0x0001cc          0x4 LONG 0x8194 DEFINED (__AltInterrupt92)?ABSOLUTE (__AltInterrupt92):DEFINED (__Interrupt92)?ABSOLUTE (__Interrupt92):ABSOLUTE (__DefaultInterrupt)
                  0x0001ce          0x4 LONG 0x8194 DEFINED (__AltInterrupt93)?ABSOLUTE (__AltInterrupt93):DEFINED (__Interrupt93)?ABSOLUTE (__Interrupt93):ABSOLUTE (__DefaultInterrupt)
                  0x0001d0          0x4 LONG 0x8194 DEFINED (__AltInterrupt94)?ABSOLUTE (__AltInterrupt94):DEFINED (__Interrupt94)?ABSOLUTE (__Interrupt94):ABSOLUTE (__DefaultInterrupt)
                  0x0001d2          0x4 LONG 0x8194 DEFINED (__AltInterrupt95)?ABSOLUTE (__AltInterrupt95):DEFINED (__Interrupt95)?ABSOLUTE (__Interrupt95):ABSOLUTE (__DefaultInterrupt)
                  0x0001d4          0x4 LONG 0x8194 DEFINED (__AltInterrupt96)?ABSOLUTE (__AltInterrupt96):DEFINED (__Interrupt96)?ABSOLUTE (__Interrupt96):ABSOLUTE (__DefaultInterrupt)
                  0x0001d6          0x4 LONG 0x8194 DEFINED (__AltInterrupt97)?ABSOLUTE (__AltInterrupt97):DEFINED (__Interrupt97)?ABSOLUTE (__Interrupt97):ABSOLUTE (__DefaultInterrupt)
                  0x0001d8          0x4 LONG 0x8194 DEFINED (__AltInterrupt98)?ABSOLUTE (__AltInterrupt98):DEFINED (__Interrupt98)?ABSOLUTE (__Interrupt98):ABSOLUTE (__DefaultInterrupt)
                  0x0001da          0x4 LONG 0x8194 DEFINED (__AltInterrupt99)?ABSOLUTE (__AltInterrupt99):DEFINED (__Interrupt99)?ABSOLUTE (__Interrupt99):ABSOLUTE (__DefaultInterrupt)
                  0x0001dc          0x4 LONG 0x8194 DEFINED (__AltInterrupt100)?ABSOLUTE (__AltInterrupt100):DEFINED (__Interrupt100)?ABSOLUTE (__Interrupt100):ABSOLUTE (__DefaultInterrupt)
                  0x0001de          0x4 LONG 0x8194 DEFINED (__AltInterrupt101)?ABSOLUTE (__AltInterrupt101):DEFINED (__Interrupt101)?ABSOLUTE (__Interrupt101):ABSOLUTE (__DefaultInterrupt)
                  0x0001e0          0x4 LONG 0x8194 DEFINED (__AltInterrupt102)?ABSOLUTE (__AltInterrupt102):DEFINED (__Interrupt102)?ABSOLUTE (__Interrupt102):ABSOLUTE (__DefaultInterrupt)
                  0x0001e2          0x4 LONG 0x8194 DEFINED (__AltInterrupt103)?ABSOLUTE (__AltInterrupt103):DEFINED (__Interrupt103)?ABSOLUTE (__Interrupt103):ABSOLUTE (__DefaultInterrupt)
                  0x0001e4          0x4 LONG 0x8194 DEFINED (__AltInterrupt104)?ABSOLUTE (__AltInterrupt104):DEFINED (__Interrupt104)?ABSOLUTE (__Interrupt104):ABSOLUTE (__DefaultInterrupt)
                  0x0001e6          0x4 LONG 0x8194 DEFINED (__AltInterrupt105)?ABSOLUTE (__AltInterrupt105):DEFINED (__Interrupt105)?ABSOLUTE (__Interrupt105):ABSOLUTE (__DefaultInterrupt)
                  0x0001e8          0x4 LONG 0x8194 DEFINED (__AltInterrupt106)?ABSOLUTE (__AltInterrupt106):DEFINED (__Interrupt106)?ABSOLUTE (__Interrupt106):ABSOLUTE (__DefaultInterrupt)
                  0x0001ea          0x4 LONG 0x8194 DEFINED (__AltInterrupt107)?ABSOLUTE (__AltInterrupt107):DEFINED (__Interrupt107)?ABSOLUTE (__Interrupt107):ABSOLUTE (__DefaultInterrupt)
                  0x0001ec          0x4 LONG 0x8194 DEFINED (__AltInterrupt108)?ABSOLUTE (__AltInterrupt108):DEFINED (__Interrupt108)?ABSOLUTE (__Interrupt108):ABSOLUTE (__DefaultInterrupt)
                  0x0001ee          0x4 LONG 0x8194 DEFINED (__AltInterrupt109)?ABSOLUTE (__AltInterrupt109):DEFINED (__Interrupt109)?ABSOLUTE (__Interrupt109):ABSOLUTE (__DefaultInterrupt)
                  0x0001f0          0x4 LONG 0x8194 DEFINED (__AltInterrupt110)?ABSOLUTE (__AltInterrupt110):DEFINED (__Interrupt110)?ABSOLUTE (__Interrupt110):ABSOLUTE (__DefaultInterrupt)
                  0x0001f2          0x4 LONG 0x8194 DEFINED (__AltInterrupt111)?ABSOLUTE (__AltInterrupt111):DEFINED (__Interrupt111)?ABSOLUTE (__Interrupt111):ABSOLUTE (__DefaultInterrupt)
                  0x0001f4          0x4 LONG 0x8194 DEFINED (__AltInterrupt112)?ABSOLUTE (__AltInterrupt112):DEFINED (__Interrupt112)?ABSOLUTE (__Interrupt112):ABSOLUTE (__DefaultInterrupt)
                  0x0001f6          0x4 LONG 0x8194 DEFINED (__AltInterrupt113)?ABSOLUTE (__AltInterrupt113):DEFINED (__Interrupt113)?ABSOLUTE (__Interrupt113):ABSOLUTE (__DefaultInterrupt)
                  0x0001f8          0x4 LONG 0x8194 DEFINED (__AltInterrupt114)?ABSOLUTE (__AltInterrupt114):DEFINED (__Interrupt114)?ABSOLUTE (__Interrupt114):ABSOLUTE (__DefaultInterrupt)
                  0x0001fa          0x4 LONG 0x8194 DEFINED (__AltInterrupt115)?ABSOLUTE (__AltInterrupt115):DEFINED (__Interrupt115)?ABSOLUTE (__Interrupt115):ABSOLUTE (__DefaultInterrupt)
                  0x0001fc          0x4 LONG 0x8194 DEFINED (__AltInterrupt116)?ABSOLUTE (__AltInterrupt116):DEFINED (__Interrupt116)?ABSOLUTE (__Interrupt116):ABSOLUTE (__DefaultInterrupt)
                  0x0001fe          0x4 LONG 0x8194 DEFINED (__AltInterrupt117)?ABSOLUTE (__AltInterrupt117):DEFINED (__Interrupt117)?ABSOLUTE (__Interrupt117):ABSOLUTE (__DefaultInterrupt)
                    0x0000                  WREG0 = 0x0
                    0x0000                  _WREG0 = 0x0
                    0x0002                  WREG1 = 0x2
                    0x0002                  _WREG1 = 0x2
                    0x0004                  WREG2 = 0x4
                    0x0004                  _WREG2 = 0x4
                    0x0006                  WREG3 = 0x6
                    0x0006                  _WREG3 = 0x6
                    0x0008                  WREG4 = 0x8
                    0x0008                  _WREG4 = 0x8
                    0x000a                  WREG5 = 0xa
                    0x000a                  _WREG5 = 0xa
                    0x000c                  WREG6 = 0xc
                    0x000c                  _WREG6 = 0xc
                    0x000e                  WREG7 = 0xe
                    0x000e                  _WREG7 = 0xe
                    0x0010                  WREG8 = 0x10
                    0x0010                  _WREG8 = 0x10
                    0x0012                  WREG9 = 0x12
                    0x0012                  _WREG9 = 0x12
                    0x0014                  WREG10 = 0x14
                    0x0014                  _WREG10 = 0x14
                    0x0016                  WREG11 = 0x16
                    0x0016                  _WREG11 = 0x16
                    0x0018                  WREG12 = 0x18
                    0x0018                  _WREG12 = 0x18
                    0x001a                  WREG13 = 0x1a
                    0x001a                  _WREG13 = 0x1a
                    0x001c                  WREG14 = 0x1c
                    0x001c                  _WREG14 = 0x1c
                    0x001e                  WREG15 = 0x1e
                    0x001e                  _WREG15 = 0x1e
                    0x0020                  SPLIM = 0x20
                    0x0020                  _SPLIM = 0x20
                    0x0022                  ACCAL = 0x22
                    0x0022                  _ACCAL = 0x22
                    0x0024                  ACCAH = 0x24
                    0x0024                  _ACCAH = 0x24
                    0x0026                  ACCAU = 0x26
                    0x0026                  _ACCAU = 0x26
                    0x0028                  ACCBL = 0x28
                    0x0028                  _ACCBL = 0x28
                    0x002a                  ACCBH = 0x2a
                    0x002a                  _ACCBH = 0x2a
                    0x002c                  ACCBU = 0x2c
                    0x002c                  _ACCBU = 0x2c
                    0x002e                  PCL = 0x2e
                    0x002e                  _PCL = 0x2e
                    0x0030                  PCH = 0x30
                    0x0030                  _PCH = 0x30
                    0x0032                  TBLPAG = 0x32
                    0x0032                  _TBLPAG = 0x32
                    0x0034                  PSVPAG = 0x34
                    0x0034                  _PSVPAG = 0x34
                    0x0036                  RCOUNT = 0x36
                    0x0036                  _RCOUNT = 0x36
                    0x0038                  DCOUNT = 0x38
                    0x0038                  _DCOUNT = 0x38
                    0x003a                  DOSTARTL = 0x3a
                    0x003a                  _DOSTARTL = 0x3a
                    0x003c                  DOSTARTH = 0x3c
                    0x003c                  _DOSTARTH = 0x3c
                    0x003e                  DOENDL = 0x3e
                    0x003e                  _DOENDL = 0x3e
                    0x0040                  DOENDH = 0x40
                    0x0040                  _DOENDH = 0x40
                    0x0042                  SR = 0x42
                    0x0042                  _SR = 0x42
                    0x0042                  _SRbits = 0x42
                    0x0044                  CORCON = 0x44
                    0x0044                  _CORCON = 0x44
                    0x0044                  _CORCONbits = 0x44
                    0x0046                  MODCON = 0x46
                    0x0046                  _MODCON = 0x46
                    0x0046                  _MODCONbits = 0x46
                    0x0048                  XMODSRT = 0x48
                    0x0048                  _XMODSRT = 0x48
                    0x004a                  XMODEND = 0x4a
                    0x004a                  _XMODEND = 0x4a
                    0x004c                  YMODSRT = 0x4c
                    0x004c                  _YMODSRT = 0x4c
                    0x004e                  YMODEND = 0x4e
                    0x004e                  _YMODEND = 0x4e
                    0x0050                  XBREV = 0x50
                    0x0050                  _XBREV = 0x50
                    0x0050                  _XBREVbits = 0x50
                    0x0052                  DISICNT = 0x52
                    0x0052                  _DISICNT = 0x52
                    0x0060                  CNEN1 = 0x60
                    0x0060                  _CNEN1 = 0x60
                    0x0060                  _CNEN1bits = 0x60
                    0x0062                  CNEN2 = 0x62
                    0x0062                  _CNEN2 = 0x62
                    0x0062                  _CNEN2bits = 0x62
                    0x0068                  CNPU1 = 0x68
                    0x0068                  _CNPU1 = 0x68
                    0x0068                  _CNPU1bits = 0x68
                    0x006a                  CNPU2 = 0x6a
                    0x006a                  _CNPU2 = 0x6a
                    0x006a                  _CNPU2bits = 0x6a
                    0x0080                  INTCON1 = 0x80
                    0x0080                  _INTCON1 = 0x80
                    0x0080                  _INTCON1bits = 0x80
                    0x0082                  INTCON2 = 0x82
                    0x0082                  _INTCON2 = 0x82
                    0x0082                  _INTCON2bits = 0x82
                    0x0084                  IFS0 = 0x84
                    0x0084                  _IFS0 = 0x84
                    0x0084                  _IFS0bits = 0x84
                    0x0086                  IFS1 = 0x86
                    0x0086                  _IFS1 = 0x86
                    0x0086                  _IFS1bits = 0x86
                    0x0088                  IFS2 = 0x88
                    0x0088                  _IFS2 = 0x88
                    0x0088                  _IFS2bits = 0x88
                    0x008a                  IFS3 = 0x8a
                    0x008a                  _IFS3 = 0x8a
                    0x008a                  _IFS3bits = 0x8a
                    0x008c                  IFS4 = 0x8c
                    0x008c                  _IFS4 = 0x8c
                    0x008c                  _IFS4bits = 0x8c
                    0x0094                  IEC0 = 0x94
                    0x0094                  _IEC0 = 0x94
                    0x0094                  _IEC0bits = 0x94
                    0x0096                  IEC1 = 0x96
                    0x0096                  _IEC1 = 0x96
                    0x0096                  _IEC1bits = 0x96
                    0x0098                  IEC2 = 0x98
                    0x0098                  _IEC2 = 0x98
                    0x0098                  _IEC2bits = 0x98
                    0x009a                  IEC3 = 0x9a
                    0x009a                  _IEC3 = 0x9a
                    0x009a                  _IEC3bits = 0x9a
                    0x009c                  IEC4 = 0x9c
                    0x009c                  _IEC4 = 0x9c
                    0x009c                  _IEC4bits = 0x9c
                    0x00a4                  IPC0 = 0xa4
                    0x00a4                  _IPC0 = 0xa4
                    0x00a4                  _IPC0bits = 0xa4
                    0x00a6                  IPC1 = 0xa6
                    0x00a6                  _IPC1 = 0xa6
                    0x00a6                  _IPC1bits = 0xa6
                    0x00a8                  IPC2 = 0xa8
                    0x00a8                  _IPC2 = 0xa8
                    0x00a8                  _IPC2bits = 0xa8
                    0x00aa                  IPC3 = 0xaa
                    0x00aa                  _IPC3 = 0xaa
                    0x00aa                  _IPC3bits = 0xaa
                    0x00ac                  IPC4 = 0xac
                    0x00ac                  _IPC4 = 0xac
                    0x00ac                  _IPC4bits = 0xac
                    0x00ae                  IPC5 = 0xae
                    0x00ae                  _IPC5 = 0xae
                    0x00ae                  _IPC5bits = 0xae
                    0x00b0                  IPC6 = 0xb0
                    0x00b0                  _IPC6 = 0xb0
                    0x00b0                  _IPC6bits = 0xb0
                    0x00b2                  IPC7 = 0xb2
                    0x00b2                  _IPC7 = 0xb2
                    0x00b2                  _IPC7bits = 0xb2
                    0x00b4                  IPC8 = 0xb4
                    0x00b4                  _IPC8 = 0xb4
                    0x00b4                  _IPC8bits = 0xb4
                    0x00b6                  IPC9 = 0xb6
                    0x00b6                  _IPC9 = 0xb6
                    0x00b6                  _IPC9bits = 0xb6
                    0x00b8                  IPC10 = 0xb8
                    0x00b8                  _IPC10 = 0xb8
                    0x00b8                  _IPC10bits = 0xb8
                    0x00ba                  IPC11 = 0xba
                    0x00ba                  _IPC11 = 0xba
                    0x00ba                  _IPC11bits = 0xba
                    0x00bc                  IPC12 = 0xbc
                    0x00bc                  _IPC12 = 0xbc
                    0x00bc                  _IPC12bits = 0xbc
                    0x00be                  IPC13 = 0xbe
                    0x00be                  _IPC13 = 0xbe
                    0x00be                  _IPC13bits = 0xbe
                    0x00c0                  IPC14 = 0xc0
                    0x00c0                  _IPC14 = 0xc0
                    0x00c0                  _IPC14bits = 0xc0
                    0x00c2                  IPC15 = 0xc2
                    0x00c2                  _IPC15 = 0xc2
                    0x00c2                  _IPC15bits = 0xc2
                    0x00c4                  IPC16 = 0xc4
                    0x00c4                  _IPC16 = 0xc4
                    0x00c4                  _IPC16bits = 0xc4
                    0x00c6                  IPC17 = 0xc6
                    0x00c6                  _IPC17 = 0xc6
                    0x00c6                  _IPC17bits = 0xc6
                    0x00e0                  INTTREG = 0xe0
                    0x00e0                  _INTTREG = 0xe0
                    0x00e0                  _INTTREGbits = 0xe0
                    0x0100                  TMR1 = 0x100
                    0x0100                  _TMR1 = 0x100
                    0x0102                  PR1 = 0x102
                    0x0102                  _PR1 = 0x102
                    0x0104                  T1CON = 0x104
                    0x0104                  _T1CON = 0x104
                    0x0104                  _T1CONbits = 0x104
                    0x0106                  TMR2 = 0x106
                    0x0106                  _TMR2 = 0x106
                    0x0108                  TMR3HLD = 0x108
                    0x0108                  _TMR3HLD = 0x108
                    0x010a                  TMR3 = 0x10a
                    0x010a                  _TMR3 = 0x10a
                    0x010c                  PR2 = 0x10c
                    0x010c                  _PR2 = 0x10c
                    0x010e                  PR3 = 0x10e
                    0x010e                  _PR3 = 0x10e
                    0x0110                  T2CON = 0x110
                    0x0110                  _T2CON = 0x110
                    0x0110                  _T2CONbits = 0x110
                    0x0112                  T3CON = 0x112
                    0x0112                  _T3CON = 0x112
                    0x0112                  _T3CONbits = 0x112
                    0x0114                  TMR4 = 0x114
                    0x0114                  _TMR4 = 0x114
                    0x0116                  TMR5HLD = 0x116
                    0x0116                  _TMR5HLD = 0x116
                    0x0118                  TMR5 = 0x118
                    0x0118                  _TMR5 = 0x118
                    0x011a                  PR4 = 0x11a
                    0x011a                  _PR4 = 0x11a
                    0x011c                  PR5 = 0x11c
                    0x011c                  _PR5 = 0x11c
                    0x011e                  T4CON = 0x11e
                    0x011e                  _T4CON = 0x11e
                    0x011e                  _T4CONbits = 0x11e
                    0x0120                  T5CON = 0x120
                    0x0120                  _T5CON = 0x120
                    0x0120                  _T5CONbits = 0x120
                    0x0122                  TMR6 = 0x122
                    0x0122                  _TMR6 = 0x122
                    0x0124                  TMR7HLD = 0x124
                    0x0124                  _TMR7HLD = 0x124
                    0x0126                  TMR7 = 0x126
                    0x0126                  _TMR7 = 0x126
                    0x0128                  PR6 = 0x128
                    0x0128                  _PR6 = 0x128
                    0x012a                  PR7 = 0x12a
                    0x012a                  _PR7 = 0x12a
                    0x012c                  T6CON = 0x12c
                    0x012c                  _T6CON = 0x12c
                    0x012c                  _T6CONbits = 0x12c
                    0x012e                  T7CON = 0x12e
                    0x012e                  _T7CON = 0x12e
                    0x012e                  _T7CONbits = 0x12e
                    0x0130                  TMR8 = 0x130
                    0x0130                  _TMR8 = 0x130
                    0x0132                  TMR9HLD = 0x132
                    0x0132                  _TMR9HLD = 0x132
                    0x0134                  TMR9 = 0x134
                    0x0134                  _TMR9 = 0x134
                    0x0136                  PR8 = 0x136
                    0x0136                  _PR8 = 0x136
                    0x0138                  PR9 = 0x138
                    0x0138                  _PR9 = 0x138
                    0x013a                  T8CON = 0x13a
                    0x013a                  _T8CON = 0x13a
                    0x013a                  _T8CONbits = 0x13a
                    0x013c                  T9CON = 0x13c
                    0x013c                  _T9CON = 0x13c
                    0x013c                  _T9CONbits = 0x13c
                    0x0140                  IC1BUF = 0x140
                    0x0140                  _IC1BUF = 0x140
                    0x0142                  IC1CON = 0x142
                    0x0142                  _IC1CON = 0x142
                    0x0142                  _IC1CONbits = 0x142
                    0x0144                  IC2BUF = 0x144
                    0x0144                  _IC2BUF = 0x144
                    0x0146                  IC2CON = 0x146
                    0x0146                  _IC2CON = 0x146
                    0x0146                  _IC2CONbits = 0x146
                    0x0148                  IC3BUF = 0x148
                    0x0148                  _IC3BUF = 0x148
                    0x014a                  IC3CON = 0x14a
                    0x014a                  _IC3CON = 0x14a
                    0x014a                  _IC3CONbits = 0x14a
                    0x014c                  IC4BUF = 0x14c
                    0x014c                  _IC4BUF = 0x14c
                    0x014e                  IC4CON = 0x14e
                    0x014e                  _IC4CON = 0x14e
                    0x014e                  _IC4CONbits = 0x14e
                    0x0150                  IC5BUF = 0x150
                    0x0150                  _IC5BUF = 0x150
                    0x0152                  IC5CON = 0x152
                    0x0152                  _IC5CON = 0x152
                    0x0152                  _IC5CONbits = 0x152
                    0x0154                  IC6BUF = 0x154
                    0x0154                  _IC6BUF = 0x154
                    0x0156                  IC6CON = 0x156
                    0x0156                  _IC6CON = 0x156
                    0x0156                  _IC6CONbits = 0x156
                    0x0158                  IC7BUF = 0x158
                    0x0158                  _IC7BUF = 0x158
                    0x015a                  IC7CON = 0x15a
                    0x015a                  _IC7CON = 0x15a
                    0x015a                  _IC7CONbits = 0x15a
                    0x015c                  IC8BUF = 0x15c
                    0x015c                  _IC8BUF = 0x15c
                    0x015e                  IC8CON = 0x15e
                    0x015e                  _IC8CON = 0x15e
                    0x015e                  _IC8CONbits = 0x15e
                    0x0180                  OC1RS = 0x180
                    0x0180                  _OC1RS = 0x180
                    0x0182                  OC1R = 0x182
                    0x0182                  _OC1R = 0x182
                    0x0184                  OC1CON = 0x184
                    0x0184                  _OC1CON = 0x184
                    0x0184                  _OC1CONbits = 0x184
                    0x0186                  OC2RS = 0x186
                    0x0186                  _OC2RS = 0x186
                    0x0188                  OC2R = 0x188
                    0x0188                  _OC2R = 0x188
                    0x018a                  OC2CON = 0x18a
                    0x018a                  _OC2CON = 0x18a
                    0x018a                  _OC2CONbits = 0x18a
                    0x018c                  OC3RS = 0x18c
                    0x018c                  _OC3RS = 0x18c
                    0x018e                  OC3R = 0x18e
                    0x018e                  _OC3R = 0x18e
                    0x0190                  OC3CON = 0x190
                    0x0190                  _OC3CON = 0x190
                    0x0190                  _OC3CONbits = 0x190
                    0x0192                  OC4RS = 0x192
                    0x0192                  _OC4RS = 0x192
                    0x0194                  OC4R = 0x194
                    0x0194                  _OC4R = 0x194
                    0x0196                  OC4CON = 0x196
                    0x0196                  _OC4CON = 0x196
                    0x0196                  _OC4CONbits = 0x196
                    0x0198                  OC5RS = 0x198
                    0x0198                  _OC5RS = 0x198
                    0x019a                  OC5R = 0x19a
                    0x019a                  _OC5R = 0x19a
                    0x019c                  OC5CON = 0x19c
                    0x019c                  _OC5CON = 0x19c
                    0x019c                  _OC5CONbits = 0x19c
                    0x019e                  OC6RS = 0x19e
                    0x019e                  _OC6RS = 0x19e
                    0x01a0                  OC6R = 0x1a0
                    0x01a0                  _OC6R = 0x1a0
                    0x01a2                  OC6CON = 0x1a2
                    0x01a2                  _OC6CON = 0x1a2
                    0x01a2                  _OC6CONbits = 0x1a2
                    0x01a4                  OC7RS = 0x1a4
                    0x01a4                  _OC7RS = 0x1a4
                    0x01a6                  OC7R = 0x1a6
                    0x01a6                  _OC7R = 0x1a6
                    0x01a8                  OC7CON = 0x1a8
                    0x01a8                  _OC7CON = 0x1a8
                    0x01a8                  _OC7CONbits = 0x1a8
                    0x01aa                  OC8RS = 0x1aa
                    0x01aa                  _OC8RS = 0x1aa
                    0x01ac                  OC8R = 0x1ac
                    0x01ac                  _OC8R = 0x1ac
                    0x01ae                  OC8CON = 0x1ae
                    0x01ae                  _OC8CON = 0x1ae
                    0x01ae                  _OC8CONbits = 0x1ae
                    0x0200                  I2C1RCV = 0x200
                    0x0200                  _I2C1RCV = 0x200
                    0x0200                  I2CRCV = 0x200
                    0x0200                  _I2CRCV = 0x200
                    0x0202                  I2C1TRN = 0x202
                    0x0202                  _I2C1TRN = 0x202
                    0x0202                  I2CTRN = 0x202
                    0x0202                  _I2CTRN = 0x202
                    0x0204                  I2C1BRG = 0x204
                    0x0204                  _I2C1BRG = 0x204
                    0x0206                  I2C1CON = 0x206
                    0x0206                  _I2C1CON = 0x206
                    0x0206                  _I2C1CONbits = 0x206
                    0x0206                  I2CCON = 0x206
                    0x0206                  _I2CCON = 0x206
                    0x0206                  _I2CCONbits = 0x206
                    0x0208                  I2C1STAT = 0x208
                    0x0208                  _I2C1STAT = 0x208
                    0x0208                  _I2C1STATbits = 0x208
                    0x0208                  I2CSTAT = 0x208
                    0x0208                  _I2CSTAT = 0x208
                    0x0208                  _I2CSTATbits = 0x208
                    0x020a                  I2C1ADD = 0x20a
                    0x020a                  _I2C1ADD = 0x20a
                    0x020a                  I2CADD = 0x20a
                    0x020a                  _I2CADD = 0x20a
                    0x020c                  I2C1MSK = 0x20c
                    0x020c                  _I2C1MSK = 0x20c
                    0x0210                  I2C2RCV = 0x210
                    0x0210                  _I2C2RCV = 0x210
                    0x0212                  I2C2TRN = 0x212
                    0x0212                  _I2C2TRN = 0x212
                    0x0214                  I2C2BRG = 0x214
                    0x0214                  _I2C2BRG = 0x214
                    0x0216                  I2C2CON = 0x216
                    0x0216                  _I2C2CON = 0x216
                    0x0216                  _I2C2CONbits = 0x216
                    0x0218                  I2C2STAT = 0x218
                    0x0218                  _I2C2STAT = 0x218
                    0x0218                  _I2C2STATbits = 0x218
                    0x021a                  I2C2ADD = 0x21a
                    0x021a                  _I2C2ADD = 0x21a
                    0x021c                  I2C2MSK = 0x21c
                    0x021c                  _I2C2MSK = 0x21c
                    0x0220                  U1MODE = 0x220
                    0x0220                  _U1MODE = 0x220
                    0x0220                  _U1MODEbits = 0x220
                    0x0222                  U1STA = 0x222
                    0x0222                  _U1STA = 0x222
                    0x0222                  _U1STAbits = 0x222
                    0x0224                  U1TXREG = 0x224
                    0x0224                  _U1TXREG = 0x224
                    0x0224                  _U1TXREGbits = 0x224
                    0x0226                  U1RXREG = 0x226
                    0x0226                  _U1RXREG = 0x226
                    0x0226                  _U1RXREGbits = 0x226
                    0x0228                  U1BRG = 0x228
                    0x0228                  _U1BRG = 0x228
                    0x0230                  U2MODE = 0x230
                    0x0230                  _U2MODE = 0x230
                    0x0230                  _U2MODEbits = 0x230
                    0x0232                  U2STA = 0x232
                    0x0232                  _U2STA = 0x232
                    0x0232                  _U2STAbits = 0x232
                    0x0234                  U2TXREG = 0x234
                    0x0234                  _U2TXREG = 0x234
                    0x0234                  _U2TXREGbits = 0x234
                    0x0236                  U2RXREG = 0x236
                    0x0236                  _U2RXREG = 0x236
                    0x0236                  _U2RXREGbits = 0x236
                    0x0238                  U2BRG = 0x238
                    0x0238                  _U2BRG = 0x238
                    0x0240                  SPI1STAT = 0x240
                    0x0240                  _SPI1STAT = 0x240
                    0x0240                  _SPI1STATbits = 0x240
                    0x0242                  SPI1CON1 = 0x242
                    0x0242                  _SPI1CON1 = 0x242
                    0x0242                  _SPI1CON1bits = 0x242
                    0x0244                  SPI1CON2 = 0x244
                    0x0244                  _SPI1CON2 = 0x244
                    0x0244                  _SPI1CON2bits = 0x244
                    0x0248                  SPI1BUF = 0x248
                    0x0248                  _SPI1BUF = 0x248
                    0x0260                  SPI2STAT = 0x260
                    0x0260                  _SPI2STAT = 0x260
                    0x0260                  _SPI2STATbits = 0x260
                    0x0262                  SPI2CON1 = 0x262
                    0x0262                  _SPI2CON1 = 0x262
                    0x0262                  _SPI2CON1bits = 0x262
                    0x0264                  SPI2CON2 = 0x264
                    0x0264                  _SPI2CON2 = 0x264
                    0x0264                  _SPI2CON2bits = 0x264
                    0x0268                  SPI2BUF = 0x268
                    0x0268                  _SPI2BUF = 0x268
                    0x0280                  DCICON1 = 0x280
                    0x0280                  _DCICON1 = 0x280
                    0x0280                  _DCICON1bits = 0x280
                    0x0282                  DCICON2 = 0x282
                    0x0282                  _DCICON2 = 0x282
                    0x0282                  _DCICON2bits = 0x282
                    0x0284                  DCICON3 = 0x284
                    0x0284                  _DCICON3 = 0x284
                    0x0284                  _DCICON3bits = 0x284
                    0x0286                  DCISTAT = 0x286
                    0x0286                  _DCISTAT = 0x286
                    0x0286                  _DCISTATbits = 0x286
                    0x0288                  TSCON = 0x288
                    0x0288                  _TSCON = 0x288
                    0x0288                  _TSCONbits = 0x288
                    0x028c                  RSCON = 0x28c
                    0x028c                  _RSCON = 0x28c
                    0x028c                  _RSCONbits = 0x28c
                    0x0290                  RXBUF0 = 0x290
                    0x0290                  _RXBUF0 = 0x290
                    0x0292                  RXBUF1 = 0x292
                    0x0292                  _RXBUF1 = 0x292
                    0x0294                  RXBUF2 = 0x294
                    0x0294                  _RXBUF2 = 0x294
                    0x0296                  RXBUF3 = 0x296
                    0x0296                  _RXBUF3 = 0x296
                    0x0298                  TXBUF0 = 0x298
                    0x0298                  _TXBUF0 = 0x298
                    0x029a                  TXBUF1 = 0x29a
                    0x029a                  _TXBUF1 = 0x29a
                    0x029c                  TXBUF2 = 0x29c
                    0x029c                  _TXBUF2 = 0x29c
                    0x029e                  TXBUF3 = 0x29e
                    0x029e                  _TXBUF3 = 0x29e
                    0x02c0                  TRISA = 0x2c0
                    0x02c0                  _TRISA = 0x2c0
                    0x02c0                  _TRISAbits = 0x2c0
                    0x02c2                  PORTA = 0x2c2
                    0x02c2                  _PORTA = 0x2c2
                    0x02c2                  _PORTAbits = 0x2c2
                    0x02c4                  LATA = 0x2c4
                    0x02c4                  _LATA = 0x2c4
                    0x02c4                  _LATAbits = 0x2c4
                    0x02c6                  TRISB = 0x2c6
                    0x02c6                  _TRISB = 0x2c6
                    0x02c6                  _TRISBbits = 0x2c6
                    0x02c8                  PORTB = 0x2c8
                    0x02c8                  _PORTB = 0x2c8
                    0x02c8                  _PORTBbits = 0x2c8
                    0x02ca                  LATB = 0x2ca
                    0x02ca                  _LATB = 0x2ca
                    0x02ca                  _LATBbits = 0x2ca
                    0x02cc                  TRISC = 0x2cc
                    0x02cc                  _TRISC = 0x2cc
                    0x02cc                  _TRISCbits = 0x2cc
                    0x02ce                  PORTC = 0x2ce
                    0x02ce                  _PORTC = 0x2ce
                    0x02ce                  _PORTCbits = 0x2ce
                    0x02d0                  LATC = 0x2d0
                    0x02d0                  _LATC = 0x2d0
                    0x02d0                  _LATCbits = 0x2d0
                    0x02d2                  TRISD = 0x2d2
                    0x02d2                  _TRISD = 0x2d2
                    0x02d2                  _TRISDbits = 0x2d2
                    0x02d4                  PORTD = 0x2d4
                    0x02d4                  _PORTD = 0x2d4
                    0x02d4                  _PORTDbits = 0x2d4
                    0x02d6                  LATD = 0x2d6
                    0x02d6                  _LATD = 0x2d6
                    0x02d6                  _LATDbits = 0x2d6
                    0x02d8                  TRISE = 0x2d8
                    0x02d8                  _TRISE = 0x2d8
                    0x02d8                  _TRISEbits = 0x2d8
                    0x02da                  PORTE = 0x2da
                    0x02da                  _PORTE = 0x2da
                    0x02da                  _PORTEbits = 0x2da
                    0x02dc                  LATE = 0x2dc
                    0x02dc                  _LATE = 0x2dc
                    0x02dc                  _LATEbits = 0x2dc
                    0x02de                  TRISF = 0x2de
                    0x02de                  _TRISF = 0x2de
                    0x02de                  _TRISFbits = 0x2de
                    0x02e0                  PORTF = 0x2e0
                    0x02e0                  _PORTF = 0x2e0
                    0x02e0                  _PORTFbits = 0x2e0
                    0x02e2                  LATF = 0x2e2
                    0x02e2                  _LATF = 0x2e2
                    0x02e2                  _LATFbits = 0x2e2
                    0x02e4                  TRISG = 0x2e4
                    0x02e4                  _TRISG = 0x2e4
                    0x02e4                  _TRISGbits = 0x2e4
                    0x02e6                  PORTG = 0x2e6
                    0x02e6                  _PORTG = 0x2e6
                    0x02e6                  _PORTGbits = 0x2e6
                    0x02e8                  LATG = 0x2e8
                    0x02e8                  _LATG = 0x2e8
                    0x02e8                  _LATGbits = 0x2e8
                    0x0300                  ADC1BUF0 = 0x300
                    0x0300                  _ADC1BUF0 = 0x300
                    0x0300                  ADCBUF0 = 0x300
                    0x0300                  _ADCBUF0 = 0x300
                    0x0320                  AD1CON1 = 0x320
                    0x0320                  _AD1CON1 = 0x320
                    0x0320                  _AD1CON1bits = 0x320
                    0x0322                  AD1CON2 = 0x322
                    0x0322                  _AD1CON2 = 0x322
                    0x0322                  _AD1CON2bits = 0x322
                    0x0324                  AD1CON3 = 0x324
                    0x0324                  _AD1CON3 = 0x324
                    0x0324                  _AD1CON3bits = 0x324
                    0x0326                  AD1CHS123 = 0x326
                    0x0326                  _AD1CHS123 = 0x326
                    0x0326                  _AD1CHS123bits = 0x326
                    0x0328                  AD1CHS0 = 0x328
                    0x0328                  _AD1CHS0 = 0x328
                    0x0328                  _AD1CHS0bits = 0x328
                    0x032a                  AD1PCFGH = 0x32a
                    0x032a                  _AD1PCFGH = 0x32a
                    0x032a                  _AD1PCFGHbits = 0x32a
                    0x032c                  AD1PCFGL = 0x32c
                    0x032c                  _AD1PCFGL = 0x32c
                    0x032c                  _AD1PCFGLbits = 0x32c
                    0x032c                  ADPCFG = 0x32c
                    0x032c                  _ADPCFG = 0x32c
                    0x032c                  _ADPCFGbits = 0x32c
                    0x032e                  AD1CSSH = 0x32e
                    0x032e                  _AD1CSSH = 0x32e
                    0x032e                  _AD1CSSHbits = 0x32e
                    0x0330                  AD1CSSL = 0x330
                    0x0330                  _AD1CSSL = 0x330
                    0x0330                  _AD1CSSLbits = 0x330
                    0x0332                  AD1CON4 = 0x332
                    0x0332                  _AD1CON4 = 0x332
                    0x0332                  _AD1CON4bits = 0x332
                    0x0340                  ADC2BUF0 = 0x340
                    0x0340                  _ADC2BUF0 = 0x340
                    0x0360                  AD2CON1 = 0x360
                    0x0360                  _AD2CON1 = 0x360
                    0x0360                  _AD2CON1bits = 0x360
                    0x0362                  AD2CON2 = 0x362
                    0x0362                  _AD2CON2 = 0x362
                    0x0362                  _AD2CON2bits = 0x362
                    0x0364                  AD2CON3 = 0x364
                    0x0364                  _AD2CON3 = 0x364
                    0x0364                  _AD2CON3bits = 0x364
                    0x0366                  AD2CHS123 = 0x366
                    0x0366                  _AD2CHS123 = 0x366
                    0x0366                  _AD2CHS123bits = 0x366
                    0x0368                  AD2CHS0 = 0x368
                    0x0368                  _AD2CHS0 = 0x368
                    0x0368                  _AD2CHS0bits = 0x368
                    0x036c                  AD2PCFGL = 0x36c
                    0x036c                  _AD2PCFGL = 0x36c
                    0x036c                  _AD2PCFGLbits = 0x36c
                    0x0370                  AD2CSSL = 0x370
                    0x0370                  _AD2CSSL = 0x370
                    0x0370                  _AD2CSSLbits = 0x370
                    0x0372                  AD2CON4 = 0x372
                    0x0372                  _AD2CON4 = 0x372
                    0x0372                  _AD2CON4bits = 0x372
                    0x0380                  DMA0CON = 0x380
                    0x0380                  _DMA0CON = 0x380
                    0x0380                  _DMA0CONbits = 0x380
                    0x0382                  DMA0REQ = 0x382
                    0x0382                  _DMA0REQ = 0x382
                    0x0382                  _DMA0REQbits = 0x382
                    0x0384                  DMA0STA = 0x384
                    0x0384                  _DMA0STA = 0x384
                    0x0386                  DMA0STB = 0x386
                    0x0386                  _DMA0STB = 0x386
                    0x0388                  DMA0PAD = 0x388
                    0x0388                  _DMA0PAD = 0x388
                    0x038a                  DMA0CNT = 0x38a
                    0x038a                  _DMA0CNT = 0x38a
                    0x038c                  DMA1CON = 0x38c
                    0x038c                  _DMA1CON = 0x38c
                    0x038c                  _DMA1CONbits = 0x38c
                    0x038e                  DMA1REQ = 0x38e
                    0x038e                  _DMA1REQ = 0x38e
                    0x038e                  _DMA1REQbits = 0x38e
                    0x0390                  DMA1STA = 0x390
                    0x0390                  _DMA1STA = 0x390
                    0x0392                  DMA1STB = 0x392
                    0x0392                  _DMA1STB = 0x392
                    0x0394                  DMA1PAD = 0x394
                    0x0394                  _DMA1PAD = 0x394
                    0x0396                  DMA1CNT = 0x396
                    0x0396                  _DMA1CNT = 0x396
                    0x0398                  DMA2CON = 0x398
                    0x0398                  _DMA2CON = 0x398
                    0x0398                  _DMA2CONbits = 0x398
                    0x039a                  DMA2REQ = 0x39a
                    0x039a                  _DMA2REQ = 0x39a
                    0x039a                  _DMA2REQbits = 0x39a
                    0x039c                  DMA2STA = 0x39c
                    0x039c                  _DMA2STA = 0x39c
                    0x039e                  DMA2STB = 0x39e
                    0x039e                  _DMA2STB = 0x39e
                    0x03a0                  DMA2PAD = 0x3a0
                    0x03a0                  _DMA2PAD = 0x3a0
                    0x03a2                  DMA2CNT = 0x3a2
                    0x03a2                  _DMA2CNT = 0x3a2
                    0x03a4                  DMA3CON = 0x3a4
                    0x03a4                  _DMA3CON = 0x3a4
                    0x03a4                  _DMA3CONbits = 0x3a4
                    0x03a6                  DMA3REQ = 0x3a6
                    0x03a6                  _DMA3REQ = 0x3a6
                    0x03a6                  _DMA3REQbits = 0x3a6
                    0x03a8                  DMA3STA = 0x3a8
                    0x03a8                  _DMA3STA = 0x3a8
                    0x03aa                  DMA3STB = 0x3aa
                    0x03aa                  _DMA3STB = 0x3aa
                    0x03ac                  DMA3PAD = 0x3ac
                    0x03ac                  _DMA3PAD = 0x3ac
                    0x03ae                  DMA3CNT = 0x3ae
                    0x03ae                  _DMA3CNT = 0x3ae
                    0x03b0                  DMA4CON = 0x3b0
                    0x03b0                  _DMA4CON = 0x3b0
                    0x03b0                  _DMA4CONbits = 0x3b0
                    0x03b2                  DMA4REQ = 0x3b2
                    0x03b2                  _DMA4REQ = 0x3b2
                    0x03b2                  _DMA4REQbits = 0x3b2
                    0x03b4                  DMA4STA = 0x3b4
                    0x03b4                  _DMA4STA = 0x3b4
                    0x03b6                  DMA4STB = 0x3b6
                    0x03b6                  _DMA4STB = 0x3b6
                    0x03b8                  DMA4PAD = 0x3b8
                    0x03b8                  _DMA4PAD = 0x3b8
                    0x03ba                  DMA4CNT = 0x3ba
                    0x03ba                  _DMA4CNT = 0x3ba
                    0x03bc                  DMA5CON = 0x3bc
                    0x03bc                  _DMA5CON = 0x3bc
                    0x03bc                  _DMA5CONbits = 0x3bc
                    0x03be                  DMA5REQ = 0x3be
                    0x03be                  _DMA5REQ = 0x3be
                    0x03be                  _DMA5REQbits = 0x3be
                    0x03c0                  DMA5STA = 0x3c0
                    0x03c0                  _DMA5STA = 0x3c0
                    0x03c2                  DMA5STB = 0x3c2
                    0x03c2                  _DMA5STB = 0x3c2
                    0x03c4                  DMA5PAD = 0x3c4
                    0x03c4                  _DMA5PAD = 0x3c4
                    0x03c6                  DMA5CNT = 0x3c6
                    0x03c6                  _DMA5CNT = 0x3c6
                    0x03c8                  DMA6CON = 0x3c8
                    0x03c8                  _DMA6CON = 0x3c8
                    0x03c8                  _DMA6CONbits = 0x3c8
                    0x03ca                  DMA6REQ = 0x3ca
                    0x03ca                  _DMA6REQ = 0x3ca
                    0x03ca                  _DMA6REQbits = 0x3ca
                    0x03cc                  DMA6STA = 0x3cc
                    0x03cc                  _DMA6STA = 0x3cc
                    0x03ce                  DMA6STB = 0x3ce
                    0x03ce                  _DMA6STB = 0x3ce
                    0x03d0                  DMA6PAD = 0x3d0
                    0x03d0                  _DMA6PAD = 0x3d0
                    0x03d2                  DMA6CNT = 0x3d2
                    0x03d2                  _DMA6CNT = 0x3d2
                    0x03d4                  DMA7CON = 0x3d4
                    0x03d4                  _DMA7CON = 0x3d4
                    0x03d4                  _DMA7CONbits = 0x3d4
                    0x03d6                  DMA7REQ = 0x3d6
                    0x03d6                  _DMA7REQ = 0x3d6
                    0x03d6                  _DMA7REQbits = 0x3d6
                    0x03d8                  DMA7STA = 0x3d8
                    0x03d8                  _DMA7STA = 0x3d8
                    0x03da                  DMA7STB = 0x3da
                    0x03da                  _DMA7STB = 0x3da
                    0x03dc                  DMA7PAD = 0x3dc
                    0x03dc                  _DMA7PAD = 0x3dc
                    0x03de                  DMA7CNT = 0x3de
                    0x03de                  _DMA7CNT = 0x3de
                    0x03e0                  DMACS0 = 0x3e0
                    0x03e0                  _DMACS0 = 0x3e0
                    0x03e0                  _DMACS0bits = 0x3e0
                    0x03e2                  DMACS1 = 0x3e2
                    0x03e2                  _DMACS1 = 0x3e2
                    0x03e2                  _DMACS1bits = 0x3e2
                    0x03e4                  DSADR = 0x3e4
                    0x03e4                  _DSADR = 0x3e4
                    0x0400                  C1CTRL1 = 0x400
                    0x0400                  _C1CTRL1 = 0x400
                    0x0400                  _C1CTRL1bits = 0x400
                    0x0402                  C1CTRL2 = 0x402
                    0x0402                  _C1CTRL2 = 0x402
                    0x0402                  _C1CTRL2bits = 0x402
                    0x0404                  C1VEC = 0x404
                    0x0404                  _C1VEC = 0x404
                    0x0404                  _C1VECbits = 0x404
                    0x0406                  C1FCTRL = 0x406
                    0x0406                  _C1FCTRL = 0x406
                    0x0406                  _C1FCTRLbits = 0x406
                    0x0408                  C1FIFO = 0x408
                    0x0408                  _C1FIFO = 0x408
                    0x0408                  _C1FIFObits = 0x408
                    0x040a                  C1INTF = 0x40a
                    0x040a                  _C1INTF = 0x40a
                    0x040a                  _C1INTFbits = 0x40a
                    0x040c                  C1INTE = 0x40c
                    0x040c                  _C1INTE = 0x40c
                    0x040c                  _C1INTEbits = 0x40c
                    0x040e                  C1EC = 0x40e
                    0x040e                  _C1EC = 0x40e
                    0x040e                  _C1ECbits = 0x40e
                    0x040e                  C1RERRCNT = 0x40e
                    0x040e                  _C1RERRCNT = 0x40e
                    0x040f                  C1TERRCNT = 0x40f
                    0x040f                  _C1TERRCNT = 0x40f
                    0x0410                  C1CFG1 = 0x410
                    0x0410                  _C1CFG1 = 0x410
                    0x0410                  _C1CFG1bits = 0x410
                    0x0412                  C1CFG2 = 0x412
                    0x0412                  _C1CFG2 = 0x412
                    0x0412                  _C1CFG2bits = 0x412
                    0x0414                  C1FEN1 = 0x414
                    0x0414                  _C1FEN1 = 0x414
                    0x0414                  _C1FEN1bits = 0x414
                    0x0418                  C1FMSKSEL1 = 0x418
                    0x0418                  _C1FMSKSEL1 = 0x418
                    0x0418                  _C1FMSKSEL1bits = 0x418
                    0x041a                  C1FMSKSEL2 = 0x41a
                    0x041a                  _C1FMSKSEL2 = 0x41a
                    0x041a                  _C1FMSKSEL2bits = 0x41a
                    0x0420                  C1BUFPNT1 = 0x420
                    0x0420                  _C1BUFPNT1 = 0x420
                    0x0420                  _C1BUFPNT1bits = 0x420
                    0x0420                  C1RXFUL1 = 0x420
                    0x0420                  _C1RXFUL1 = 0x420
                    0x0420                  _C1RXFUL1bits = 0x420
                    0x0422                  C1BUFPNT2 = 0x422
                    0x0422                  _C1BUFPNT2 = 0x422
                    0x0422                  _C1BUFPNT2bits = 0x422
                    0x0422                  C1RXFUL2 = 0x422
                    0x0422                  _C1RXFUL2 = 0x422
                    0x0422                  _C1RXFUL2bits = 0x422
                    0x0424                  C1BUFPNT3 = 0x424
                    0x0424                  _C1BUFPNT3 = 0x424
                    0x0424                  _C1BUFPNT3bits = 0x424
                    0x0426                  C1BUFPNT4 = 0x426
                    0x0426                  _C1BUFPNT4 = 0x426
                    0x0426                  _C1BUFPNT4bits = 0x426
                    0x0428                  C1RXOVF1 = 0x428
                    0x0428                  _C1RXOVF1 = 0x428
                    0x0428                  _C1RXOVF1bits = 0x428
                    0x042a                  C1RXOVF2 = 0x42a
                    0x042a                  _C1RXOVF2 = 0x42a
                    0x042a                  _C1RXOVF2bits = 0x42a
                    0x0430                  C1RXM0SID = 0x430
                    0x0430                  _C1RXM0SID = 0x430
                    0x0430                  _C1RXM0SIDbits = 0x430
                    0x0430                  C1TR01CON = 0x430
                    0x0430                  _C1TR01CON = 0x430
                    0x0430                  _C1TR01CONbits = 0x430
                    0x0432                  C1RXM0EID = 0x432
                    0x0432                  _C1RXM0EID = 0x432
                    0x0432                  _C1RXM0EIDbits = 0x432
                    0x0432                  C1TR23CON = 0x432
                    0x0432                  _C1TR23CON = 0x432
                    0x0432                  _C1TR23CONbits = 0x432
                    0x0434                  C1RXM1SID = 0x434
                    0x0434                  _C1RXM1SID = 0x434
                    0x0434                  _C1RXM1SIDbits = 0x434
                    0x0434                  C1TR45CON = 0x434
                    0x0434                  _C1TR45CON = 0x434
                    0x0434                  _C1TR45CONbits = 0x434
                    0x0436                  C1RXM1EID = 0x436
                    0x0436                  _C1RXM1EID = 0x436
                    0x0436                  _C1RXM1EIDbits = 0x436
                    0x0436                  C1TR67CON = 0x436
                    0x0436                  _C1TR67CON = 0x436
                    0x0436                  _C1TR67CONbits = 0x436
                    0x0438                  C1RXM2SID = 0x438
                    0x0438                  _C1RXM2SID = 0x438
                    0x0438                  _C1RXM2SIDbits = 0x438
                    0x043a                  C1RXM2EID = 0x43a
                    0x043a                  _C1RXM2EID = 0x43a
                    0x043a                  _C1RXM2EIDbits = 0x43a
                    0x0440                  C1RXD = 0x440
                    0x0440                  _C1RXD = 0x440
                    0x0440                  C1RXF0SID = 0x440
                    0x0440                  _C1RXF0SID = 0x440
                    0x0440                  _C1RXF0SIDbits = 0x440
                    0x0442                  C1RXF0EID = 0x442
                    0x0442                  _C1RXF0EID = 0x442
                    0x0442                  _C1RXF0EIDbits = 0x442
                    0x0442                  C1TXD = 0x442
                    0x0442                  _C1TXD = 0x442
                    0x0444                  C1RXF1SID = 0x444
                    0x0444                  _C1RXF1SID = 0x444
                    0x0444                  _C1RXF1SIDbits = 0x444
                    0x0446                  C1RXF1EID = 0x446
                    0x0446                  _C1RXF1EID = 0x446
                    0x0446                  _C1RXF1EIDbits = 0x446
                    0x0448                  C1RXF2SID = 0x448
                    0x0448                  _C1RXF2SID = 0x448
                    0x0448                  _C1RXF2SIDbits = 0x448
                    0x044a                  C1RXF2EID = 0x44a
                    0x044a                  _C1RXF2EID = 0x44a
                    0x044a                  _C1RXF2EIDbits = 0x44a
                    0x044c                  C1RXF3SID = 0x44c
                    0x044c                  _C1RXF3SID = 0x44c
                    0x044c                  _C1RXF3SIDbits = 0x44c
                    0x044e                  C1RXF3EID = 0x44e
                    0x044e                  _C1RXF3EID = 0x44e
                    0x044e                  _C1RXF3EIDbits = 0x44e
                    0x0450                  C1RXF4SID = 0x450
                    0x0450                  _C1RXF4SID = 0x450
                    0x0450                  _C1RXF4SIDbits = 0x450
                    0x0452                  C1RXF4EID = 0x452
                    0x0452                  _C1RXF4EID = 0x452
                    0x0452                  _C1RXF4EIDbits = 0x452
                    0x0454                  C1RXF5SID = 0x454
                    0x0454                  _C1RXF5SID = 0x454
                    0x0454                  _C1RXF5SIDbits = 0x454
                    0x0456                  C1RXF5EID = 0x456
                    0x0456                  _C1RXF5EID = 0x456
                    0x0456                  _C1RXF5EIDbits = 0x456
                    0x0458                  C1RXF6SID = 0x458
                    0x0458                  _C1RXF6SID = 0x458
                    0x0458                  _C1RXF6SIDbits = 0x458
                    0x045a                  C1RXF6EID = 0x45a
                    0x045a                  _C1RXF6EID = 0x45a
                    0x045a                  _C1RXF6EIDbits = 0x45a
                    0x045c                  C1RXF7SID = 0x45c
                    0x045c                  _C1RXF7SID = 0x45c
                    0x045c                  _C1RXF7SIDbits = 0x45c
                    0x045e                  C1RXF7EID = 0x45e
                    0x045e                  _C1RXF7EID = 0x45e
                    0x045e                  _C1RXF7EIDbits = 0x45e
                    0x0460                  C1RXF8SID = 0x460
                    0x0460                  _C1RXF8SID = 0x460
                    0x0460                  _C1RXF8SIDbits = 0x460
                    0x0462                  C1RXF8EID = 0x462
                    0x0462                  _C1RXF8EID = 0x462
                    0x0462                  _C1RXF8EIDbits = 0x462
                    0x0464                  C1RXF9SID = 0x464
                    0x0464                  _C1RXF9SID = 0x464
                    0x0464                  _C1RXF9SIDbits = 0x464
                    0x0466                  C1RXF9EID = 0x466
                    0x0466                  _C1RXF9EID = 0x466
                    0x0466                  _C1RXF9EIDbits = 0x466
                    0x0468                  C1RXF10SID = 0x468
                    0x0468                  _C1RXF10SID = 0x468
                    0x0468                  _C1RXF10SIDbits = 0x468
                    0x046a                  C1RXF10EID = 0x46a
                    0x046a                  _C1RXF10EID = 0x46a
                    0x046a                  _C1RXF10EIDbits = 0x46a
                    0x046c                  C1RXF11SID = 0x46c
                    0x046c                  _C1RXF11SID = 0x46c
                    0x046c                  _C1RXF11SIDbits = 0x46c
                    0x046e                  C1RXF11EID = 0x46e
                    0x046e                  _C1RXF11EID = 0x46e
                    0x046e                  _C1RXF11EIDbits = 0x46e
                    0x0470                  C1RXF12SID = 0x470
                    0x0470                  _C1RXF12SID = 0x470
                    0x0470                  _C1RXF12SIDbits = 0x470
                    0x0472                  C1RXF12EID = 0x472
                    0x0472                  _C1RXF12EID = 0x472
                    0x0472                  _C1RXF12EIDbits = 0x472
                    0x0474                  C1RXF13SID = 0x474
                    0x0474                  _C1RXF13SID = 0x474
                    0x0474                  _C1RXF13SIDbits = 0x474
                    0x0476                  C1RXF13EID = 0x476
                    0x0476                  _C1RXF13EID = 0x476
                    0x0476                  _C1RXF13EIDbits = 0x476
                    0x0478                  C1RXF14SID = 0x478
                    0x0478                  _C1RXF14SID = 0x478
                    0x0478                  _C1RXF14SIDbits = 0x478
                    0x047a                  C1RXF14EID = 0x47a
                    0x047a                  _C1RXF14EID = 0x47a
                    0x047a                  _C1RXF14EIDbits = 0x47a
                    0x047c                  C1RXF15SID = 0x47c
                    0x047c                  _C1RXF15SID = 0x47c
                    0x047c                  _C1RXF15SIDbits = 0x47c
                    0x047e                  C1RXF15EID = 0x47e
                    0x047e                  _C1RXF15EID = 0x47e
                    0x047e                  _C1RXF15EIDbits = 0x47e
                    0x0500                  C2CTRL1 = 0x500
                    0x0500                  _C2CTRL1 = 0x500
                    0x0500                  _C2CTRL1bits = 0x500
                    0x0502                  C2CTRL2 = 0x502
                    0x0502                  _C2CTRL2 = 0x502
                    0x0502                  _C2CTRL2bits = 0x502
                    0x0504                  C2VEC = 0x504
                    0x0504                  _C2VEC = 0x504
                    0x0504                  _C2VECbits = 0x504
                    0x0506                  C2FCTRL = 0x506
                    0x0506                  _C2FCTRL = 0x506
                    0x0506                  _C2FCTRLbits = 0x506
                    0x0508                  C2FIFO = 0x508
                    0x0508                  _C2FIFO = 0x508
                    0x0508                  _C2FIFObits = 0x508
                    0x050a                  C2INTF = 0x50a
                    0x050a                  _C2INTF = 0x50a
                    0x050a                  _C2INTFbits = 0x50a
                    0x050c                  C2INTE = 0x50c
                    0x050c                  _C2INTE = 0x50c
                    0x050c                  _C2INTEbits = 0x50c
                    0x050e                  C2EC = 0x50e
                    0x050e                  _C2EC = 0x50e
                    0x050e                  _C2ECbits = 0x50e
                    0x050e                  C2RERRCNT = 0x50e
                    0x050e                  _C2RERRCNT = 0x50e
                    0x050f                  C2TERRCNT = 0x50f
                    0x050f                  _C2TERRCNT = 0x50f
                    0x0510                  C2CFG1 = 0x510
                    0x0510                  _C2CFG1 = 0x510
                    0x0510                  _C2CFG1bits = 0x510
                    0x0512                  C2CFG2 = 0x512
                    0x0512                  _C2CFG2 = 0x512
                    0x0512                  _C2CFG2bits = 0x512
                    0x0514                  C2FEN1 = 0x514
                    0x0514                  _C2FEN1 = 0x514
                    0x0514                  _C2FEN1bits = 0x514
                    0x0518                  C2FMSKSEL1 = 0x518
                    0x0518                  _C2FMSKSEL1 = 0x518
                    0x0518                  _C2FMSKSEL1bits = 0x518
                    0x051a                  C2FMSKSEL2 = 0x51a
                    0x051a                  _C2FMSKSEL2 = 0x51a
                    0x051a                  _C2FMSKSEL2bits = 0x51a
                    0x0520                  C2BUFPNT1 = 0x520
                    0x0520                  _C2BUFPNT1 = 0x520
                    0x0520                  _C2BUFPNT1bits = 0x520
                    0x0520                  C2RXFUL1 = 0x520
                    0x0520                  _C2RXFUL1 = 0x520
                    0x0520                  _C2RXFUL1bits = 0x520
                    0x0522                  C2BUFPNT2 = 0x522
                    0x0522                  _C2BUFPNT2 = 0x522
                    0x0522                  _C2BUFPNT2bits = 0x522
                    0x0522                  C2RXFUL2 = 0x522
                    0x0522                  _C2RXFUL2 = 0x522
                    0x0522                  _C2RXFUL2bits = 0x522
                    0x0524                  C2BUFPNT3 = 0x524
                    0x0524                  _C2BUFPNT3 = 0x524
                    0x0524                  _C2BUFPNT3bits = 0x524
                    0x0526                  C2BUFPNT4 = 0x526
                    0x0526                  _C2BUFPNT4 = 0x526
                    0x0526                  _C2BUFPNT4bits = 0x526
                    0x0528                  C2RXOVF1 = 0x528
                    0x0528                  _C2RXOVF1 = 0x528
                    0x0528                  _C2RXOVF1bits = 0x528
                    0x052a                  C2RXOVF2 = 0x52a
                    0x052a                  _C2RXOVF2 = 0x52a
                    0x052a                  _C2RXOVF2bits = 0x52a
                    0x0530                  C2RXM0SID = 0x530
                    0x0530                  _C2RXM0SID = 0x530
                    0x0530                  _C2RXM0SIDbits = 0x530
                    0x0530                  C2TR01CON = 0x530
                    0x0530                  _C2TR01CON = 0x530
                    0x0530                  _C2TR01CONbits = 0x530
                    0x0532                  C2RXM0EID = 0x532
                    0x0532                  _C2RXM0EID = 0x532
                    0x0532                  _C2RXM0EIDbits = 0x532
                    0x0532                  C2TR23CON = 0x532
                    0x0532                  _C2TR23CON = 0x532
                    0x0532                  _C2TR23CONbits = 0x532
                    0x0534                  C2RXM1SID = 0x534
                    0x0534                  _C2RXM1SID = 0x534
                    0x0534                  _C2RXM1SIDbits = 0x534
                    0x0534                  C2TR45CON = 0x534
                    0x0534                  _C2TR45CON = 0x534
                    0x0534                  _C2TR45CONbits = 0x534
                    0x0536                  C2RXM1EID = 0x536
                    0x0536                  _C2RXM1EID = 0x536
                    0x0536                  _C2RXM1EIDbits = 0x536
                    0x0536                  C2TR67CON = 0x536
                    0x0536                  _C2TR67CON = 0x536
                    0x0536                  _C2TR67CONbits = 0x536
                    0x0538                  C2RXM2SID = 0x538
                    0x0538                  _C2RXM2SID = 0x538
                    0x0538                  _C2RXM2SIDbits = 0x538
                    0x053a                  C2RXM2EID = 0x53a
                    0x053a                  _C2RXM2EID = 0x53a
                    0x053a                  _C2RXM2EIDbits = 0x53a
                    0x0540                  C2RXD = 0x540
                    0x0540                  _C2RXD = 0x540
                    0x0540                  C2RXF0SID = 0x540
                    0x0540                  _C2RXF0SID = 0x540
                    0x0540                  _C2RXF0SIDbits = 0x540
                    0x0542                  C2RXF0EID = 0x542
                    0x0542                  _C2RXF0EID = 0x542
                    0x0542                  _C2RXF0EIDbits = 0x542
                    0x0542                  C2TXD = 0x542
                    0x0542                  _C2TXD = 0x542
                    0x0544                  C2RXF1SID = 0x544
                    0x0544                  _C2RXF1SID = 0x544
                    0x0544                  _C2RXF1SIDbits = 0x544
                    0x0546                  C2RXF1EID = 0x546
                    0x0546                  _C2RXF1EID = 0x546
                    0x0546                  _C2RXF1EIDbits = 0x546
                    0x0548                  C2RXF2SID = 0x548
                    0x0548                  _C2RXF2SID = 0x548
                    0x0548                  _C2RXF2SIDbits = 0x548
                    0x054a                  C2RXF2EID = 0x54a
                    0x054a                  _C2RXF2EID = 0x54a
                    0x054a                  _C2RXF2EIDbits = 0x54a
                    0x054c                  C2RXF3SID = 0x54c
                    0x054c                  _C2RXF3SID = 0x54c
                    0x054c                  _C2RXF3SIDbits = 0x54c
                    0x054e                  C2RXF3EID = 0x54e
                    0x054e                  _C2RXF3EID = 0x54e
                    0x054e                  _C2RXF3EIDbits = 0x54e
                    0x0550                  C2RXF4SID = 0x550
                    0x0550                  _C2RXF4SID = 0x550
                    0x0550                  _C2RXF4SIDbits = 0x550
                    0x0552                  C2RXF4EID = 0x552
                    0x0552                  _C2RXF4EID = 0x552
                    0x0552                  _C2RXF4EIDbits = 0x552
                    0x0554                  C2RXF5SID = 0x554
                    0x0554                  _C2RXF5SID = 0x554
                    0x0554                  _C2RXF5SIDbits = 0x554
                    0x0556                  C2RXF5EID = 0x556
                    0x0556                  _C2RXF5EID = 0x556
                    0x0556                  _C2RXF5EIDbits = 0x556
                    0x0558                  C2RXF6SID = 0x558
                    0x0558                  _C2RXF6SID = 0x558
                    0x0558                  _C2RXF6SIDbits = 0x558
                    0x055a                  C2RXF6EID = 0x55a
                    0x055a                  _C2RXF6EID = 0x55a
                    0x055a                  _C2RXF6EIDbits = 0x55a
                    0x055c                  C2RXF7SID = 0x55c
                    0x055c                  _C2RXF7SID = 0x55c
                    0x055c                  _C2RXF7SIDbits = 0x55c
                    0x055e                  C2RXF7EID = 0x55e
                    0x055e                  _C2RXF7EID = 0x55e
                    0x055e                  _C2RXF7EIDbits = 0x55e
                    0x0560                  C2RXF8SID = 0x560
                    0x0560                  _C2RXF8SID = 0x560
                    0x0560                  _C2RXF8SIDbits = 0x560
                    0x0562                  C2RXF8EID = 0x562
                    0x0562                  _C2RXF8EID = 0x562
                    0x0562                  _C2RXF8EIDbits = 0x562
                    0x0564                  C2RXF9SID = 0x564
                    0x0564                  _C2RXF9SID = 0x564
                    0x0564                  _C2RXF9SIDbits = 0x564
                    0x0566                  C2RXF9EID = 0x566
                    0x0566                  _C2RXF9EID = 0x566
                    0x0566                  _C2RXF9EIDbits = 0x566
                    0x0568                  C2RXF10SID = 0x568
                    0x0568                  _C2RXF10SID = 0x568
                    0x0568                  _C2RXF10SIDbits = 0x568
                    0x056a                  C2RXF10EID = 0x56a
                    0x056a                  _C2RXF10EID = 0x56a
                    0x056a                  _C2RXF10EIDbits = 0x56a
                    0x056c                  C2RXF11SID = 0x56c
                    0x056c                  _C2RXF11SID = 0x56c
                    0x056c                  _C2RXF11SIDbits = 0x56c
                    0x056e                  C2RXF11EID = 0x56e
                    0x056e                  _C2RXF11EID = 0x56e
                    0x056e                  _C2RXF11EIDbits = 0x56e
                    0x0570                  C2RXF12SID = 0x570
                    0x0570                  _C2RXF12SID = 0x570
                    0x0570                  _C2RXF12SIDbits = 0x570
                    0x0572                  C2RXF12EID = 0x572
                    0x0572                  _C2RXF12EID = 0x572
                    0x0572                  _C2RXF12EIDbits = 0x572
                    0x0574                  C2RXF13SID = 0x574
                    0x0574                  _C2RXF13SID = 0x574
                    0x0574                  _C2RXF13SIDbits = 0x574
                    0x0576                  C2RXF13EID = 0x576
                    0x0576                  _C2RXF13EID = 0x576
                    0x0576                  _C2RXF13EIDbits = 0x576
                    0x0578                  C2RXF14SID = 0x578
                    0x0578                  _C2RXF14SID = 0x578
                    0x0578                  _C2RXF14SIDbits = 0x578
                    0x057a                  C2RXF14EID = 0x57a
                    0x057a                  _C2RXF14EID = 0x57a
                    0x057a                  _C2RXF14EIDbits = 0x57a
                    0x057c                  C2RXF15SID = 0x57c
                    0x057c                  _C2RXF15SID = 0x57c
                    0x057c                  _C2RXF15SIDbits = 0x57c
                    0x057e                  C2RXF15EID = 0x57e
                    0x057e                  _C2RXF15EID = 0x57e
                    0x057e                  _C2RXF15EIDbits = 0x57e
                    0x06c0                  ODCA = 0x6c0
                    0x06c0                  _ODCA = 0x6c0
                    0x06c0                  _ODCAbits = 0x6c0
                    0x06d2                  ODCD = 0x6d2
                    0x06d2                  _ODCD = 0x6d2
                    0x06d2                  _ODCDbits = 0x6d2
                    0x06de                  ODCF = 0x6de
                    0x06de                  _ODCF = 0x6de
                    0x06de                  _ODCFbits = 0x6de
                    0x06e4                  ODCG = 0x6e4
                    0x06e4                  _ODCG = 0x6e4
                    0x06e4                  _ODCGbits = 0x6e4
                    0x0740                  RCON = 0x740
                    0x0740                  _RCON = 0x740
                    0x0740                  _RCONbits = 0x740
                    0x0742                  OSCCON = 0x742
                    0x0742                  _OSCCON = 0x742
                    0x0742                  _OSCCONbits = 0x742
                    0x0742                  OSCCONL = 0x742
                    0x0742                  _OSCCONL = 0x742
                    0x0743                  OSCCONH = 0x743
                    0x0743                  _OSCCONH = 0x743
                    0x0744                  CLKDIV = 0x744
                    0x0744                  _CLKDIV = 0x744
                    0x0744                  _CLKDIVbits = 0x744
                    0x0746                  PLLFBD = 0x746
                    0x0746                  _PLLFBD = 0x746
                    0x0746                  _PLLFBDbits = 0x746
                    0x0748                  OSCTUN = 0x748
                    0x0748                  _OSCTUN = 0x748
                    0x0748                  _OSCTUNbits = 0x748
                    0x0750                  BSRAM = 0x750
                    0x0750                  _BSRAM = 0x750
                    0x0750                  _BSRAMbits = 0x750
                    0x0752                  SSRAM = 0x752
                    0x0752                  _SSRAM = 0x752
                    0x0752                  _SSRAMbits = 0x752
                    0x0760                  NVMCON = 0x760
                    0x0760                  _NVMCON = 0x760
                    0x0760                  _NVMCONbits = 0x760
                    0x0766                  NVMKEY = 0x766
                    0x0766                  _NVMKEY = 0x766
                    0x0770                  PMD1 = 0x770
                    0x0770                  _PMD1 = 0x770
                    0x0770                  _PMD1bits = 0x770
                    0x0772                  PMD2 = 0x772
                    0x0772                  _PMD2 = 0x772
                    0x0772                  _PMD2bits = 0x772
                    0x0774                  PMD3 = 0x774
                    0x0774                  _PMD3 = 0x774
                    0x0774                  _PMD3bits = 0x774
                    0x0022                  ACCA = 0x22
                    0x0022                  _ACCA = 0x22
                    0x0028                  ACCB = 0x28
                    0x0028                  _ACCB = 0x28
                    0x0440                  CAN1 = 0x440
                    0x0440                  _CAN1 = 0x440
                    0x0540                  CAN2 = 0x540
                    0x0540                  _CAN2 = 0x540
                    0x0140                  IC1 = 0x140
                    0x0140                  _IC1 = 0x140
                    0x0144                  IC2 = 0x144
                    0x0144                  _IC2 = 0x144
                    0x0148                  IC3 = 0x148
                    0x0148                  _IC3 = 0x148
                    0x014c                  IC4 = 0x14c
                    0x014c                  _IC4 = 0x14c
                    0x0150                  IC5 = 0x150
                    0x0150                  _IC5 = 0x150
                    0x0154                  IC6 = 0x154
                    0x0154                  _IC6 = 0x154
                    0x0158                  IC7 = 0x158
                    0x0158                  _IC7 = 0x158
                    0x015c                  IC8 = 0x15c
                    0x015c                  _IC8 = 0x15c
                    0x0180                  OC1 = 0x180
                    0x0180                  _OC1 = 0x180
                    0x0186                  OC2 = 0x186
                    0x0186                  _OC2 = 0x186
                    0x018c                  OC3 = 0x18c
                    0x018c                  _OC3 = 0x18c
                    0x0192                  OC4 = 0x192
                    0x0192                  _OC4 = 0x192
                    0x0198                  OC5 = 0x198
                    0x0198                  _OC5 = 0x198
                    0x019e                  OC6 = 0x19e
                    0x019e                  _OC6 = 0x19e
                    0x01a4                  OC7 = 0x1a4
                    0x01a4                  _OC7 = 0x1a4
                    0x01aa                  OC8 = 0x1aa
                    0x01aa                  _OC8 = 0x1aa
                    0x0240                  SPI1 = 0x240
                    0x0240                  _SPI1 = 0x240
                    0x0260                  SPI2 = 0x260
                    0x0260                  _SPI2 = 0x260
                    0x0220                  UART1 = 0x220
                    0x0220                  _UART1 = 0x220
                    0x0230                  UART2 = 0x230
                    0x0230                  _UART2 = 0x230
LOAD c:/program files (x86)/microchip/xc16/v1.11/bin/bin/../../lib\libdsp-elf.a
LOAD c:/program files (x86)/microchip/xc16/v1.11/bin/bin/../../lib\libq-elf.a
START GROUP
LOAD c:/program files (x86)/microchip/xc16/v1.11/bin/bin/../../lib\liblega-pic30-elf.a
LOAD c:/program files (x86)/microchip/xc16/v1.11/bin/bin/../../lib\libm-elf.a
LOAD c:/program files (x86)/microchip/xc16/v1.11/bin/bin/../../lib\liblega-c-elf.a
END GROUP
OUTPUT(dist/default/production/MPMTricopter.X.production.elf elf32-pic30)
LOAD FGS
LOAD jump_table
LOAD data_init

.debug_pubtypes
                  0x000360       0x27b9
 .debug_pubtypes
                  0x000360         0xa0 build/default/production/_ext/1018724808/deadReckoning.o
 .debug_pubtypes
                  0x000400         0x4c build/default/production/_ext/1018724808/estWind.o
 .debug_pubtypes
                  0x00044c         0x8b build/default/production/_ext/1018724808/estYawDrift.o
 .debug_pubtypes
                  0x0004d7        0x122 build/default/production/_ext/1018724808/gpsParseCommon.o
 .debug_pubtypes
                  0x0005f9         0x4c build/default/production/_ext/1018724808/gpsParseMTEK.o
 .debug_pubtypes
                  0x000645         0x4c build/default/production/_ext/1018724808/gpsParseSTD.o
 .debug_pubtypes
                  0x000691         0x4c build/default/production/_ext/1018724808/gpsParseUBX.o
 .debug_pubtypes
                  0x0006dd         0xce build/default/production/_ext/1018724808/libDCM.o
 .debug_pubtypes
                  0x0007ab         0x6d build/default/production/_ext/1018724808/mathlibNAV.o
 .debug_pubtypes
                  0x000818         0xbe build/default/production/_ext/1018724808/rmat.o
 .debug_pubtypes
                  0x0008d6         0x4c build/default/production/_ext/1018724808/rmat_obj.o
 .debug_pubtypes
                  0x000922         0x92 build/default/production/_ext/1018724808/gpsParseNMEA.o
 .debug_pubtypes
                  0x0009b4        0x282 build/default/production/_ext/1018708451/background.o
 .debug_pubtypes
                  0x000c36         0xeb build/default/production/_ext/1018708451/eeprom_udb4.o
 .debug_pubtypes
                  0x000d21        0x193 build/default/production/_ext/1018708451/events.o
 .debug_pubtypes
                  0x000eb4         0x22 build/default/production/_ext/1018708451/filters.o
 .debug_pubtypes
                  0x000ed6         0x4c build/default/production/_ext/1018708451/I2C_udb4.o
 .debug_pubtypes
                  0x000f22        0x13a build/default/production/_ext/1018708451/libUDB.o
 .debug_pubtypes
                  0x00105c         0x4c build/default/production/_ext/1018708451/magneto_udb4.o
 .debug_pubtypes
                  0x0010a8        0x184 build/default/production/_ext/1018708451/mpu6000.o
 .debug_pubtypes
                  0x00122c         0x4c build/default/production/_ext/1018708451/osd.o
 .debug_pubtypes
                  0x001278        0x17d build/default/production/_ext/1018708451/radioIn_udb4.o
 .debug_pubtypes
                  0x0013f5         0x9a build/default/production/_ext/1018708451/spiUtils.o
 .debug_pubtypes
                  0x00148f         0x4c build/default/production/_ext/1018708451/24xxEEPROM.o
 .debug_pubtypes
                  0x0014db         0x4c build/default/production/_ext/682965384/data_services.o
 .debug_pubtypes
                  0x001527         0x4c build/default/production/_ext/682965384/data_storage.o
 .debug_pubtypes
                  0x001573         0x83 build/default/production/_ext/682965384/euler_angles.o
 .debug_pubtypes
                  0x0015f6         0x4c build/default/production/_ext/682965384/MAVLink.o
 .debug_pubtypes
                  0x001642         0x4c build/default/production/_ext/682965384/nv_memory_table.o
 .debug_pubtypes
                  0x00168e         0x4c build/default/production/_ext/682965384/parameter_table.o
 .debug_pubtypes
                  0x0016da         0xf1 build/default/production/_ext/682965384/states.o
 .debug_pubtypes
                  0x0017cb         0xaf build/default/production/_ext/682965384/mode_switch.o
 .debug_pubtypes
                  0x00187a         0x4c build/default/production/_ext/682965384/airspeedCntrl.o
 .debug_pubtypes
                  0x0018c6        0x116 build/default/production/_ext/682965384/altitudeCntrl.o
 .debug_pubtypes
                  0x0019dc         0x4c build/default/production/_ext/682965384/altitudeCntrlVariable.o
 .debug_pubtypes
                  0x001a28         0xcd build/default/production/_ext/682965384/behavior.o
 .debug_pubtypes
                  0x001af5         0x85 build/default/production/_ext/682965384/cameraCntrl.o
 .debug_pubtypes
                  0x001b7a         0x4c build/default/production/_ext/682965384/config_tests.o
 .debug_pubtypes
                  0x001bc6         0x4c build/default/production/_ext/682965384/flightplan-logo.o
 .debug_pubtypes
                  0x001c12        0x154 build/default/production/_ext/682965384/flightplan-waypoints.o
 .debug_pubtypes
                  0x001d66         0x4c build/default/production/_ext/682965384/mp_osd.o
 .debug_pubtypes
                  0x001db2        0x138 build/default/production/_ext/682965384/navigate.o
 .debug_pubtypes
                  0x001eea        0x102 build/default/production/_ext/682965384/pitchCntrl.o
 .debug_pubtypes
                  0x001fec         0xd3 build/default/production/_ext/682965384/rollCntrl.o
 .debug_pubtypes
                  0x0020bf         0xbb build/default/production/_ext/682965384/servoMix.o
 .debug_pubtypes
                  0x00217a         0x65 build/default/production/_ext/682965384/servoPrepare.o
 .debug_pubtypes
                  0x0021df        0x102 build/default/production/_ext/682965384/yawCntrl.o
 .debug_pubtypes
                  0x0022e1         0x95 build/default/production/main.o
 .debug_pubtypes
                  0x002376         0xcf build/default/production/motorCntrl.o
 .debug_pubtypes
                  0x002445         0xdd build/default/production/telemetry.o
 .debug_pubtypes
                  0x002522        0x191 build/default/production/servoOut.o
 .debug_pubtypes
                  0x0026b3        0x205 build/default/production/serialIO_udb4.o
 .debug_pubtypes
                  0x0028b8        0x261 build/default/production/_ext/1018708451/analog2digital_udb4.o

__c30_signature
                  0x002b1a        0x324
 __c30_signature
                  0x002b1a          0x6 build/default/production/_ext/1018724808/deadReckoning.o
 __c30_signature
                  0x002b20          0x6 build/default/production/_ext/1018724808/estWind.o
 __c30_signature
                  0x002b26          0x6 build/default/production/_ext/1018724808/estYawDrift.o
 __c30_signature
                  0x002b2c          0x6 build/default/production/_ext/1018724808/gpsParseCommon.o
 __c30_signature
                  0x002b32          0x6 build/default/production/_ext/1018724808/gpsParseMTEK.o
 __c30_signature
                  0x002b38          0x6 build/default/production/_ext/1018724808/gpsParseSTD.o
 __c30_signature
                  0x002b3e          0x6 build/default/production/_ext/1018724808/gpsParseUBX.o
 __c30_signature
                  0x002b44          0x6 build/default/production/_ext/1018724808/libDCM.o
 __c30_signature
                  0x002b4a          0x6 build/default/production/_ext/1018724808/mathlibNAV.o
 __c30_signature
                  0x002b50          0x6 build/default/production/_ext/1018724808/rmat.o
 __c30_signature
                  0x002b56          0x6 build/default/production/_ext/1018724808/rmat_obj.o
 __c30_signature
                  0x002b5c          0x6 build/default/production/_ext/1018724808/gpsParseNMEA.o
 __c30_signature
                  0x002b62          0x6 build/default/production/_ext/1018708451/background.o
 __c30_signature
                  0x002b68          0x6 build/default/production/_ext/1018708451/eeprom_udb4.o
 __c30_signature
                  0x002b6e          0x6 build/default/production/_ext/1018708451/events.o
 __c30_signature
                  0x002b74          0x6 build/default/production/_ext/1018708451/filters.o
 __c30_signature
                  0x002b7a          0x6 build/default/production/_ext/1018708451/I2C_udb4.o
 __c30_signature
                  0x002b80          0x6 build/default/production/_ext/1018708451/libUDB.o
 __c30_signature
                  0x002b86          0x6 build/default/production/_ext/1018708451/magneto_udb4.o
 __c30_signature
                  0x002b8c          0x6 build/default/production/_ext/1018708451/mpu6000.o
 __c30_signature
                  0x002b92          0x6 build/default/production/_ext/1018708451/osd.o
 __c30_signature
                  0x002b98          0x6 build/default/production/_ext/1018708451/radioIn_udb4.o
 __c30_signature
                  0x002b9e          0x6 build/default/production/_ext/1018708451/spiUtils.o
 __c30_signature
                  0x002ba4          0x6 build/default/production/_ext/1018708451/24xxEEPROM.o
 __c30_signature
                  0x002baa          0x6 build/default/production/_ext/682965384/data_services.o
 __c30_signature
                  0x002bb0          0x6 build/default/production/_ext/682965384/data_storage.o
 __c30_signature
                  0x002bb6          0x6 build/default/production/_ext/682965384/euler_angles.o
 __c30_signature
                  0x002bbc          0x6 build/default/production/_ext/682965384/MAVLink.o
 __c30_signature
                  0x002bc2          0x6 build/default/production/_ext/682965384/nv_memory_table.o
 __c30_signature
                  0x002bc8          0x6 build/default/production/_ext/682965384/parameter_table.o
 __c30_signature
                  0x002bce          0x6 build/default/production/_ext/682965384/states.o
 __c30_signature
                  0x002bd4          0x6 build/default/production/_ext/682965384/mode_switch.o
 __c30_signature
                  0x002bda          0x6 build/default/production/_ext/682965384/airspeedCntrl.o
 __c30_signature
                  0x002be0          0x6 build/default/production/_ext/682965384/altitudeCntrl.o
 __c30_signature
                  0x002be6          0x6 build/default/production/_ext/682965384/altitudeCntrlVariable.o
 __c30_signature
                  0x002bec          0x6 build/default/production/_ext/682965384/behavior.o
 __c30_signature
                  0x002bf2          0x6 build/default/production/_ext/682965384/cameraCntrl.o
 __c30_signature
                  0x002bf8          0x6 build/default/production/_ext/682965384/config_tests.o
 __c30_signature
                  0x002bfe          0x6 build/default/production/_ext/682965384/flightplan-logo.o
 __c30_signature
                  0x002c04          0x6 build/default/production/_ext/682965384/flightplan-waypoints.o
 __c30_signature
                  0x002c0a          0x6 build/default/production/_ext/682965384/mp_osd.o
 __c30_signature
                  0x002c10          0x6 build/default/production/_ext/682965384/navigate.o
 __c30_signature
                  0x002c16          0x6 build/default/production/_ext/682965384/pitchCntrl.o
 __c30_signature
                  0x002c1c          0x6 build/default/production/_ext/682965384/rollCntrl.o
 __c30_signature
                  0x002c22          0x6 build/default/production/_ext/682965384/servoMix.o
 __c30_signature
                  0x002c28          0x6 build/default/production/_ext/682965384/servoPrepare.o
 __c30_signature
                  0x002c2e          0x6 build/default/production/_ext/682965384/yawCntrl.o
 __c30_signature
                  0x002c34          0x6 build/default/production/main.o
 __c30_signature
                  0x002c3a          0x6 build/default/production/motorCntrl.o
 __c30_signature
                  0x002c40          0x6 build/default/production/telemetry.o
 __c30_signature
                  0x002c46          0x6 build/default/production/servoOut.o
 __c30_signature
                  0x002c4c          0x6 build/default/production/serialIO_udb4.o
 __c30_signature
                  0x002c52          0x6 build/default/production/_ext/1018708451/analog2digital_udb4.o
 __c30_signature
                  0x002c58          0x6 c:/program files (x86)/microchip/xc16/v1.11/bin/bin/../../lib/dsPIC33F\libp33FJ256GP710A-elf.a(CloseSPI1.o)
 __c30_signature
                  0x002c5e          0x6 c:/program files (x86)/microchip/xc16/v1.11/bin/bin/../../lib/dsPIC33F\libp33FJ256GP710A-elf.a(ConfigIntSPI1.o)
 __c30_signature
                  0x002c64          0x6 c:/program files (x86)/microchip/xc16/v1.11/bin/bin/../../lib/dsPIC33F\libp33FJ256GP710A-elf.a(OpenSPI1.o)
 __c30_signature
                  0x002c6a          0x6 c:/program files (x86)/microchip/xc16/v1.11/bin/bin/../../lib\libdsp-elf.a(vscl.obj)
 __c30_signature
                  0x002c70          0x6 c:/program files (x86)/microchip/xc16/v1.11/bin/bin/../../lib\libdsp-elf.a(vadd.obj)
 __c30_signature
                  0x002c76          0x6 c:/program files (x86)/microchip/xc16/v1.11/bin/bin/../../lib\libdsp-elf.a(vmul.obj)
 __c30_signature
                  0x002c7c          0x6 c:/program files (x86)/microchip/xc16/v1.11/bin/bin/../../lib\libdsp-elf.a(vdot.obj)
 __c30_signature
                  0x002c82          0x6 c:/program files (x86)/microchip/xc16/v1.11/bin/bin/../../lib\libdsp-elf.a(vpow.obj)
 __c30_signature
                  0x002c88          0x6 c:/program files (x86)/microchip/xc16/v1.11/bin/bin/../../lib\libdsp-elf.a(madd.obj)
 __c30_signature
                  0x002c8e          0x6 c:/program files (x86)/microchip/xc16/v1.11/bin/bin/../../lib\libdsp-elf.a(mmul.obj)
 __c30_signature
                  0x002c94          0x6 c:/program files (x86)/microchip/xc16/v1.11/bin/bin/../../lib\liblega-pic30-elf.a(crt0_standard.o)
 __c30_signature
                  0x002c9a          0x6 c:/program files (x86)/microchip/xc16/v1.11/bin/bin/../../lib\liblega-pic30-elf.a(data_init_standard.o)
 __c30_signature
                  0x002ca0          0x6 c:/program files (x86)/microchip/xc16/v1.11/bin/bin/../../lib\liblega-pic30-elf.a(delay32.Leo)
 __c30_signature
                  0x002ca6          0x6 c:/program files (x86)/microchip/xc16/v1.11/bin/bin/../../lib\libm-elf.a(divsf3.eo)
 __c30_signature
                  0x002cac          0x6 c:/program files (x86)/microchip/xc16/v1.11/bin/bin/../../lib\libm-elf.a(divsi3.eo)
 __c30_signature
                  0x002cb2          0x6 c:/program files (x86)/microchip/xc16/v1.11/bin/bin/../../lib\libm-elf.a(fgtge.eo)
 __c30_signature
                  0x002cb8          0x6 c:/program files (x86)/microchip/xc16/v1.11/bin/bin/../../lib\libm-elf.a(fixsfsi.eo)
 __c30_signature
                  0x002cbe          0x6 c:/program files (x86)/microchip/xc16/v1.11/bin/bin/../../lib\libm-elf.a(floatsisf.eo)
 __c30_signature
                  0x002cc4          0x6 c:/program files (x86)/microchip/xc16/v1.11/bin/bin/../../lib\libm-elf.a(floatunsisf.eo)
 __c30_signature
                  0x002cca          0x6 c:/program files (x86)/microchip/xc16/v1.11/bin/bin/../../lib\libm-elf.a(fpack.eo)
 __c30_signature
                  0x002cd0          0x6 c:/program files (x86)/microchip/xc16/v1.11/bin/bin/../../lib\libm-elf.a(funpack.eo)
 __c30_signature
                  0x002cd6          0x6 c:/program files (x86)/microchip/xc16/v1.11/bin/bin/../../lib\libm-elf.a(funpack2.eo)
 __c30_signature
                  0x002cdc          0x6 c:/program files (x86)/microchip/xc16/v1.11/bin/bin/../../lib\libm-elf.a(futil.eo)
 __c30_signature
                  0x002ce2          0x6 c:/program files (x86)/microchip/xc16/v1.11/bin/bin/../../lib\libm-elf.a(modsi3.eo)
 __c30_signature
                  0x002ce8          0x6 c:/program files (x86)/microchip/xc16/v1.11/bin/bin/../../lib\libm-elf.a(mulsf3.eo)
 __c30_signature
                  0x002cee          0x6 c:/program files (x86)/microchip/xc16/v1.11/bin/bin/../../lib\libm-elf.a(udivsi3.eo)
 __c30_signature
                  0x002cf4          0x6 c:/program files (x86)/microchip/xc16/v1.11/bin/bin/../../lib\libm-elf.a(umodsi3.eo)
 __c30_signature
                  0x002cfa          0x6 c:/program files (x86)/microchip/xc16/v1.11/bin/bin/../../lib\libm-elf.a(fcompare.eo)
 __c30_signature
                  0x002d00          0x6 c:/program files (x86)/microchip/xc16/v1.11/bin/bin/../../lib\libm-elf.a(floatdisf.eo)
 __c30_signature
                  0x002d06          0x6 c:/program files (x86)/microchip/xc16/v1.11/bin/bin/../../lib\libm-elf.a(floatundisf.eo)
 __c30_signature
                  0x002d0c          0x6 c:/program files (x86)/microchip/xc16/v1.11/bin/bin/../../lib\liblega-c-elf.a(memcpy.XXeo)
 __c30_signature
                  0x002d12          0x6 c:/program files (x86)/microchip/xc16/v1.11/bin/bin/../../lib\liblega-c-elf.a(strlen.XXeo)
 __c30_signature
                  0x002d18          0x6 c:/program files (x86)/microchip/xc16/v1.11/bin/bin/../../lib\liblega-c-elf.a(printf_cdnopuxX.XXeo)
 __c30_signature
                  0x002d1e          0x6 c:/program files (x86)/microchip/xc16/v1.11/bin/bin/../../lib\liblega-c-elf.a(snprintf_cdfFnopuxX.XXeo)
 __c30_signature
                  0x002d24          0x6 c:/program files (x86)/microchip/xc16/v1.11/bin/bin/../../lib\liblega-c-elf.a(xprintf_cdfFnopuxX.XXeo)
 __c30_signature
                  0x002d2a          0x6 c:/program files (x86)/microchip/xc16/v1.11/bin/bin/../../lib\liblega-c-elf.a(xputfld_cdfFnopuxX.XXeo)
 __c30_signature
                  0x002d30          0x6 c:/program files (x86)/microchip/xc16/v1.11/bin/bin/../../lib\liblega-c-elf.a(xldtob_cdfFnopuxX.XXeo)
 __c30_signature
                  0x002d36          0x6 c:/program files (x86)/microchip/xc16/v1.11/bin/bin/../../lib\liblega-c-elf.a(xgenld_cdfFnopuxX.XXeo)
 __c30_signature
                  0x002d3c          0x6 c:/program files (x86)/microchip/xc16/v1.11/bin/bin/../../lib\liblega-c-elf.a(div.XXeo)
 __c30_signature
                  0x002d42          0x6 c:/program files (x86)/microchip/xc16/v1.11/bin/bin/../../lib\liblega-c-elf.a(fwrite.XXeo)
 __c30_signature
                  0x002d48          0x6 c:/program files (x86)/microchip/xc16/v1.11/bin/bin/../../lib\liblega-c-elf.a(ldiv.XXeo)
 __c30_signature
                  0x002d4e          0x6 c:/program files (x86)/microchip/xc16/v1.11/bin/bin/../../lib\liblega-c-elf.a(memchr.XXeo)
 __c30_signature
                  0x002d54          0x6 c:/program files (x86)/microchip/xc16/v1.11/bin/bin/../../lib\liblega-c-elf.a(strchr.XXeo)
 __c30_signature
                  0x002d5a          0x6 c:/program files (x86)/microchip/xc16/v1.11/bin/bin/../../lib\liblega-c-elf.a(xfiles.XXeo)
 __c30_signature
                  0x002d60          0x6 c:/program files (x86)/microchip/xc16/v1.11/bin/bin/../../lib\liblega-c-elf.a(xfwprep.XXeo)
 __c30_signature
                  0x002d66          0x6 c:/program files (x86)/microchip/xc16/v1.11/bin/bin/../../lib\liblega-c-elf.a(xldunsca.XXeo)
 __c30_signature
                  0x002d6c          0x6 c:/program files (x86)/microchip/xc16/v1.11/bin/bin/../../lib\liblega-c-elf.a(xlitob.XXeo)
 __c30_signature
                  0x002d72          0x6 c:/program files (x86)/microchip/xc16/v1.11/bin/bin/../../lib\liblega-c-elf.a(xputtxt.XXeo)
 __c30_signature
                  0x002d78          0x6 c:/program files (x86)/microchip/xc16/v1.11/bin/bin/../../lib\liblega-c-elf.a(xvacopy.XXeo)
 __c30_signature
                  0x002d7e          0x6 c:/program files (x86)/microchip/xc16/v1.11/bin/bin/../../lib\liblega-c-elf.a(fclose.XXelo)
 __c30_signature
                  0x002d84          0x6 c:/program files (x86)/microchip/xc16/v1.11/bin/bin/../../lib\liblega-c-elf.a(fflush.XXelo)
 __c30_signature
                  0x002d8a          0x6 c:/program files (x86)/microchip/xc16/v1.11/bin/bin/../../lib\liblega-c-elf.a(xatexit.XXelo)
 __c30_signature
                  0x002d90          0x6 c:/program files (x86)/microchip/xc16/v1.11/bin/bin/../../lib\liblega-c-elf.a(xdnorm.XXelo)
 __c30_signature
                  0x002d96          0x6 c:/program files (x86)/microchip/xc16/v1.11/bin/bin/../../lib\liblega-c-elf.a(free.XXeo)
 __c30_signature
                  0x002d9c          0x6 c:/program files (x86)/microchip/xc16/v1.11/bin/bin/../../lib\liblega-c-elf.a(malloc.XXeo)
 __c30_signature
                  0x002da2          0x6 c:/program files (x86)/microchip/xc16/v1.11/bin/bin/../../lib\liblega-c-elf.a(xgetmem.XXeo)
 __c30_signature
                  0x002da8          0x6 c:/program files (x86)/microchip/xc16/v1.11/bin/bin/../../lib\liblega-pic30-elf.a(sbrk.Leo)
 __c30_signature
                  0x002dae          0x6 c:/program files (x86)/microchip/xc16/v1.11/bin/bin/../../lib\liblega-pic30-elf.a(brk.Lelo)
 __c30_signature
                  0x002db4          0x6 c:/program files (x86)/microchip/xc16/v1.11/bin/bin/../../lib\liblega-pic30-elf.a(close.Leo)
 __c30_signature
                  0x002dba          0x6 c:/program files (x86)/microchip/xc16/v1.11/bin/bin/../../lib\liblega-pic30-elf.a(write.Leo)
 __c30_signature
                  0x002dc0          0x6 c:/program files (x86)/microchip/xc16/v1.11/bin/bin/../../lib\liblega-pic30-elf.a(remove.Leo)
 __c30_signature
                  0x002dc6          0x6 c:/program files (x86)/microchip/xc16/v1.11/bin/bin/../../lib\liblega-pic30-elf.a(c30_uart.Leo)
 __c30_signature
                  0x002dcc          0x6 c:/program files (x86)/microchip/xc16/v1.11/bin/bin/../../lib\libm-elf.a(deqltle.eo)
 __c30_signature
                  0x002dd2          0x6 c:/program files (x86)/microchip/xc16/v1.11/bin/bin/../../lib\libm-elf.a(dgtge.eo)
 __c30_signature
                  0x002dd8          0x6 c:/program files (x86)/microchip/xc16/v1.11/bin/bin/../../lib\libm-elf.a(divdf3.eo)
 __c30_signature
                  0x002dde          0x6 c:/program files (x86)/microchip/xc16/v1.11/bin/bin/../../lib\libm-elf.a(dpack.eo)
 __c30_signature
                  0x002de4          0x6 c:/program files (x86)/microchip/xc16/v1.11/bin/bin/../../lib\libm-elf.a(dunpack2.eo)
 __c30_signature
                  0x002dea          0x6 c:/program files (x86)/microchip/xc16/v1.11/bin/bin/../../lib\libm-elf.a(extendsfdf.eo)
 __c30_signature
                  0x002df0          0x6 c:/program files (x86)/microchip/xc16/v1.11/bin/bin/../../lib\libm-elf.a(fixdfsi.eo)
 __c30_signature
                  0x002df6          0x6 c:/program files (x86)/microchip/xc16/v1.11/bin/bin/../../lib\libm-elf.a(floatsidf.eo)
 __c30_signature
                  0x002dfc          0x6 c:/program files (x86)/microchip/xc16/v1.11/bin/bin/../../lib\libm-elf.a(muldf3.eo)
 __c30_signature
                  0x002e02          0x6 c:/program files (x86)/microchip/xc16/v1.11/bin/bin/../../lib\libm-elf.a(subdf3.eo)
 __c30_signature
                  0x002e08          0x6 c:/program files (x86)/microchip/xc16/v1.11/bin/bin/../../lib\libm-elf.a(mulsi3.eo)
 __c30_signature
                  0x002e0e          0x6 c:/program files (x86)/microchip/xc16/v1.11/bin/bin/../../lib\libm-elf.a(divmoddi3.eo)
 __c30_signature
                  0x002e14          0x6 c:/program files (x86)/microchip/xc16/v1.11/bin/bin/../../lib\libm-elf.a(adddf3.eo)
 __c30_signature
                  0x002e1a          0x6 c:/program files (x86)/microchip/xc16/v1.11/bin/bin/../../lib\libm-elf.a(dcompare.eo)
 __c30_signature
                  0x002e20          0x6 c:/program files (x86)/microchip/xc16/v1.11/bin/bin/../../lib\libm-elf.a(dpropagateNaN.eo)
 __c30_signature
                  0x002e26          0x6 c:/program files (x86)/microchip/xc16/v1.11/bin/bin/../../lib\libm-elf.a(dtype.eo)
 __c30_signature
                  0x002e2c          0x6 c:/program files (x86)/microchip/xc16/v1.11/bin/bin/../../lib\libm-elf.a(dunpack.eo)
 __c30_signature
                  0x002e32          0x6 c:/program files (x86)/microchip/xc16/v1.11/bin/bin/../../lib\libm-elf.a(floatdidf.eo)
 __c30_signature
                  0x002e38          0x6 c:/program files (x86)/microchip/xc16/v1.11/bin/bin/../../lib\libm-elf.a(floatundidf.eo)

.nbss               0x0800        0x2b4
 .nbss              0x0800        0x104 build/default/production/telemetry.o
                    0x0800                  _debug_buffer
 .nbss              0x0904         0xfa build/default/production/motorCntrl.o
                    0x0904                  _pid_gains
                    0x0920                  _tilt_ki
                    0x0922                  _roll_kp
                    0x0924                  _roll_kd
                    0x0926                  _pitch_kp
                    0x0928                  _pitch_kd
                    0x092a                  _rrate_kp
                    0x092c                  _rrate_kd
                    0x092e                  _prate_kp
                    0x0930                  _prate_kd
                    0x0932                  _acro_kp
                    0x0934                  _rate_ki
                    0x0936                  _yaw_ki
                    0x0938                  _yaw_kp
                    0x093a                  _yaw_kd
                    0x093c                  _roll_control
                    0x093e                  _pitch_control
                    0x0940                  _throttle_control
                    0x0942                  _rolladvanced
                    0x0944                  _pitchadvanced
                    0x0946                  _lagBC
                    0x0947                  _precessBC
                    0x0948                  _yaw_control
                    0x094a                  _pitch_step
                    0x094c                  _matrix_accum
                    0x0950                  _earth_yaw
                    0x0952                  _accel_feedback
                    0x0954                  _pwManual
                    0x095e                  _roll_error
                    0x0960                  _pitch_error
                    0x0962                  _yaw_error
                    0x0964                  _rate_error
                    0x096a                  _rate_desired_delta
                    0x0970                  _rate_desired_prev
                    0x0976                  _rate_desired
                    0x097c                  _rate_des_damping
                    0x0982                  _poscmd_north
                    0x0984                  _poscmd_east
                    0x0986                  _pos_error
                    0x098c                  _pos_setpoint
                    0x0992                  _pos_prev
                    0x099e                  _pos_delta
                    0x09aa                  _pos_perr
                    0x09b0                  _pos_derr
                    0x09b6                  _cmd_RPY
                    0x09bc                  _prev_RPY
                    0x09c2                  _adv_RPY
                    0x09c8                  _Rtmp
                    0x09da                  _Rtrans
                    0x09ec                  _rate_setp
                    0x09f2                  _angle_error
                    0x09f8                  _long_accum
 .nbss              0x09fe         0xb6 build/default/production/_ext/1018724808/rmat.o
                    0x09fe                  _rmatDelayTime
                    0x0a90                  _gplaneFilt
                    0x0a96                  _theta
                    0x0a9c                  _accelerometer_earth
                    0x0aa2                  _GPS_acceleration
                    0x0aa8                  _accelerometer_reference
                    0x0aae                  _errorRP_earth

.ndata              0x0ab4         0x9c
 .ndata             0x0ab4         0x9c build/default/production/_ext/1018724808/rmat.o
                    0x0ab4                  _ggain
                    0x0aba                  _spin_rate
                    0x0abc                  _spin_axis
                    0x0ac2                  _rmat
                    0x0ad4                  _rmatDelayCompensated
                    0x0ae6                  _omegagyro
                    0x0aec                  _omega
                    0x0af2                  _omegacorrP
                    0x0af8                  _omegacorrI
                    0x0afe                  _accelEarth
                    0x0b04                  _gyroCorrectionIntegral
                    0x0b10                  _omegaAccum
                    0x0b16                  _gplane
                    0x0b1c                  _dirovergndHGPS
                    0x0b22                  _dirovergndHRmat
                    0x0b28                  _errorRP
                    0x0b2e                  _errorYawground
                    0x0b34                  _errorYawplane
                    0x0b3a                  _error
                    0x0b3c                  _accelerometer_earth_integral
                    0x0b48                  _GPS_velocity_previous
                    0x0b4e                  _accelerometer_samples

.nbss               0x0b50         0x92
 .nbss              0x0b50         0x92 build/default/production/_ext/1018724808/gpsParseCommon.o
                    0x0b50                  _filterState
                    0x0b5a                  _boxCarBuff
                    0x0b96                  _boxCarSum
                    0x0ba2                  _loc_cm_sum
                    0x0bae                  _loc_cm_avg
                    0x0bb4                  _lat_gps
                    0x0bb8                  _long_gps
                    0x0bbc                  _alt_sl_gps
                    0x0bc0                  _tow
                    0x0bc4                  _sog_gps
                    0x0bc6                  _cog_gps
                    0x0bc8                  _climb_gps
                    0x0bca                  _week_no
                    0x0bcc                  _as_sim
                    0x0bce                  _hdop
                    0x0bd0                  _lat_origin
                    0x0bd4                  _long_origin
                    0x0bd8                  _alt_origin
                    0x0bdc                  _svs
                    0x0bdd                  _lat_cir
                    0x0bde                  _gps_data_age
                    0x0be0                  _actual_dir
                    0x0be1                  _calculated_heading

.ndata              0x0be2         0x8e
 .ndata             0x0be2         0x8e build/default/production/motorCntrl.o
                    0x0be2                  _current_flight_mode
                    0x0be4                  _motorsArmed
                    0x0be6                  _desired_heading
                    0x0be8                  _rate_error_prev
                    0x0bec                  _rate_error_dot
                    0x0bf0                  _yaw_error_previous
                    0x0bf2                  _roll_error_integral
                    0x0bf6                  _pitch_error_integral
                    0x0bfa                  _yaw_error_integral
                    0x0bfe                  _rrate_error_integral
                    0x0c02                  _prate_error_integral
                    0x0c06                  _yrate_error_integral
                    0x0c0a                  _Rx
                    0x0c1c                  _Ry
                    0x0c2e                  _Rz
                    0x0c40                  _Rc
                    0x0c52                  _Rd
                    0x0c64                  _prmat
                    0x0c66                  _pomegagyro
                    0x0c68                  _motorMap
                    0x0c6e                  _throttle_limit

.nbss               0x0c70         0x72
 .nbss              0x0c70         0x72 build/default/production/_ext/1018708451/analog2digital_udb4.o
                    0x0c70                  _udb_xaccel
                    0x0c7a                  _udb_yaccel
                    0x0c84                  _udb_zaccel
                    0x0c8e                  _udb_xrate
                    0x0c98                  _udb_yrate
                    0x0ca2                  _udb_zrate
                    0x0cac                  _udb_vref
                    0x0cb6                  _primaryV
                    0x0cc0                  _vref_adj

.ndata              0x0ce2         0x68
 .ndata             0x0ce2         0x68 build/default/production/_ext/1018724808/deadReckoning.o
                    0x0ce2                  _dead_reckon_clock
                    0x0ce4                  _IMUvelocityx
                    0x0ce8                  _IMUvelocityy
                    0x0cec                  _IMUvelocityz
                    0x0cf0                  _IMUlocationx
                    0x0cf4                  _IMUlocationy
                    0x0cf8                  _IMUlocationz
                    0x0cfc                  _IMUintegralAccelerationx
                    0x0d00                  _IMUintegralAccelerationy
                    0x0d04                  _IMUintegralAccelerationz
                    0x0d08                  _air_speed_3DIMU
                    0x0d0a                  _total_energy
                    0x0d0c                  _locationErrorEarth
                    0x0d12                  _velocityErrorEarth
                    0x0d18                  _IMUcmx
                    0x0d1c                  _IMUcmy
                    0x0d20                  _IMUcmz
                    0x0d24                  _IMUvx
                    0x0d28                  _IMUvy
                    0x0d2c                  _IMUvz
                    0x0d30                  _integralAccelx
                    0x0d34                  _integralAccely
                    0x0d38                  _integralAccelz
                    0x0d3c                  _cmErrorEarth
                    0x0d42                  _velErrorEarth
                    0x0d48                  _integrate_clock

.nbss               0x0d4a         0xa4
 .nbss              0x0d4a         0x60 build/default/production/_ext/1018708451/events.o
                    0x0d4a                  _events
 .nbss              0x0daa         0x44 build/default/production/_ext/1018724808/gpsParseNMEA.o
                    0x0daa                  _rmc_counter
                    0x0dac                  _gga_counter
                    0x0dae                  _id1
                    0x0daf                  _id2
                    0x0db0                  _XOR
                    0x0db2                  _digit
                    0x0db4                  _degrees
                    0x0db8                  _minutes
                    0x0dbc                  _lat_gps_
                    0x0dc0                  _long_gps_
                    0x0dc4                  _alt_sl_gps_
                    0x0dc8                  _tow_
                    0x0dcc                  _last_alt
                    0x0dd0                  _date_gps_
                    0x0dd4                  _time_gps_
                    0x0dd8                  _nav_valid_
                    0x0dda                  _nav_type_
                    0x0ddc                  _sog_gps_
                    0x0dde                  _cog_gps_
                    0x0de0                  _climb_gps_
                    0x0de2                  _week_no_
                    0x0de4                  _data_valid_
                    0x0de5                  _NS_
                    0x0de6                  _EW_
                    0x0de7                  _svs_
                    0x0de8                  _day_of_week
                    0x0de9                  _hdop_

.ndata              0x0dee         0x30
 .ndata             0x0dee         0x30 build/default/production/_ext/1018724808/gpsParseCommon.o
                    0x0dee                  _GPSlocation
                    0x0df4                  _GPSvelocity
                    0x0dfa                  _GPSloc_cm
                    0x0e00                  _cos_lat
                    0x0e02                  _gps_out_buffer
                    0x0e04                  _gps_out_buffer_length
                    0x0e06                  _gps_out_index
                    0x0e08                  _cog_previous
                    0x0e0a                  _ground_velocity_magnitudeXY
                    0x0e0c                  _sog_previous
                    0x0e0e                  _climb_rate_previous
                    0x0e10                  _forward_acceleration
                    0x0e12                  _velocity_previous
                    0x0e14                  _air_speed_magnitudeXY
                    0x0e16                  _air_speed_3DGPS
                    0x0e18                  _location_previous

.nbss               0x0e1e         0x4a
 .nbss              0x0e1e         0x1e build/default/production/_ext/1018708451/radioIn_udb4.o
                    0x0e1e                  _udb_pwIn
                    0x0e2c                  _udb_pwTrim
                    0x0e3a                  _rise_ppm
 .nbss              0x0e3c         0x16 build/default/production/_ext/682965384/flightplan-waypoints.o
                    0x0e3c                  _wp_inject
 .nbss              0x0e52         0x16 build/default/production/servoOut.o
                    0x0e52                  _udb_pwOut
                    0x0e64                  _outputNum

.ndata              0x0e68         0x46
 .ndata             0x0e68         0x12 build/default/production/_ext/1018724808/estWind.o
                    0x0e68                  _groundVelocityHistory
                    0x0e6e                  _fuselageDirectionHistory
                    0x0e74                  _estimatedWind
 .ndata             0x0e7a         0x12 build/default/production/_ext/1018708451/background.o
                    0x0e7a                  _cpu_timer
                    0x0e7c                  __cpu_timer
                    0x0e7e                  _idle_timer
                    0x0e82                  _uptime
                    0x0e86                  _udb_heartbeat_counter
                    0x0e88                  _loopCounter
 .ndata             0x0e8c         0x12 build/default/production/_ext/1018708451/magneto_udb4.o
                    0x0e8c                  _rawMagCalib
                    0x0e92                  _magGain
                    0x0e98                  _udb_magOffset
 .ndata             0x0e9e         0x10 build/default/production/_ext/682965384/cameraCntrl.o
                    0x0e9e                  _cam_pitch_servo_pwm_delta
                    0x0ea0                  _cam_yaw_servo_pwm_delta
                    0x0ea2                  _view_location
                    0x0ea8                  _camera_view

.nbss               0x0eae         0x1e
 .nbss              0x0eae         0x10 build/default/production/_ext/682965384/navigate.o
                    0x0eae                  _goal
 .nbss              0x0ebe          0xe build/default/production/_ext/1018708451/mpu6000.o
                    0x0ebe                  _mpu_data

.ndata              0x0ecc         0x22
 .ndata             0x0ecc          0xc build/default/production/_ext/682965384/altitudeCntrl.o
                    0x0ecc                  _throttleFiltered
                    0x0ed0                  _pitchAltitudeAdjust
                    0x0ed2                  _filterManual
                    0x0ed4                  _speed_height
 .ndata             0x0ed8          0xc build/default/production/main.o
                    0x0ed8                  _didCalibrate
                    0x0ed9                  _callSendTelemetry
                    0x0eda                  _flight_mode
                    0x0edc                  _gainadj_mode
                    0x0ede                  _udb_throttle_enable
                    0x0edf                  _throttleUp
                    0x0ee0                  _writeGains
                    0x0ee2                  _tailFlash
 .ndata             0x0ee4          0xa build/default/production/_ext/682965384/navigate.o
                    0x0ee4                  _togoal
                    0x0ee8                  _tofinish_line
                    0x0eea                  _progress_to_goal
                    0x0eec                  _desired_dir

.nbss               0x0eee          0x8
 .nbss              0x0eee          0x8 build/default/production/_ext/1018708451/libUDB.o
                    0x0eee                  _udb_flags
                    0x0ef0                  _primary_voltage
                    0x0ef4                  _lowVoltageWarning

.ndata              0x0ef6         0x1c
 .ndata             0x0ef6          0x8 build/default/production/_ext/682965384/states.o
                    0x0ef6                  _waggle
                    0x0ef8                  _calib_timer
                    0x0efa                  _standby_timer
                    0x0efc                  _stateS
 .ndata             0x0efe          0x8 build/default/production/_ext/682965384/flightplan-waypoints.o
                    0x0efe                  _waypointIndex
                    0x0f00                  _currentWaypointSet
                    0x0f02                  _numPointsInCurrentSet
                    0x0f04                  _wp_inject_pos
 .ndata             0x0f06          0x6 build/default/production/_ext/1018724808/gpsParseNMEA.o
                    0x0f06                  _RMCpos
                    0x0f08                  _GGApos
                    0x0f0a                  _msg_parse
 .ndata             0x0f0c          0x6 build/default/production/_ext/682965384/behavior.o
                    0x0f0c                  _cyclesUntilStartTriggerAction
                    0x0f0e                  _cyclesUntilStopTriggerAction
                    0x0f10                  _currentTriggerActionValue

.nbss               0x0f12         0x12
 .nbss              0x0f12          0x6 build/default/production/_ext/682965384/pitchCntrl.o
                    0x0f12                  _pitchrate
                    0x0f14                  _navElevMix
                    0x0f16                  _elevInput
 .nbss              0x0f18          0x6 build/default/production/_ext/682965384/servoPrepare.o
                    0x0f18                  _wind_gain
 .nbss              0x0f1e          0x6 build/default/production/main.o

.ndata              0x0f24          0x6
 .ndata             0x0f24          0x6 build/default/production/telemetry.o
                    0x0f24                  _sendGains
                    0x0f25                  _sendGPS
                    0x0f26                  _hasWrittenHeader
                    0x0f28                  _header_line

.nbss               0x0f2a          0x4
 .nbss              0x0f2a          0x4 build/default/production/_ext/1018708451/background.o

.ndata              0x0f2e          0x4
 .ndata             0x0f2e          0x4 build/default/production/_ext/1018708451/libUDB.o
                    0x0f2e                  _defaultCorcon
                    0x0f30                  _isr_nest_level

_013035A0522e3159
                    0x0f32          0x4
 _013035A0522e3159
                    0x0f32          0x4 build/default/production/_ext/1018708451/libUDB.o
                    0x0f32                  _trap_source

.ndata              0x0f36          0x4
 .ndata             0x0f36          0x4 build/default/production/_ext/1018708451/radioIn_udb4.o
                    0x0f36                  _failSafePulses
                    0x0f38                  _ppm_ch

.nbss               0x0f3a          0x6
 .nbss              0x0f3a          0x4 build/default/production/_ext/682965384/behavior.o
                    0x0f3a                  _current_orientation
                    0x0f3c                  _desired_behavior
 .nbss              0x0f3e          0x2 build/default/production/_ext/1018724808/libDCM.o
                    0x0f3e                  _dcm_flags

.ndata              0x0f40          0x2
 .ndata             0x0f40          0x2 build/default/production/_ext/1018708451/events.o
                    0x0f40                  _event_init_done

_01303480522e3159
                    0x0f42          0x2
 _01303480522e3159
                    0x0f42          0x2 build/default/production/_ext/1018708451/libUDB.o
                    0x0f42                  _trap_flags

_01303600522e3159
                    0x0f44          0x2
 _01303600522e3159
                    0x0f44          0x2 build/default/production/_ext/1018708451/libUDB.o
                    0x0f44                  _osc_fail_count

.ndata              0x0f46          0x2
 .ndata             0x0f46          0x2 build/default/production/_ext/1018708451/mpu6000.o
                    0x0f46                  _mpuCnt

.nbss               0x0f48          0x6
 .nbss              0x0f48          0x2 build/default/production/_ext/682965384/states.o
                    0x0f48                  _flags
 .nbss              0x0f4a          0x2 build/default/production/_ext/682965384/mode_switch.o
 .nbss              0x0f4c          0x2 build/default/production/_ext/682965384/altitudeCntrl.o
                    0x0f4c                  _desiredHeight

.ndata              0x0f4e          0x6
 .ndata             0x0f4e          0x2 build/default/production/_ext/682965384/servoPrepare.o
                    0x0f4e                  _telem_on
 .ndata             0x0f50          0x2 build/default/production/serialIO_udb4.o
                    0x0f50                  _pauseSerial
 .ndata             0x0f52          0x2 build/default/production/_ext/1018708451/analog2digital_udb4.o
                    0x0f52                  _sampcount

.bss                0x0f54       0x16aa
 .bss               0x0f54       0x16aa build/default/production/telemetry.o
                    0x0f54                  _ring_buffer

.data._Stdin        0x25fe         0x88
 .data._Stdin       0x25fe         0x88 c:/program files (x86)/microchip/xc16/v1.11/bin/bin/../../lib\liblega-c-elf.a(xfiles.XXeo)
                    0x25fe                  __Stdin
                    0x2626                  __Stdout
                    0x264e                  __Stderr
                    0x2676                  __Files

.data               0x2686         0x58
 .data              0x2686         0x58 c:/program files (x86)/microchip/xc16/v1.11/bin/bin/../../lib\liblega-c-elf.a(xldtob_cdfFnopuxX.XXeo)

.data.udigs         0x26de         0x22
 .data.udigs        0x26de         0x22 c:/program files (x86)/microchip/xc16/v1.11/bin/bin/../../lib\liblega-c-elf.a(xlitob.XXeo)

.data               0x2700         0x1a
 .data              0x2700         0x1a c:/program files (x86)/microchip/xc16/v1.11/bin/bin/../../lib\liblega-c-elf.a(xprintf_cdfFnopuxX.XXeo)

.data._Aldata       0x271a          0x6
 .data._Aldata      0x271a          0x6 c:/program files (x86)/microchip/xc16/v1.11/bin/bin/../../lib\liblega-c-elf.a(malloc.XXeo)
                    0x271a                  __Aldata
                    0x271e                  __Size_block

.data               0x2720          0x2
 .data              0x2720          0x2 c:/program files (x86)/microchip/xc16/v1.11/bin/bin/../../lib\liblega-c-elf.a(xgenld_cdfFnopuxX.XXeo)

.bss                0x2722          0x4
 .bss               0x2722          0x2 c:/program files (x86)/microchip/xc16/v1.11/bin/bin/../../lib\liblega-c-elf.a(fclose.XXelo)
 .bss               0x2724          0x2 c:/program files (x86)/microchip/xc16/v1.11/bin/bin/../../lib\liblega-pic30-elf.a(brk.Lelo)
                    0x2724                  ___curbrk

.data.__C30_UART
                    0x2726          0x2
 .data.__C30_UART
                    0x2726          0x2 c:/program files (x86)/microchip/xc16/v1.11/bin/bin/../../lib\liblega-pic30-elf.a(c30_uart.Leo)
                    0x2726                  ___C30_UART

.const              0xa168        0x3b2 load address 0x002168  
 .const             0xa168        0x21a build/default/production/telemetry.o
 .const             0xa382         0x82 build/default/production/_ext/1018724808/mathlibNAV.o
                    0xa382                  _sintab
 .const             0xa404         0x54 build/default/production/_ext/1018724808/gpsParseNMEA.o
                    0xa404                  _days_in_month
                    0xa410                  _set_FIX_1Hz
                    0xa423                  _set_DEFAULT
 .const             0xa458         0x42 build/default/production/_ext/682965384/flightplan-waypoints.o
                    0xa458                  _waypoints
                    0xa46e                  _rtlWaypoints
                    0xa484                  _wp_inject_byte_order
 .const             0xa49a         0x34 build/default/production/_ext/1018708451/mpu6000.o
 .const             0xa4ce         0x12 build/default/production/_ext/682965384/cameraCntrl.o
                    0xa4ce                  _pitch_servo_high_ratio
                    0xa4d0                  _yaw_servo_high_ratio
                    0xa4d2                  _tan_pitch_in_stabilized_mode
                    0xa4d4                  _pitch_offset_centred_pwm
                    0xa4d6                  _yaw_offset_centred_pwm
                    0xa4d8                  _pitch_servo_pwm_max
                    0xa4da                  _pitch_servo_pwm_min
                    0xa4dc                  _yaw_servo_pwm_max
                    0xa4de                  _yaw_servo_pwm_min
 .const             0xa4e0          0xc build/default/production/_ext/682965384/pitchCntrl.o
                    0xa4e0                  _pitchgain
                    0xa4e2                  _pitchkd
                    0xa4e4                  _hoverpitchgain
                    0xa4e6                  _hoverpitchkd
                    0xa4e8                  _rudderElevMixGain
                    0xa4ea                  _rollElevMixGain
 .const             0xa4ec          0xc build/default/production/motorCntrl.o
                    0xa4ec                  _motor_cos
                    0xa4f2                  _motor_sin
 .const             0xa4f8          0xa build/default/production/_ext/682965384/rollCntrl.o
                    0xa4f8                  _yawkdail
                    0xa4fa                  _rollkp
                    0xa4fc                  _rollkd
                    0xa4fe                  _hoverrollkp
                    0xa500                  _hoverrollkd
 .const             0xa502          0xa build/default/production/_ext/682965384/yawCntrl.o
                    0xa502                  _yawkdrud
                    0xa504                  _rollkprud
                    0xa506                  _rollkdrud
                    0xa508                  _hoveryawkp
                    0xa50a                  _hoveryawkd
 .const             0xa50c          0x6 build/default/production/_ext/682965384/servoMix.o
                    0xa50c                  _aileronbgain
                    0xa50e                  _elevatorbgain
                    0xa510                  _rudderbgain
 .const             0xa512          0x4 build/default/production/_ext/1018724808/gpsParseCommon.o
                    0xa512                  _boxCarN
                    0xa514                  _boxCarLen
 .const             0xa516          0x4 build/default/production/_ext/682965384/navigate.o
                    0xa516                  _yawkpail
                    0xa518                  _yawkprud

.text             0x00251a       0x2f72
 .text            0x00251a        0x9c8 build/default/production/_ext/1018724808/gpsParseNMEA.o
                  0x00251a                  _gps_nav_valid
                  0x002530                  _gps_startup_sequence
                  0x002566                  _dollar
                  0x002586                  _gps_G
                  0x0025a6                  _gps_P
                  0x0025c6                  _gps_id1
                  0x0025dc                  _gps_id2
                  0x0025f2                  _gps_id3
                  0x002658                  _gps_comma
                  0x002730                  _gps_rmc1
                  0x00277e                  _gps_rmc2
                  0x0027ba                  _gps_rmc3
                  0x0028d2                  _gps_rmc4
                  0x002928                  _gps_rmc5
                  0x002a42                  _gps_rmc6
                  0x002a88                  _gps_rmc7
                  0x002aca                  _gps_rmc8
                  0x002b08                  _gps_rmc9
                  0x002b52                  _gps_gga7
                  0x002b82                  _gps_gga8
                  0x002bcc                  _gps_gga9
                  0x002c34                  _gps_checksum
                  0x002ca2                  _calculate_week_num
                  0x002dac                  _calculate_time_of_week
                  0x002e92                  _commit_gps_data
 .text            0x002ee2        0x81e build/default/production/motorCntrl.o
                  0x002ee2                  _rotateRP
                  0x002f0c                  _rotate2D
                  0x002f38                  _deadBandRP
                  0x002fb2                  _deadBand
                  0x002ff4                  _magClamp
                  0x003024                  _magClampRP
                  0x00307a                  _magClampRPY
                  0x0030f6                  _magClamp32
                  0x003138                  _transposeR
                  0x0031a8                  _motorOut
                  0x003232                  _x_rotate
                  0x00323a                  _updateYaw
                  0x003262                  _get_rateMode_commands
                  0x0032bc                  _get_angleMode_commands
                  0x003300                  _motorCntrl
 .text            0x003700        0x674 build/default/production/_ext/1018724808/rmat.o
                  0x003700                  _dcm_init_rmat
                  0x003714                  _VectorCross
                  0x0037c4                  _read_gyros
                  0x00385a                  _read_accel
                  0x0038b6                  _omegaSOG
                  0x003904                  _rupdate
                  0x0039ec                  _normalize
                  0x003afc                  _roll_pitch_drift
                  0x003b9e                  _yaw_drift
                  0x003bde                  _PI_feedback
                  0x003caa                  _adjust_gyro_gain
                  0x003cd4                  _calibrate_gyros
                  0x003d5c                  _dcm_run_imu_step
 .text            0x003d74        0x5be build/default/production/telemetry.o
                  0x003d74                  _ring_get
                  0x003da8                  _ring_put
                  0x003ddc                  _ring_putn
                  0x003eac                  _ring_available
                  0x003ef6                  _ring_space
                  0x003f4a                  _queue_data
                  0x003f66                  _queue_string
                  0x003f7a                  _queue_prepend
                  0x003f98                  _fmtGains
                  0x0040f4                  _send_telemetry
                  0x004106                  _do_send_telemetry
                  0x0042f0                  _udb_serial_callback_get_binary_to_send
                  0x00430a                  _udb_serial_callback_received_byte
 .text            0x004332        0x546 build/default/production/_ext/1018724808/mathlibNAV.o
                  0x004332                  _sine
                  0x00438e                  _arcsine
                  0x00442e                  _cosine
                  0x00443c                  _rotate
                  0x0044a6                  _rect_to_polar
                  0x00455a                  _rect_to_polar16
                  0x004634                  _sqrt_int
                  0x00469e                  _sqrt_long
                  0x004740                  _vector2_mag
                  0x004760                  _vector3_mag
                  0x00478c                  _vector2_normalize
                  0x0047ee                  _vector3_normalize
 .text            0x004878        0x478 build/default/production/_ext/1018724808/deadReckoning.o
                  0x004878                  _dead_reckon
                  0x004af6                  _integrate_loc_cm
 .text            0x004cf0        0x3e6 build/default/production/_ext/682965384/navigate.o
                  0x004cf0                  _setup_origin
                  0x004d32                  _dcm_callback_gps_location_updated
                  0x004d46                  _set_goal
                  0x004d94                  _update_goal_alt
                  0x004da0                  _process_flightplan
                  0x004dc2                  _compute_bearing_to_goal
                  0x004fea                  _wind_gain_adjustment
                  0x004ff2                  _determine_navigation_deflection
 .text            0x0050d6        0x3b6 build/default/production/_ext/682965384/flightplan-waypoints.o
                  0x0050d6                  _wp_to_relative
                  0x005160                  _init_flightplan
                  0x0051be                  _use_fixed_origin
                  0x0051c6                  _get_fixed_origin
                  0x005228                  _next_waypoint
                  0x005330                  _run_flightplan
                  0x00543c                  _flightplan_live_begin
                  0x005446                  _flightplan_live_received_byte
                  0x005476                  _flightplan_live_commit

.dinit            0x00548c        0x3b6
 .dinit           0x00548c        0x3b6 data_init

.text             0x005842       0x2962
 .text            0x005842        0x392 build/default/production/_ext/682965384/altitudeCntrl.o
                  0x005842                  _excess_energy_height
                  0x00584a                  _altitudeCntrl
                  0x005864                  _set_throttle_control
                  0x0058b8                  _setTargetAltitude
                  0x0058c4                  _normalAltitudeCntrl
                  0x005b3c                  _manualThrottle
                  0x005b80                  _hoverAltitudeCntrl
 .text            0x005bd4        0x320 build/default/production/_ext/682965384/states.o
                  0x005bd4                  _init_states
                  0x005bec                  _udb_background_callback_periodic
                  0x005c7c                  _ent_calibrateS
                  0x005c98                  _ent_acquiringS
                  0x005cc0                  _ent_manualS
                  0x005cd8                  _ent_stabilizedS
                  0x005cf0                  _ent_waypointS
                  0x005d0e                  _ent_returnS
                  0x005d2c                  _udb_callback_radio_did_turn_off
                  0x005d40                  _startS
                  0x005d48                  _calibrateS
                  0x005d86                  _acquiringS
                  0x005dec                  _manualS
                  0x005e30                  _stabilizedS
                  0x005e70                  _waypointS
                  0x005eb6                  _returnS
 .text            0x005ef4        0x2f4 build/default/production/_ext/1018724808/gpsParseCommon.o
                  0x005ef4                  _gpsoutbin
                  0x005f12                  _gpsoutline
                  0x005f2a                  _udb_gps_callback_get_byte_to_send
                  0x005f56                  _udb_gps_callback_received_byte
                  0x005f64                  _udb_background_callback_triggered
 .text            0x0061e8        0x2be build/default/production/serialIO_udb4.o
                  0x0061e8                  _udb_init_GPS
                  0x006248                  _udb_gps_set_rate
                  0x00626a                  _udb_gps_check_rate
                  0x006294                  _udb_gps_start_sending_data
                  0x00629c                  __U1TXInterrupt
                  0x0062f0                  __U1RXInterrupt
                  0x006346                  _udb_init_USART
                  0x0063a8                  _udb_serial_set_rate
                  0x0063ca                  _udb_serial_check_rate
                  0x0063f4                  _udb_serial_start_sending_data
                  0x0063fc                  __U2TXInterrupt
                  0x006450                  __U2RXInterrupt
 .text            0x0064a6        0x294 build/default/production/_ext/1018708451/eeprom_udb4.o
                  0x0064a6                  _udb_eeprom_init
                  0x0064c2                  _bstart
                  0x0064d4                  _bstop
                  0x0064e6                  _byte_out
                  0x00651a                  _poll_set
                  0x006542                  _poll_clr
                  0x00656a                  _byte_in
                  0x0065b6                  _ACK_Poll
                  0x0065d0                  _eeprom_ByteWrite
                  0x006612                  _eeprom_PageWrite
                  0x006680                  _eeprom_ByteRead
                  0x0066d0                  _eeprom_SequentialRead
 .text            0x00673a        0x282 build/default/production/_ext/1018708451/background.o
                  0x00673a                  _udb_init_clock
                  0x0067e4                  __T1Interrupt
                  0x0068a0                  _udb_background_trigger
                  0x0068a8                  __T7Interrupt
                  0x0068ec                  _udb_cpu_load
                  0x0068fe                  __T5Interrupt
                  0x006938                  __T6Interrupt
 .text            0x0069bc        0x218 build/default/production/_ext/1018708451/events.o
                  0x0069bc                  _register_event
                  0x0069ca                  _register_event_p
                  0x006a16                  _trigger_event
                  0x006a6c                  _init_events
                  0x006acc                  __C2Interrupt
                  0x006b50                  __C1Interrupt
 .text            0x006bd4        0x210 build/default/production/main.o
                  0x006c3e                  _storeGains
                  0x006c8c                  _debugHack
                  0x006c9c                  _main
                  0x006cf6                  _check_failsafe
                  0x006d0e                  _check_flight_mode
                  0x006d40                  _run_background_task
 .text            0x006de4        0x1d6 build/default/production/_ext/682965384/pitchCntrl.o
                  0x006de4                  _pitchCntrl
                  0x006e00                  _normalPitchCntrl
                  0x006f0e                  _hoverPitchCntrl
 .text            0x006fba        0x1d6 build/default/production/_ext/1018708451/analog2digital_udb4.o
                  0x006fee                  _udb_init_gyros
                  0x006ffc                  _udb_init_accelerometer
                  0x00700c                  _udb_init_ADC
                  0x007090                  __ADC2Interrupt
 .text            0x007190        0x172 build/default/production/servoOut.o
                  0x007190                  _scale_pwm_out
                  0x0071b6                  _udb_init_pwm
                  0x00726a                  _udb_set_dc
                  0x0072a4                  _udb_set_action_state
                  0x0072c0                  __T3Interrupt
 .text            0x007302        0x16c build/default/production/_ext/682965384/servoMix.o
                  0x007302                  _servoMix
                  0x0073ce                  _cameraServoMix
 .text            0x00746e        0x162 build/default/production/_ext/682965384/behavior.o
                  0x00746e                  _init_behavior
                  0x007480                  _setBehavior
                  0x0074a6                  _canStabilizeInverted
                  0x0074ae                  _canStabilizeHover
                  0x0074b6                  _updateBehavior
                  0x007578                  _updateTriggerAction
                  0x0075c4                  _triggerActionSetValue
 .text            0x0075d0        0x15e build/default/production/_ext/1018708451/spiUtils.o
                  0x0075d0                  _initSPI1_master16
                  0x007602                  _writeSPI1reg16
                  0x007646                  _readSPI1reg16
                  0x007684                  _readSPI1_burst16n
 .text            0x00772e        0x14c build/default/production/_ext/1018708451/filters.o
                  0x00772e                  _init_boxCarState
                  0x00779e                  _boxcar
 .text            0x00787a        0x12c build/default/production/_ext/1018724808/libDCM.o
                  0x00787a                  _dcm_init
                  0x00788a                  _dcm_run_init_step
                  0x0078b8                  _udb_callback_read_sensors
                  0x0078c6                  _udb_servo_callback_prepare_outputs
                  0x0078ea                  _dcm_calibrate
                  0x0078fe                  _dcm_set_origin_location
                  0x00793c                  _dcm_absolute_to_relative
 .text            0x0079a6        0x126 build/default/production/_ext/1018708451/radioIn_udb4.o
                  0x0079a6                  _udb_init_capture
                  0x007a06                  _conv_pwIn
                  0x007a18                  __IC1Interrupt
 .text            0x007acc        0x126 build/default/production/_ext/682965384/yawCntrl.o
                  0x007acc                  _yawCntrl
                  0x007ae6                  _normalYawCntrl
                  0x007b94                  _hoverYawCntrl
 .text            0x007bf2        0x124 build/default/production/_ext/1018708451/libUDB.o
                  0x007bf2                  _udb_init
                  0x007c4e                  _udb_run
                  0x007c56                  _udb_init_leds
                  0x007c6c                  _udb_a2d_record_offsets
                  0x007c8e                  _udb_servo_record_trims
                  0x007cb6                  _udb_servo_pulsesat
                  0x007ce4                  _calculate_analog_sensor_values
                  0x007d0e                  _udb_get_reset_flags
 .text            0x007d16        0x10e build/default/production/_ext/1018708451/mpu6000.o
                  0x007d16                  _MPU6000_init16
                  0x007d9c                  _MPU6000_read
                  0x007db2                  __INT1Interrupt
                  0x007df4                  _MPU6000_print
 .text            0x007e24        0x104 build/default/production/_ext/682965384/rollCntrl.o
                  0x007e24                  _rollCntrl
                  0x007e3e                  _normalRollCntrl
                  0x007ed8                  _hoverRollCntrl
 .text            0x007f28         0xbc build/default/production/_ext/682965384/mode_switch.o
                  0x007f28                  _flight_mode_switch_manual
                  0x007f36                  _flight_mode_switch_auto
                  0x007f44                  _flight_mode_switch_home
                  0x007f52                  _flight_mode_switch_2pos_poll
                  0x007f58                  _flight_mode_switch_check_set
 .text            0x007fe4         0x90 build/default/production/_ext/682965384/cameraCntrl.o
                  0x007fe4                  _cam_pitchServoLimit
                  0x00800e                  _cam_yawServoLimit
                  0x008038                  _set_camera_view
                  0x008050                  _compute_camera_view
                  0x00806e                  _cameraCntrl
 .text            0x008074         0x7c build/default/production/_ext/1018724808/estYawDrift.o
                  0x008074                  _dcm_enable_yaw_drift_correction
                  0x008096                  _estYawDrift
 .text            0x0080f0         0x4c build/default/production/_ext/682965384/servoPrepare.o
                  0x0080f0                  _dcm_servo_callback_prepare_outputs
 .text            0x00813c         0x42 build/default/production/_ext/682965384/euler_angles.o
                  0x00813c                  _get_geo_heading_angle
 .text            0x00817e         0x26 build/default/production/_ext/1018708451/traps_udb4_asm.o
                  0x00817e                  __MathError
                  0x008182                  __StackError
                  0x008186                  __AddressError
                  0x00818a                  __OscillatorFail
                  0x008190                  __DMACError
                  0x008194                  __DefaultInterrupt

.init.delay32     0x0081a4         0x1c
 .init.delay32    0x0081a4         0x1c c:/program files (x86)/microchip/xc16/v1.11/bin/bin/../../lib\liblega-pic30-elf.a(delay32.Leo)
                  0x0081a4                  ___delay32

.text             0x0081c0          0x6
 .text            0x0081c0          0x6 build/default/production/_ext/1018724808/estWind.o
                  0x0081c0                  _estimateWind
