(i__main__
flan_options
p0
(dp1
S'altitude_correction'
p2
I0
sS'gps_delay_correction'
p3
I0
sS'telemetry_filename'
p4
S'/home/markw/Copy/Cub-auav3-fbw-tests/navspark_testing/navspark5hz_7_25b.RAW'
p5
sS'telemetry_type'
p6
S'SERIAL_MAVLINK_RAW'
p7
sS'GE_selector'
p8
I1
sS'loglevel'
p9
I0
sS'GE_filename_kml'
p10
S'/home/markw/Copy/Cub-auav3-fbw-tests/navspark_testing/navspark5hz_7_25b.kml'
p11
sS'CSV_filename'
p12
S'/home/markw/Copy/Cub-auav3-fbw-tests/navspark_testing/navspark5hz_7_25b.csv'
p13
sS'waypoint_filename'
p14
S'/media/ubuntu_32/home/markw/MPLABXProjects/newsvn/MatrixPilot_mw4fbw/Tools/flight_analyzer/waypoints_eastField.h'
p15
sS'CSV_selector'
p16
I1
sS'relocate'
p17
I0
sS'GE_filename'
p18
S'/home/markw/Copy/Cub-auav3-fbw-tests/navspark_testing/navspark5hz_7_25b.kmz'
p19
sS'waypoint_selector'
p20
I1
sS'telemetry_selector'
p21
I1
sb.