(i__main__
flan_options
p0
(dp1
S'altitude_correction'
p2
I0
sS'gps_delay_correction'
p3
I0
sS'telemetry_filename'
p4
S'/home/markw/Desktop/flightLogs/HILSIM/LOG00199.RAW'
p5
sS'telemetry_type'
p6
S'SERIAL_MAVLINK_RAW'
p7
sS'GE_selector'
p8
I1
sS'loglevel'
p9
I0
sS'GE_filename_kml'
p10
S'/home/markw/Desktop/flightLogs/HILSIM/LOG00199.kml'
p11
sS'CSV_filename'
p12
S'/home/markw/Desktop/flightLogs/HILSIM/LOG00199.csv'
p13
sS'waypoint_filename'
p14
S'/home/markw/MPLABXProjects/MatrixPilot_mw4/MatrixPilot/MatrixPilot-udb5-hilsim/projectSpecific/waypoints.h'
p15
sS'CSV_selector'
p16
I0
sS'relocate'
p17
I0
sS'GE_filename'
p18
S'/home/markw/Desktop/flightLogs/HILSIM/LOG00199.kmz'
p19
sS'waypoint_selector'
p20
I1
sS'telemetry_selector'
p21
I1
sb.